5851 Albert G. Greenberg, Kazem Sohraby: Proceedings of the IEEE INFOCOM 2012, Orlando, FL, USA, March 25-30, 2012 INFOCOM 2012
5850 Jiajia Liu, Xiaohong Jiang, Hiroki Nishiyama, Nei Kato: Exact throughput capacity under power control in mobile ad hoc networks. INFOCOM 2012:1-9
5849 Yujun Zhang, Guiling Wang, Qi Hu, Zhongcheng Li, Jie Tian: Design and performance study of a Topology-Hiding Multipath Routing protocol for mobile ad hoc networks. INFOCOM 2012:10-18
5848 Wang Liu, Kejie Lu, Jianping Wang, Yi Qian, Tao Zhang, Liusheng Huang: Capacity of distributed content delivery in large-scale wireless ad hoc networks. INFOCOM 2012:19-27
5847 Nguyen Tien Viet, François Baccelli: On the spatial modeling of wireless networks by random packing models. INFOCOM 2012:28-36
5846 Richard Southwell, Jianwei Huang, Xin Liu: Spectrum mobility games. INFOCOM 2012:37-45
5845 Yingzhe Li, Xinbing Wang, Xiaohua Tian, Xue Liu: Scaling laws for cognitive radio network with heterogeneous mobile secondary users. INFOCOM 2012:46-54
5844 Yao Zhao, Hongyi Wu, Miao Jin, Su Xia: Localization in 3D surface sensor networks: Challenges and solutions. INFOCOM 2012:55-63
5843 Chenshu Wu, Zheng Yang, Yunhao Liu, Wei Xi: WILL: Wireless indoor localization without site survey. INFOCOM 2012:64-72
5842 Zhiguo Wan, Kai Xing, Yunhao Liu: Priv-Code: Preserving privacy against traffic analysis through network coding for multihop wireless networks. INFOCOM 2012:73-81
5841 Jayashree Subramanian, Robert Morris, Hari Balakrishnan: UFlood: High-throughput flooding over wireless mesh networks. INFOCOM 2012:82-90
5840 Mohsen Sardari, Ahmad Beirami, Faramarz Fekri: Memory-assisted universal compression of network flows. INFOCOM 2012:91-99
5839 Peng Li, Song Guo, Shui Yu, Athanasios V. Vasilakos: CodePipe: An opportunistic feeding and routing protocol for reliable multicast with pipelined network coding. INFOCOM 2012:100-108
5838 Jin Teng, Junda Zhu, Boying Zhang, Dong Xuan, Yuan F. Zheng: E-V: Efficient visual surveillance with electronic footprints. INFOCOM 2012:109-117
5837 Junkun Li, Jiming Chen, Ten H. Lai: Energy-efficient intrusion detection with a barrier of probabilistic sensors. INFOCOM 2012:118-126
5836 Chengjie Wu, You Xu, Yixin Chen, Chenyang Lu: Submodular game for distributed application allocation in shared sensor networks. INFOCOM 2012:127-135
5835 Huai-Lei Fu, Hou-Chun Chen, Phone Lin, Yuguang Fang: Energy-efficient reporting mechanisms for multi-type real-time monitoring in Machine-to-Machine communications networks. INFOCOM 2012:136-144
5834 Hongkun Li, Yu Cheng, Xiaohua Tian, Xinbing Wang: A generic framework for throughput-optimal control in MR-MC wireless networks. INFOCOM 2012:145-153
5833 Riccardo Crepaldi, Jeongkeun Lee, Raúl H. Etkin, Sung-Ju Lee, Robin Kravets: CSI-SF: Estimating wireless channel state using CSI sampling & fusion. INFOCOM 2012:154-162
5832 Feng Wang, Dan Wang, Jiangchuan Liu: EleSense: Elevator-assisted wireless sensor data collection for high-rise structure monitoring. INFOCOM 2012:163-171
5831 Hongxing Li, Chuan Wu, Zongpeng Li, Wei Huang, Francis C. M. Lau: Stochastic optimal multirate multicast in socially selfish wireless networks. INFOCOM 2012:172-180
5830 Chunyi Peng, Minkyong Kim, Zhe Zhang, Hui Lei: VDN: Virtual machine image distribution network for cloud data centers. INFOCOM 2012:181-189
5829 Yang Song, Murtaza Zafer, Kang-Won Lee: Optimal bidding in spot instance market. INFOCOM 2012:190-198
5828 Feng Wang, Jiangchuan Liu, Minghua Chen: CALMS: Cloud-assisted live media streaming for globalized demands with time/region diversities. INFOCOM 2012:199-207
5827 Orathai Sukwong, Akkarit Sangpetch, Hyong S. Kim: SageShift: Managing SLAs for highly consolidated cloud. INFOCOM 2012:208-216
5826 Huan Ma, Meng Yang, Deying Li, Yi Hong, Wenping Chen: Minimum camera barrier coverage in wireless camera sensor networks. INFOCOM 2012:217-225
5825 Dengyuan Wu, Dechang Chen, Kai Xing, Xiuzhen Cheng: A statistical approach for target counting in sensor-based surveillance systems. INFOCOM 2012:226-234
5824 Nan Hua, Ashwin Lall, Baochun Li, Jun Xu: A simpler and better design of error estimating coding. INFOCOM 2012:235-243
5823 Xi Fang, Dejun Yang, Guoliang Xue: Strategizing surveillance for resource-constrained event monitoring. INFOCOM 2012:244-252
5822 Jiajia Liu, Xiaohong Jiang, Hiroki Nishiyama, Nei Kato: Multicast capacity, delay and delay jitter in intermittently connected mobile networks. INFOCOM 2012:253-261
5821 Xiaoyu Chu, Harish Sethu: Cooperative topology control with adaptation for improved lifetime in wireless ad hoc networks. INFOCOM 2012:262-270
5820 Xi Chen, Wentao Huang, Xinbing Wang, Xiaojun Lin: Multicast capacity in mobile wireless ad hoc network with infrastructure support. INFOCOM 2012:271-279
5819 Xi Fang, Dejun Yang, Guoliang Xue: Resource allocation in load-constrained multihopwireless networks. INFOCOM 2012:280-288
5818 Mustafa Al-Bado, Cigdem Sengul, Ruben Merz: What details are needed for wireless simulations? - A study of a site-specific indoor wireless model. INFOCOM 2012:289-297
5817 Xinfeng Li, Jin Teng, Boying Zhang, Adam C. Champion, Dong Xuan: TurfCast: A service for controlling information dissemination in wireless networks. INFOCOM 2012:298-306
5816 Haopeng Li, Jiang Xie: A low-cost channel scheduling design for multi-hop handoff delay reduction in internet-based wireless mesh networks. INFOCOM 2012:307-315
5815 Michael J. Neely, Arash Saber Tehrani, Zhen Zhang: Dynamic index coding for wireless broadcast networks. INFOCOM 2012:316-324
5814 Xunrui Yin, Xin Wang, Jin Zhao, Xiangyang Xue, Zongpeng Li: On benefits of network coding in bidirected networks and hyper-networks. INFOCOM 2012:325-333
5813 Hsiao-Chen Lu, Wanjiun Liao: Cooperative multicasting in network-coding enabled multi-rate wireless relay networks. INFOCOM 2012:334-342
5812 Anh Le, Athina Markopoulou: On detecting pollution attacks in inter-session network coding. INFOCOM 2012:343-351
5811 Nathaniel M. Jones, Brooke Shrader, Eytan Modiano: Optimal routing and scheduling for a simple network coding scheme. INFOCOM 2012:352-360
5810 Yongle Cao, Shuo Guo, Tian He: Robust multi-pipeline scheduling in low-duty-cycle wireless sensor networks. INFOCOM 2012:361-369
5809 Zhi Sun, Ian F. Akyildiz: On capacity of magnetic induction-based wireless underground sensor networks. INFOCOM 2012:370-378
5808 Shengbo Chen, Prasun Sinha, Ness B. Shroff, Changhee Joo: A simple asymptotically optimal energy allocation and routing scheme in rechargeable sensor networks. INFOCOM 2012:379-387
5807 Xiaohui Liang, Xu Li, Qinghua Shen, Rongxing Lu, Xiaodong Lin, Xuemin Shen, Weihua Zhuang: Exploiting prediction to enable Secure and Reliable routing in Wireless Body Area Networks. INFOCOM 2012:388-396
5806 Sobia Jangsher, Syed Ali Khayam, Qasim M. Chaudhari: Application-aware MIMO Video Rate Adaptation. INFOCOM 2012:397-405
5805 Aneesh Reddy, Sujay Sanghavi, Sanjay Shakkottai: On the effect of channel fading on greedy scheduling. INFOCOM 2012:406-414
5804 Peng-Jun Wan, Dechang Chen, Guojun Dai, Zhu Wang, F. Frances Yao: Maximizing capacity with power control under physical interference model in duplex mode. INFOCOM 2012:415-423
5803 Canming Jiang, Yi Shi, Y. Thomas Hou, Wenjing Lou, Sastry Kompella, Scott F. Midkiff: Squeezing the most out of interference: An optimization framework for joint interference exploitation and avoidance. INFOCOM 2012:424-432
5802 Fangfei Chen, Katherine Guo, John Lin, Thomas F. La Porta: Intra-cloud lightning: Building CDNs in the cloud. INFOCOM 2012:433-441
5801 Haiyang Wang, Feng Wang, Jiangchuan Liu, Justin Groen: Measurement and utilization of customer-provided resources for cloud computing. INFOCOM 2012:442-450
5800 Cong Wang, Kui Ren, Shucheng Yu, Karthik Mahendra Raje Urs: Achieving usable and privacy-assured similarity search over outsourced cloud data. INFOCOM 2012:451-459
5799 Di Niu, Hong Xu, Baochun Li, Shuqiao Zhao: Quality-assured cloud bandwidth auto-scaling for video-on-demand applications. INFOCOM 2012:460-468
5798 Michal Ficek, Lukas Kencl: Inter-Call Mobility model: A spatio-temporal refinement of Call Data Records using a Gaussian mixture model. INFOCOM 2012:469-477
5797 Christos Dimitrakakis, Aikaterini Mitrokotsa, Serge Vaudenay: Expected loss bounds for authentication in constrained channels. INFOCOM 2012:478-485
5796 Siyao Cheng, Jianzhong Li, Lei Yu: Location Aware Peak Value Queries in sensor networks. INFOCOM 2012:486-494
5795 Bowu Zhang, Kai Xing, Xiuzhen Cheng, Liusheng Huang, Rongfang Bie: Traffic clustering and online traffic prediction in vehicle networks: A social influence perspective. INFOCOM 2012:495-503
5794 Donghyun Kim, Baraki H. Abay, R. N. Uma, Weili Wu, Wei Wang, Alade O. Tokuta: Minimizing data collection latency in wireless sensor network with multiple mobile elements. INFOCOM 2012:504-512
5793 Rahul Vaze: Percolation and connectivity on the signal to interference ratio graph. INFOCOM 2012:513-521
5792 Chi-Kin Chau, Richard J. Gibbens, Don Towsley: Impact of directional transmission in large-scale multi-hop wireless ad hoc networks. INFOCOM 2012:522-530
5791 Savvas Gitzenis, Georgios S. Paschos, Leandros Tassiulas: Asymptotic laws for content replication and delivery in wireless networks. INFOCOM 2012:531-539
5790 Andres Garcia-Saavedra, Albert Banchs, Pablo Serrano, Joerg Widmer: Distributed Opportunistic Scheduling: A control theoretic approach. INFOCOM 2012:540-548
5789 Xiaojun Feng, Jin Zhang, Qian Zhang, Bo Li: Use your frequency wisely: Explore frequency domain for channel contention and ACK. INFOCOM 2012:549-557
5788 Justin Manweiler, Peter Franklin, Romit Roy Choudhury: RxIP: Monitoring the health of home wireless networks. INFOCOM 2012:558-566
5787 Vinay Joseph, Gustavo de Veciana: Jointly optimizing multi-user rate adaptation for video transport over wireless systems: Mean-fairness-variability tradeoffs. INFOCOM 2012:567-575
5786 Liang He, Zhe Yang, Jianping Pan, Lin Cai, Jingdong Xu: Evaluating service disciplines for mobile elements in wireless ad hoc sensor networks. INFOCOM 2012:576-584
5785 Marco Valero, Sang Shin Jung, A. Selcuk Uluagac, Yingshu Li, Raheem A. Beyah: Di-Sec: A distributed security framework for heterogeneous Wireless Sensor Networks. INFOCOM 2012:585-593
5784 Liang Liu, Anlong Ming, Huadong Ma, Xi Zhang: A binary-classification-tree based framework for distributed target classification in multimedia sensor networks. INFOCOM 2012:594-602
5783 Jin Wang, ShaoJie Tang, Baocai Yin, Xiang-Yang Li: Data gathering in wireless sensor networks through intelligent compressive sensing. INFOCOM 2012:603-611
5782 Shaolei Ren, Jaeok Park, Mihaela van der Schaar: Maximizing profit on user-generated content platforms with heterogeneous participants. INFOCOM 2012:612-620
5781 Xinggong Zhang, Yang Xu, Hao Hu, Yong Liu, Zongming Guo, Yao Wang: Profiling Skype video calls: Rate control and video quality. INFOCOM 2012:621-629
5780 Antonio Carzaniga, Cyrus P. Hall, Michele Papalini: Fully decentralized estimation of some global properties of a network. INFOCOM 2012:630-638
5779 Xun Xiao, Minming Li, Jianping Wang, Chunming Qiao: Optimal resource allocation to defend against deliberate attacks in networking infrastructures. INFOCOM 2012:639-647
5778 Desmond W. H. Cai, Chee Wei Tan, Steven H. Low: Optimal max-min fairness rate control in wireless networks: Perron-Frobenius characterization and algorithms. INFOCOM 2012:648-656
5777 Mahdi Hajiaghayi, Min Dong, Ben Liang: Jointly optimal bit loading, channel pairing and power allocation for multi-channel relaying. INFOCOM 2012:657-665
5776 Chunsheng Xin, Min Song: Dynamic spectrum access as a service. INFOCOM 2012:666-674
5775 Gesualdo Scutari, Francisco Facchinei, Jong-Shi Pang, Lorenzo Lampariello: Equilibrium selection in power control games on the interference channel. INFOCOM 2012:675-683
5774 Yu Wu, Chuan Wu, Bo Li, Linquan Zhang, Zongpeng Li, Francis C. M. Lau: Scaling social media applications into geo-distributed clouds. INFOCOM 2012:684-692
5773 Ning Cao, Shucheng Yu, Zhenyu Yang, Wenjing Lou, Y. Thomas Hou: LT codes-based secure and reliable cloud storage service. INFOCOM 2012:693-701
5772 Siva Theja Maguluri, R. Srikant, Lei Ying: Stochastic models of load balancing and scheduling in cloud computing clusters. INFOCOM 2012:702-710
5771 Di Niu, Chen Feng, Baochun Li: A theory of cloud bandwidth pricing for video-on-demand providers. INFOCOM 2012:711-719
5770 Narendra Anand, Sung-Ju Lee, Edward W. Knightly: STROBE: Actively securing wireless communications using Zero-Forcing Beamforming. INFOCOM 2012:720-728
5769 Shuai Li, Haojin Zhu, Zhaoyu Gao, Xinping Guan, Kai Xing, Xuemin Shen: Location privacy preservation in collaborative spectrum sensing. INFOCOM 2012:729-737
5768 Kaihe Xu, Qian Wang, Kui Ren: Joint UFH and power control for effective wireless anti-jamming communication. INFOCOM 2012:738-746
5767 Eric Graves, Tan F. Wong: Detection of channel degradation attack by Intermediary Node in Linear Networks. INFOCOM 2012:747-755
5766 Shangxing Wang, Youyun Xu, Xinbing Wang: Motioncast with general Markovian mobility. INFOCOM 2012:756-764
5765 Philippe Jacquet, Salman Malik, Bernard Mans, Alonso Silva: On the throughput-delay trade-off in georouting networks. INFOCOM 2012:765-773
5764 Canming Jiang, Yi Shi, Y. Thomas Hou, Wenjing Lou, Sastry Kompella, Scott F. Midkiff: Toward simple criteria to establish capacity scaling laws for wireless networks. INFOCOM 2012:774-782
5763 Gruia Calinescu, K. Qiao: Asymmetric topology control: Exact solutions and fast approximations. INFOCOM 2012:783-791
5762 Qiang Ma, Kebin Liu, Xin Miao, Yunhao Liu: Sherlock is around: Detecting network failures with local evidence fusion. INFOCOM 2012:792-800
5761 Zhenjiang Li, Mo Li, Yunhao Liu: Towards energy-fairness in asynchronous duty-cycling sensor networks. INFOCOM 2012:801-809
5760 Arthur J. Friend, Vahideh H. Manshadi, Amin Saberi: Distributed node placement algorithms for constructing well-connected sensor networks. INFOCOM 2012:810-818
5759 Shibo He, Jiming Chen, Xu Li, Xuemin Shen, Youxian Sun: Cost-effective barrier coverage by mobile sensor networks. INFOCOM 2012:819-827
5758 Tzvika Hartman, Avinatan Hassidim, Haim Kaplan, Danny Raz, Michal Segalov: How to split a flow? INFOCOM 2012:828-836
5757 Emilie Danna, Avinatan Hassidim, Haim Kaplan, Alok Kumar, Yishay Mansour, Danny Raz, Michal Segalov: Upward Max Min Fairness. INFOCOM 2012:837-845
5756 Emilie Danna, Subhasree Mandal, Arjun Singh: A practical algorithm for balancing the max-min fairness and throughput objectives in traffic engineering. INFOCOM 2012:846-854
5755 Magnús M. Halldórsson, Pradipta Mitra: Wireless capacity and admission control in cognitive radio. INFOCOM 2012:855-863
5754 Wenchi Cheng, Xi Zhang, Hailin Zhang: Full/half duplex based resource allocations for statistical quality of service provisioning in wireless relay networks. INFOCOM 2012:864-872
5753 Yuefei Zhu, Baochun Li, Zongpeng Li: Truthful spectrum auction design for secondary networks. INFOCOM 2012:873-881
5752 Dejun Yang, Xi Fang, Guoliang Xue: Channel allocation in non-cooperative multi-radio multi-channel wireless networks. INFOCOM 2012:882-890
5751 Zaixin Lu, Yan Shi, Weili Wu, Bin Fu: Efficient data retrieval scheduling for multi-channel wireless data broadcast. INFOCOM 2012:891-899
5750 Qiben Yan, Ming Li, Tingting Jiang, Wenjing Lou, Y. Thomas Hou: Vulnerability and protection for distributed consensus-based spectrum sensing in cognitive radio networks. INFOCOM 2012:900-908
5749 Yao Liu, Peng Ning: BitTrickle: Defending against broadband and high-power reactive jamming attacks. INFOCOM 2012:909-917
5748 Martin Eian, Stig Fr. Mjølsnes: A formal analysis of IEEE 80211w deadlock vulnerabilities. INFOCOM 2012:918-926
5747 Hongbo Liu, Jie Yang, Yan Wang, Yingying Chen: Collaborative secret key extraction leveraging Received Signal Strength in mobile wireless networks. INFOCOM 2012:927-935
5746 Qian Wang, Kui Ren, Xiaoqiao Meng: When cloud meets eBay: Towards effective pricing for cloud computing. INFOCOM 2012:936-944
5745 Sokol Kosta, Andrius Aucinas, Pan Hui, Richard Mortier, Xinwen Zhang: ThinkAir: Dynamic resource allocation and parallel execution in the cloud for mobile code offloading. INFOCOM 2012:945-953
5744 Vimal Mathew, Ramesh K. Sitaraman, Prashant J. Shenoy: Energy-aware load balancing in content delivery networks. INFOCOM 2012:954-962
5743 Mansoor Alicherry, T. V. Lakshman: Network aware resource allocation in distributed clouds. INFOCOM 2012:963-971
5742 Xinxin Liu, Han Zhao, Miao Pan, Hao Yue, Xiaolin Li, Yuguang Fang: Traffic-aware multiple mix zone placement for protecting location privacy. INFOCOM 2012:972-980
5741 Shizhen Zhao, Xiaojun Lin: On the design of scheduling algorithms for end-to-end backlog minimization in multi-hop wireless networks. INFOCOM 2012:981-989
5740 Guner D. Celik, Eytan Modiano: Scheduling in networks with time-varying channels and reconfiguration delay. INFOCOM 2012:990-998
5739 Srikanth Hariharan, Ness B. Shroff: On sample-path optimal dynamic scheduling for sum-queue minimization in trees under the K-hop interference model. INFOCOM 2012:999-1007
5738 Shuguang Xiong, Lei Yu, Haiying Shen, Chen Wang, Wei Lu: Efficient algorithms for sensor deployment and routing in sensor networks for network-structured environment monitoring. INFOCOM 2012:1008-1016
5737 Zhe Yang, Lin Cai, Yu Liu, Jianping Pan: Environment-aware clock skew estimation and synchronization for wireless sensor networks. INFOCOM 2012:1017-1025
5736 Cheng Bo, Danping Ren, ShaoJie Tang, Xiang-Yang Li, XuFei Mao, Qiuyuan Huang, Lufeng Mo, Zhiping Jiang, Yongmei Sun, Yunhao Liu: Locating sensors in the forest: A case study in GreenOrbs. INFOCOM 2012:1026-1034
5735 Shouling Ji, Raheem A. Beyah, Zhipeng Cai: Snapshot/Continuous Data Collection capacity for large-scale probabilistic Wireless Sensor Networks. INFOCOM 2012:1035-1043
5734 Sachin Kadloor, Negar Kiyavash, Parv Venkitasubramaniam: Mitigating timing based information leakage in shared schedulers. INFOCOM 2012:1044-1052
5733 Costas Courcoubetis, Antonis Dimakis: Fair background data transfers of minimal delay impact. INFOCOM 2012:1053-1061
5732 Jing Yang, Yanpei Liu, Stark C. Draper: Optimal scheduling policies with mutual information accumulation in wireless networks. INFOCOM 2012:1062-1070
5731 Aditya Gopalan, Constantine Caramanis, Sanjay Shakkottai: Low-delay wireless scheduling with partial channel-state information. INFOCOM 2012:1071-1079
5730 Karthikeyan Sundaresan, Sampath Rangarajan: Adaptive resource scheduling in wireless OFDMA relay networks. INFOCOM 2012:1080-1088
5729 Rohit Aggarwal, Can Emre Koksal, Philip Schniter: Performance bounds and associated design principles for multi-cellular wireless OFDMA systems. INFOCOM 2012:1089-1097
5728 Harish Ganapathy, Constantine Caramanis: Queue-based sub-carrier grouping for feedback reduction in OFDMA systems. INFOCOM 2012:1098-1106
5727 Negin Golrezaei, Karthikeyan Shanmugam, Alexandros G. Dimakis, Andreas F. Molisch, Giuseppe Caire: FemtoCaching: Wireless video content delivery through distributed caching helpers. INFOCOM 2012:1107-1115
5726 Andrew R. Curtis, Tommy Carpenter, Mustafa Elsheikh, Alejandro López-Ortiz, Srinivasan Keshav: REWIRE: An optimization-based framework for unstructured data center network design. INFOCOM 2012:1116-1124
5725 Xiaodong Wang, Yanjun Yao, Xiaorui Wang, Kefa Lu, Qing Cao: CARPO: Correlation-aware power optimization in data center networks. INFOCOM 2012:1125-1133
5724 Yuan Feng, Baochun Li, Bo Li: Bargaining towards maximized resource utilization in video streaming datacenters. INFOCOM 2012:1134-1142
5723 Fangfei Chen, Murali S. Kodialam, T. V. Lakshman: Joint scheduling of processing and Shuffle phases in MapReduce systems. INFOCOM 2012:1143-1151
5722 Cagatay Capar, Dennis Goeckel, Benyuan Liu, Don Towsley: Secret communication in large wireless networks without eavesdropper location information. INFOCOM 2012:1152-1160
5721 Jin Tang, Yu Cheng, Yong Hao: Detection and prevention of SIP flooding attacks in voice over IP networks. INFOCOM 2012:1161-1169
5720 Rui Zhang, Yanchao Zhang, Chi Zhang: Secure top-k query processing via untrusted location-based service providers. INFOCOM 2012:1170-1178
5719 Azadeh Sheikholeslami, Dennis Goeckel, Hossein Pishro-Nik, Don Towsley: Physical layer security from inter-session interference in large wireless networks. INFOCOM 2012:1179-1187
5718 Sok-Ian Sou, Phone Lin, Ssu-Shih Chen, Jeu-Yih Jeng: A novel multi-tariff charging method for next generation Multicast and Broadcast Service. INFOCOM 2012:1188-1196
5717 Aemen Lodhi, Amogh Dhamdhere, Constantine Dovrolis: GENESIS: An agent-based model of interdomain network formation, traffic flow and economics. INFOCOM 2012:1197-1205
5716 Carlee Joe-Wong, Soumya Sen, Tian Lan, Mung Chiang: Multi-resource allocation: Fairness-efficiency tradeoffs in a unifying framework. INFOCOM 2012:1206-1214
5715 Youwen Yi, Jin Zhang, Qian Zhang, Tao Jiang: Spectrum leasing to femto service provider with hybrid access. INFOCOM 2012:1215-1223
5714 Wenzhuo Ouyang, Atilla Eryilmaz, Ness B. Shroff: Asymptotically optimal downlink scheduling over Markovian fading channels. INFOCOM 2012:1224-1232
5713 Yu Hua, Xue Liu, Wenbo He: HOSA: Holistic scheduling and analysis for scalable fault-tolerant FlexRay design. INFOCOM 2012:1233-1241
5712 Partha Dutta, Anand Seetharam, Vijay Arya, Malolan Chetlur, Shivkumar Kalyanaraman, Jim Kurose: On managing quality of experience of multiple video streams in wireless networks. INFOCOM 2012:1242-1250
5711 Sungsu Lim, Kyomin Jung, Matthew Andrews: Stability of the Max-Weight protocol in adversarial wireless networks. INFOCOM 2012:1251-1259
5710 Dianjie Lu, Xiaoxia Huang, Pan Li, Jianping Fan: Connectivity of large-scale Cognitive Radio Ad Hoc Networks. INFOCOM 2012:1260-1268
5709 Ilenia Tinnirello, Giuseppe Bianchi, Pierluigi Gallo, Domenico Garlisi, Francesco Giuliano, Francesco Gringoli: Wireless MAC processors: Programming MAC protocols on commodity Hardware. INFOCOM 2012:1269-1277
5708 Lei Sun, Wenye Wang: Understanding the tempo-spatial limits of information dissemination in multi-channel Cognitive Radio Networks. INFOCOM 2012:1278-1286
5707 Lei Sun, Wenye Wang: On latency distribution and scaling: from finite to large Cognitive Radio Networks under general mobility. INFOCOM 2012:1287-1295
5706 Liang Liu, Yuning Song, Huadong Ma, Xi Zhang: Physarum optimization: A biology-inspired algorithm for minimal exposure path problem in wireless sensor networks. INFOCOM 2012:1296-1304
5705 Songtao Guo, Yuanyuan Yang: A distributed optimal framework for mobile data gathering with concurrent data uploading in wireless sensor networks. INFOCOM 2012:1305-1313
5704 Changlei Liu, Guohong Cao: Distributed critical location coverage in wireless sensor networks with lifetime constraint. INFOCOM 2012:1314-1322
5703 Zhichao Cao, Yuan He, Yunhao Liu: L2: Lazy forwarding in low duty cycle wireless sensor networks. INFOCOM 2012:1323-1331
5702 Yao Liu, Fei Li, Lei Guo, Bo Shen, Songqing Chen: A server's perspective of Internet streaming delivery to mobile devices. INFOCOM 2012:1332-1340
5701 Muhammad Zubair Shafiq, Lusheng Ji, Alex X. Liu, Jeffrey Pang, Jia Wang: Characterizing geospatial dynamics of application usage in a 3G cellular data network. INFOCOM 2012:1341-1349
5700 Suk-Bok Lee, Dan Pei, MohammadTaghi Hajiaghayi, Ioannis Pefkianakis, Songwu Lu, He Yan, Zihui Ge, Jennifer Yates, Mario Kosseifi: Threshold compression for 3G scalable monitoring. INFOCOM 2012:1350-1358
5699 Qian Clara Li, Rose Qingyang Hu, Geng Wu, Yi Qian: On the optimal mobile association in heterogeneous wireless relay networks. INFOCOM 2012:1359-1367
5698 Jie Wu, Yunsheng Wang: Social feature-based multi-path routing in delay tolerant networks. INFOCOM 2012:1368-1376
5697 Nikodin Ristanovic, George Theodorakopoulos, Jean-Yves Le Boudec: Traps and pitfalls of using contact traces in performance studies of opportunistic networks. INFOCOM 2012:1377-1385
5696 Misael Mongiovì, Ambuj K. Singh, Xifeng Yan, Bo Zong, Konstantinos Psounis: Efficient multicasting for delay tolerant networks using graph indexing. INFOCOM 2012:1386-1394
5695 Rongxing Lu, Xiaodong Lin, Tom H. Luan, Xiaohui Liang, Xu Li, Le Chen, Xuemin Shen: PReFilter: An efficient privacy-preserving Relay Filtering scheme for delay tolerant networks. INFOCOM 2012:1395-1403
5694 Wanchun Jiang, Fengyuan Ren, Ran Shu, Chuang Lin: Sliding Mode Congestion Control for data center Ethernet networks. INFOCOM 2012:1404-1412
5693 Zhiyang Guo, Zhemin Zhang, Yuanyuan Yang: Exploring server redundancy in nonblocking multicast data center networks. INFOCOM 2012:1413-1421
5692 Guanfeng Liang, Benjamin Sommer, Nitin H. Vaidya: Experimental performance comparison of Byzantine Fault-Tolerant protocols for data centers. INFOCOM 2012:1422-1430
5691 Yuan Yao, Longbo Huang, Abhishek Sharma, Leana Golubchik, Michael J. Neely: Data centers power reduction: A two time scale approach for delay tolerant workloads. INFOCOM 2012:1431-1439
5690 Dawei Gong, Yuanyuan Yang: AP association in 80211n WLANs with heterogeneous clients. INFOCOM 2012:1440-1448
5689 Kaishun Wu, Haochao Li, Lu Wang, Youwen Yi, Yunhuai Liu, Qian Zhang, Lionel M. Ni: HJam: Attachment transmission in WLANs. INFOCOM 2012:1449-1457
5688 Xi Chen, Yue Zhao, Brian Peck, Daji Qiao: SAP: Smart Access Point with seamless load balancing multiple interfaces. INFOCOM 2012:1458-1466
5687 Ehsan Aryafar, Mohammad Ali Khojastepour, Karthikeyan Sundaresan, Sampath Rangarajan, Edward W. Knightly: ADAM: An adaptive beamforming system for multicasting in wireless LANs. INFOCOM 2012:1467-1475
5686 Ning Lu, Tom H. Luan, Miao Wang, Xuemin Shen, Fan Bai: Capacity and delay analysis for social-proximity urban vehicular networks. INFOCOM 2012:1476-1484
5685 Yuchen Wu, Yanmin Zhu, Bo Li: Infrastructure-assisted routing in vehicular networks. INFOCOM 2012:1485-1493
5684 Joon Ahn, Yi Wang, Bo Yu, Fan Bai, Bhaskar Krishnamachari: RISA: Distributed Road Information Sharing Architecture. INFOCOM 2012:1494-1502
5683 Francesca Martelli, M. Elena Renda, Giovanni Resta, Paolo Santi: A measurement-based study of beaconing performance in IEEE 80211p vehicular networks. INFOCOM 2012:1503-1511
5682 Valentino Pacifici, Frank Lehrieder, György Dán: Cache capacity allocation for BitTorrent-like systems to minimize inter-ISP traffic. INFOCOM 2012:1512-1520
5681 Yi Sun, Yang Richard Yang, Xiaobing Zhang, Yang Guo, Jun Li, Kavé Salamatian: Network optimization for DHT-based applications. INFOCOM 2012:1521-1529
5680 Yipeng Zhou, Tom Z. J. Fu, Dah Ming Chiu: A unifying model and analysis of P2P VoD replication and scheduling. INFOCOM 2012:1530-1538
5679 Delia Ciullo, Valentina Martina, Michele Garetto, Emilio Leonardi, Giovanni Luca Torrisi: Stochastic analysis of self-sustainability in peer-assisted VoD systems. INFOCOM 2012:1539-1547
5678 Cem Tekin, Mingyan Liu: Approximately optimal adaptive learning in opportunistic spectrum access. INFOCOM 2012:1548-1556
5677 Miao Pan, Pan Li, Yang Song, Yuguang Fang, Phone Lin: Spectrum clouds: A session based spectrum trading system for multi-hop cognitive radio networks. INFOCOM 2012:1557-1565
5676 Bo Gao, Jung-Min Park, Yaling Yang: Uplink soft frequency reuse for self-coexistence of cognitive radio networks operating in white-space spectrum. INFOCOM 2012:1566-1574
5675 Shuang Li, Zizhan Zheng, Eylem Ekici, Ness B. Shroff: Maximizing system throughput by cooperative sensing in Cognitive Radio Networks. INFOCOM 2012:1575-1583
5674 Ling Ding, Weili Wu, James Willson, Lidong Wu, Zaixin Lu, Wonjun Lee: Constant-approximation for target coverage problem in wireless sensor networks. INFOCOM 2012:1584-1592
5673 Shi Bai, Weiyi Zhang, Guoliang Xue, Jian Tang, Chonggang Wang: DEAR: Delay-bounded Energy-constrained Adaptive Routing in wireless sensor networks. INFOCOM 2012:1593-1601
5672 Hongyu Zhou, Hongyi Wu, Miao Jin: A robust boundary detection algorithm based on connectivity only for 3D wireless sensor networks. INFOCOM 2012:1602-1610
5671 XuFei Mao, Xin Miao, Yuan He, Xiang-Yang Li, Yunhao Liu: CitySee: Urban CO2 monitoring with sensors. INFOCOM 2012:1611-1619
5670 Vijay Kumar Adhikari, Yang Guo, Fang Hao, Matteo Varvello, Volker Hilt, Moritz Steiner, Zhi-Li Zhang: Unreeling netflix: Understanding and improving multi-CDN movie delivery. INFOCOM 2012:1620-1628
5669 Akshay Krishnamurthy, Aarti Singh: Robust multi-source network tomography using selective probes. INFOCOM 2012:1629-1637
5668 Ori Rottenstreich, Isaac Keslassy: The Bloom paradox: When not to use a Bloom filter? INFOCOM 2012:1638-1646
5667 Tian Pan, Xiaoyu Guo, Chenhui Zhang, Junchen Jiang, Hao Wu, Bin Liuy: Tracking millions of flows in high speed networks for application identification. INFOCOM 2012:1647-1655
5666 Jaime Llorca, Kyle Guan, Gary Atkinson, Daniel C. Kilper: Energy efficient delivery of immersive video centric services. INFOCOM 2012:1656-1664
5665 Renchao Xie, F. Richard Yu, Hong Ji: Energy-efficient spectrum sharing and power allocation in cognitive radio femtocell networks. INFOCOM 2012:1665-1673
5664 Hao Liang, Bong Jun Choi, Weihua Zhuang, Xuemin Shen: Towards optimal energy store-carry-and-deliver for PHEVs via V2G system. INFOCOM 2012:1674-1682
5663 Jian Tang, Brendan Mumey, Yun Xing, Andy Johnson: On exploiting flow allocation with rate adaptation for green networking. INFOCOM 2012:1683-1691
5662 Bruno F. Ribeiro, Pinghui Wang, Fabricio Murai, Don Towsley: Sampling directed graphs with random walks. INFOCOM 2012:1692-1700
5661 Lingjie Duan, Takeshi Kubo, Kohei Sugiyama, Jianwei Huang, Teruyuki Hasegawa, Jean C. Walrand: Incentive mechanisms for smartphone collaboration in data acquisition and distributed computing. INFOCOM 2012:1701-1709
5660 Felix Ming, Fai Wong, Peter Marbach: Cosine-neighbourhood-refinement: Towards a robust network formation mechanism. INFOCOM 2012:1710-1718
5659 Francesco Malandrino, Maciej Kurant, Athina Markopoulou, Cédric Westphal, Ulas C. Kozat: Proactive seeding for information cascades in cellular networks. INFOCOM 2012:1719-1727
5658 Amir R. Khakpour, Joshua W. Hulst, Zihui Ge, Alex X. Liu, Dan Pei, Jia Wang: Firewall fingerprinting. INFOCOM 2012:1728-1736
5657 Jan van Lunteren, Alexis Guanella: Hardware-accelerated regular expression matching at multiple tens of Gb/s. INFOCOM 2012:1737-1745
5656 Chad R. Meiners, Eric Norige, Alex X. Liu, Eric Torng: FlowSifter: A counting automata approach to layer 7 field extraction for deep flow inspection. INFOCOM 2012:1746-1754
5655 Cláudia Pascoal, Maria Rosário de Oliveira, Rui Valadas, Peter Filzmoser, Paulo Salvador, António Pacheco: Robust feature selection and robust PCA for internet traffic anomaly detection. INFOCOM 2012:1755-1763
5654 Tao Jing, Xiuying Chen, Yan Huo, Xiuzhen Cheng: Achievable transmission capacity of cognitive mesh networks with different media access control. INFOCOM 2012:1764-1772
5653 Harish Ganapathy, Mukundan Madhavan, Malolan Chetlur, Shivkumar Kalyanaraman: On Exploiting degrees-of-freedom in whitespaces. INFOCOM 2012:1773-1781
5652 Yanxiao Zhao, Min Song, Chunsheng Xin, Manish Wadhwa: Spectrum sensing based on three-state model to accomplish all-level fairness for co-existing multiple cognitive radio networks. INFOCOM 2012:1782-1790
5651 Shiyao Chen, Lang Tong, Qing Zhao: Delay optimal multichannel opportunistic access. INFOCOM 2012:1791-1799
5650 Anand Seetharam, Jim Kurose, Dennis Goeckel, Gautam D. Bhanage: A Markov chain model for coarse timescale channel variation in an 80216e wireless network. INFOCOM 2012:1800-1807
5649 Manjesh Kumar Hanawal, Eitan Altman, François Baccelli: Stochastic geometry based medium access games. INFOCOM 2012:1808-1816
5648 Yanyan Zhuang, Jianping Pan: A geometrical probability approach to location-critical network performance metrics. INFOCOM 2012:1817-1825
5647 Yuedong Xu, Eitan Altman, Rachid El Azouzi, Majed Haddad, Salah-Eddine Elayoubi, Tania Jiménez: Probabilistic analysis of buffer starvation in Markovian queues. INFOCOM 2012:1826-1834
5646 Khuong Vu, Rong Zheng: Geometric algorithms for target localization and tracking under location uncertainties in wireless sensor networks. INFOCOM 2012:1835-1843
5645 Zi Li, Yang Peng, Daji Qiao, Wensheng Zhang: LBA: Lifetime balanced data aggregation in low duty cycle sensor networks. INFOCOM 2012:1844-1852
5644 Wenping Liu, Dan Wang, Hongbo Jiang, Wenyu Liu, Chonggang Wang: Approximate convex decomposition based localization in wireless sensor networks. INFOCOM 2012:1853-1861
5643 Zichong Cheny, Guillermo Barrenetxeay, Martin Vetterliyz: Share risk and energy: Sampling and communication strategies for multi-camera wireless monitoring networks. INFOCOM 2012:1862-1870
5642 Meng Wang, Weiyu Xu, Enrique Mallada, Ao Tang: Sparse recovery with graph constraints: Fundamental limits and measurement construction. INFOCOM 2012:1871-1879
5641 Ori Rottenstreich, Yossi Kanizo, Isaac Keslassy: The Variable-Increment Counting Bloom Filter. INFOCOM 2012:1880-1888
5640 Erez Tsidon, Iddo Hanniel, Isaac Keslassy: Estimators also need shared values to grow together. INFOCOM 2012:1889-1897
5639 Oguzhan Erdem, Hoang Le, Viktor K. Prasanna: Hierarchical hybrid search structure for high performance packet classification. INFOCOM 2012:1898-1906
5638 Changcun Ma, Deying Li, Hongwei Du, Huan Ma, Yuexuan Wang, Wonjun Lee: Energy efficient broadcast in multiradio multichannel wireless networks. INFOCOM 2012:1907-1915
5637 Xiang Sheng, Jian Tang, Weiyi Zhang: Energy-efficient collaborative sensing with mobile phones. INFOCOM 2012:1916-1924
5636 Jindou Fan, Chengchen Hu, Keqiang He, Junchen Jiang, Bin Liuy: Reducing power of traffic manager in routers via dynamic on/off-chip scheduling. INFOCOM 2012:1925-1933
5635 Canming Jiang, Yi Shi, Y. Thomas Hou, Wenjing Lou: Cherish every joule: Maximizing throughput with an eye on network-wide energy consumption. INFOCOM 2012:1934-1941
5634 Zimu Liu, Yuan Feng, Baochun Li: Socialize spontaneously with mobile applications. INFOCOM 2012:1942-1950
5633 Wei Wei, Fengyuan Xu, Chiu Chiang Tan, Qun Li: SybilDefender: Defend against sybil attacks in large social networks. INFOCOM 2012:1951-1959
5632 Kate Ching-Ju Lin, Chun-Wei Chen, Cheng-Fu Chou: Preference-aware content dissemination in opportunistic mobile social networks. INFOCOM 2012:1960-1968
5631 Rui Zhang, Yanchao Zhang, Jinyuan Sun, Guanhua Yan: Fine-grained private matching for proximity-based mobile social networking. INFOCOM 2012:1969-1977
5630 Cheng-Hung Lin, Chen-Hsiung Liu, Shih-Chieh Chang, Wing-Kai Hon: Memory-efficient pattern matching architectures using perfect hashing on graphic processing units. INFOCOM 2012:1978-1986
5629 Anat Bremler-Barr, Shimrit Tzur David, David Hay, Yaron Koral: Decompression-free inspection: DPI for shared dictionary compression over HTTP. INFOCOM 2012:1987-1995
5628 Yu Wang, Dingbang Xu, Xiao He, Chao Zhang, Fan Li, Bin Xu: L2P2: Location-aware location privacy protection for location-based services. INFOCOM 2012:1996-2004
5627 Fabio Soldo, Ahmed Metwally: Traffic anomaly detection based on the IP size distribution. INFOCOM 2012:2005-2013
5626 Donglin Hu, Shiwen Mao: Cooperative relay with interference alignment for video over cognitive radio networks. INFOCOM 2012:2014-2022
5625 Diep N. Nguyen, Marwan Krunz: Spectrum management and power allocation in MIMO cognitive networks. INFOCOM 2012:2023-2031
5624 Jing Zhao, Guohong Cao: Robust topology control in multi-hop cognitive radio networks. INFOCOM 2012:2032-2040
5623 Haiming Jin, Gaofei Sun, Xinbing Wang, Qian Zhang: Spectrum trading with insurance in cognitive radio networks. INFOCOM 2012:2041-2049
5622 Corentin Briat, Emre A. Yavuz, Gunnar Karlsson: A conservation-law-based modular fluid-flow model for network congestion modeling. INFOCOM 2012:2050-2058
5621 Juan Antonio Cordero, Philippe Jacquet, Emmanuel Baccelli: Impact of jitter-based techniques on flooding over wireless ad hoc networks: Model and analysis. INFOCOM 2012:2059-2067
5620 Javad Ghaderi, R. Srikant: Effect of access probabilities on the delay performance of Q-CSMA algorithms. INFOCOM 2012:2068-2076
5619 Derek Leonard, Zhongmei Yao, Xiaoming Wang, Dmitri Loguinov: Stochastic analysis of horizontal IP scanning. INFOCOM 2012:2077-2085
5618 Hongbo Jiang, Tianlong Yu, Chen Tian, Guang Tan, Chonggang Wang: CONSEL: Connectivity-based segmentation in large-scale 2D/3D sensor networks. INFOCOM 2012:2086-2094
5617 Sen Yang, Xinbing Wang, Luoyi Fu: On the topology of wireless sensor networks. INFOCOM 2012:2095-2103
5616 Yin Wang, Yuan He, XuFei Mao, Yunhao Liu, Zhiyu Huang, Xiang-Yang Li: Exploiting constructive interference for scalable flooding in wireless networks. INFOCOM 2012:2104-2112
5615 Shouling Ji, Zhipeng Cai: Distributed data collection and its capacity in asynchronous wireless sensor networks. INFOCOM 2012:2113-2121
5614 Stefano Vissicchio, Luca Cittadini, Laurent Vanbever, Olivier Bonaventure: iBGP deceptions: More sessions, fewer routes. INFOCOM 2012:2122-2130
5613 Xiaohua Tian, Yu Cheng: Loop mitigation in bloom filter based multicast: A destination-oriented approach. INFOCOM 2012:2131-2139
5612 Yu Zhang, Mihaela van der Schaar: Reputation-based incentive protocols in crowdsourcing applications. INFOCOM 2012:2140-2148
5611 In Keun Son, Shiwen Mao, Michelle X. Gong, Yihan Li: On frame-based scheduling for directional mmWave WPANs. INFOCOM 2012:2149-2157
5610 Hao Yue, Chi Zhang, Miao Pan, Yuguang Fang, Shigang Chen: A time-efficient information collection protocol for large-scale RFID systems. INFOCOM 2012:2158-2166
5609 Yuan Li, Chen Yuan, Haibin Kan: Novel constructions of complex orthogonal designs for space-time block codes. INFOCOM 2012:2167-2173
5608 Tao Li, Wen Luo, Zhen Mo, Shigang Chen: Privacy-preserving RFID authentication based on cryptographical encoding. INFOCOM 2012:2174-2182
5607 Weiping Zhu, Jiannong Cao, Yi Xu, Lei Yang, Junjun Kong: Fault-tolerant RFID reader localization based on passive RFID tags. INFOCOM 2012:2183-2191
5606 Yibei Ling, Scott Alexander, Richard Lau: On quantification of anchor placement. INFOCOM 2012:2192-2200
5605 Dian Zhang, Yunhuai Liu, Xiaonan Guo, Min Gao, Lionel M. Ni: On distinguishing the multiple radio paths in RSS-based ranging. INFOCOM 2012:2201-2209
5604 Kaishun Wu, Jiang Xiao, Youwen Yi, Min Gao, Lionel M. Ni: FILA: Fine-grained indoor localization. INFOCOM 2012:2210-2218
5603 Zhongli Liu, Yinjie Chen, Benyuan Liu, Chengyu Cao, Xinwen Fu: HAWK: An unmanned mini helicopter-based aerial wireless kit for localization. INFOCOM 2012:2219-2227
5602 Xinxin Zhao, Lingjun Li, Guoliang Xue, Gabriel Silva: Efficient anonymous message submission. INFOCOM 2012:2228-2236
5601 Murali S. Kodialam, T. V. Lakshman, Sarit Mukherjee: Effective ad targeting with concealed profiles. INFOCOM 2012:2237-2245
5600 Fan Zhang, Li He, Wenbo He, Xue Liu: Data perturbation with state-dependent noise for participatory sensing. INFOCOM 2012:2246-2254
5599 Mohammad Ashiqur Rahman, Padmalochan Bera, Ehab Al-Shaer: SmartAnalyzer: A noninvasive security threat analyzer for AMI smart grid. INFOCOM 2012:2255-2263
5598 Shaowei Wang, Zhi-Hua Zhou, Mengyao Ge, Chonggang Wang: Resource allocation for heterogeneous multiuser OFDM-based cognitive radio networks with imperfect spectrum sensing. INFOCOM 2012:2264-2272
5597 Yi Song, Jiang Xie: A distributed broadcast protocol in multi-hop cognitive radio ad hoc networks without a common control channel. INFOCOM 2012:2273-2281
5596 Mo Dong, Gaofei Sun, Xinbing Wang, Qian Zhang: Combinatorial auction with time-frequency flexibility in cognitive radio networks. INFOCOM 2012:2282-2290
5595 Xiang-Yang Li, Panlong Yang, Yubo Yan, Lizhao You, ShaoJie Tang, Qiuyuan Huang: Almost optimal accessing of nonstochastic channels in cognitive radio networks. INFOCOM 2012:2291-2299
5594 Majed Alresaini, Maheswaran Sathiamoorthy, Bhaskar Krishnamachari, Michael J. Neely: Backpressure with Adaptive Redundancy (BWAR). INFOCOM 2012:2300-2308
5593 Bruno Nardelli, Edward W. Knightly: Closed-form throughput expressions for CSMA networks with collisions and hidden terminals. INFOCOM 2012:2309-2317
5592 Mihalis G. Markakis, Eytan Modiano, John N. Tsitsiklis: Max-weight scheduling in networks with heavy-tailed traffic. INFOCOM 2012:2318-2326
5591 Virag Shah, Gustavo de Veciana, George Kesidis: Learning to route queries in unstructured P2P networks: Achieving throughput optimality subject to query resolution constraints. INFOCOM 2012:2327-2335
5590 Reuven Cohen, Ilia Nudelman, Gleb Polevoy: On the admission of dependent flows in powerful sensor networks. INFOCOM 2012:2336-2344
5589 Miao Jin, Guodong Rong, Hongyi Wu, Liang Shuai, Xiaohu Guo: Optimal surface deployment problem in wireless sensor networks. INFOCOM 2012:2345-2353
5588 Benjamin Gaudette, Vinay Hanumaiah, Sarma B. K. Vrudhula, Marwan Krunz: Optimal range assignment in solar powered active wireless sensor networks. INFOCOM 2012:2354-2362
5587 Ting Zhu, Abedelaziz Mohaisen, Yi Ping, Don Towsley: DEOS: Dynamic energy-oriented scheduling for sustainable wireless sensor networks. INFOCOM 2012:2363-2371
5586 Daniele Riboni, Antonio Villani, Domenico Vitali, Claudio Bettini, Luigi V. Mancini: Obfuscation of sensitive data in network flows. INFOCOM 2012:2372-2380
5585 Zhen Ling, Junzhou Luo, Wei Yu, Ming Yang, Xinwen Fu: Extensive analysis and large-scale empirical evaluation of tor bridge discovery. INFOCOM 2012:2381-2389
5584 Zhen Ling, Junzhou Luo, Yang Zhang, Ming Yang, Xinwen Fu, Wei Yu: A novel network delay based side-channel attack: Modeling and defense. INFOCOM 2012:2390-2398
5583 Khuong Vu, Rong Zheng, Jie Gao: Efficient algorithms for K-anonymous location privacy in participatory sensing. INFOCOM 2012:2399-2407
5582 Sheng Zhang, Zhuzhong Qian, Jie Wu, Sanglu Lu: An Opportunistic Resource Sharing and Topology-Aware mapping framework for virtual networks. INFOCOM 2012:2408-2416
5581 Sara Oueslati, James Roberts, Nada Sbihi: Flow-aware traffic control for a content-centric network. INFOCOM 2012:2417-2425
5580 Mengjun Xie, Indra Widjaja, Haining Wang: Enhancing cache robustness for content-centric networking. INFOCOM 2012:2426-2434
5579 Layong Luo, Gaogang Xie, Yingke Xie, Laurent Mathy, Kavé Salamatian: A hybrid IP lookup architecture with fast updates. INFOCOM 2012:2435-2443
5578 Jie Dai, Zhan Hu, Bo Li, Jiangchuan Liu, Baochun Li: Collaborative hierarchical caching with dynamic request routing for massive content distribution. INFOCOM 2012:2444-2452
5577 Gideon Blocq, Ariel Orda: How good is bargained routing? INFOCOM 2012:2453-2461
5576 Lei Rao, Qixin Wang, Xue Liu, Yufei Wang: Analysis of TDMA crossbar real-time switch design for AFDX networks. INFOCOM 2012:2462-2470
5575 Luigi Rizzo, Marta Carbone, Gaetano Catalli: Transparent acceleration of software packet forwarding using netmap. INFOCOM 2012:2471-2479
5574 Patricio Galdames, Ying Cai: Efficient processing of location-cloaked queries. INFOCOM 2012:2480-2488
5573 Jia Liu, Hanif D. Sherali: A distributed Newton's method for joint multi-hop routing and flow control: Theory and algorithm. INFOCOM 2012:2489-2497
5572 Yunghsiang S. Han, Rong Zheng, Wai Ho Mow: Exact regenerating codes for Byzantine fault tolerance in distributed storage. INFOCOM 2012:2498-2506
5571 Arun Natarajan, Peng Ning, Yao Liu, Sushil Jajodia, Steve E. Hutchinson: NSDMiner: Automated discovery of Network Service Dependencies. INFOCOM 2012:2507-2515
5570 Chia-Wei Chang, Han Liu, Guanyao Huang, Bill Lin, Chen-Nee Chuah: Distributed measurement-aware routing: Striking a balance between measurement and traffic engineering. INFOCOM 2012:2516-2520
5569 Vijay Kumar Adhikari, Sourabh Jain, Yingying Chen, Zhi-Li Zhang: Vivisecting YouTube: An active measurement study. INFOCOM 2012:2521-2525
5568 Tao Li, Shigang Chen, Yan Qiao: Origin-destination flow measurement in high-speed networks. INFOCOM 2012:2526-2530
5567 Ye Tian, Ratan Dey, Yong Liu, Keith W. Ross: China's Internet: Topology mapping and geolocating. INFOCOM 2012:2531-2535
5566 Diana Joumblatt, Oana Goga, Renata Teixeira, Jaideep Chandrashekar, Nina Taft: Characterizing end-host application performance across multiple networking environments. INFOCOM 2012:2536-2540
5565 Guowu Xie, Marios Iliofotou, Ram Keralapura, Michalis Faloutsos, Antonio Nucci: SubFlow: Towards practical flow-level traffic classification. INFOCOM 2012:2541-2545
5564 Haiyong Xie, Guangyu Shi, Pengwei Wang: TECC: Towards collaborative in-network caching guided by traffic engineering. INFOCOM 2012:2546-2550
5563 Stephen D. Strowes, Colin Perkins: Harnessing Internet topological stability in Thorup-Zwick compact routing. INFOCOM 2012:2551-2555
5562 João L. Sobrinho, Franck Le: A fresh look at inter-domain route aggregation. INFOCOM 2012:2556-2560
5561 Rihua Wei, Yang Xu, H. Jonathan Chao: Block permutations in Boolean Space to minimize TCAM for packet classification. INFOCOM 2012:2561-2565
5560 Amir Nahir, Ariel Orda, Danny Raz: Workload factoring with the cloud: A game-theoretic perspective. INFOCOM 2012:2566-2570
5559 Xuanjia Qiu, Hongxing Li, Chuan Wu, Zongpeng Li, Francis C. M. Lau: Cost-minimizing dynamic migration of content distribution services into hybrid clouds. INFOCOM 2012:2571-2575
5558 Yan Zhu, Hongxin Hu, Gail-Joon Ahn, Dijiang Huang, Shan-Biao Wang: Towards temporal access control in cloud computing. INFOCOM 2012:2576-2580
5557 Qin Liu, Chiu Chiang Tan, Jie Wu, Guojun Wang: Efficient information retrieval for ranked queries in cost-effective cloud environments. INFOCOM 2012:2581-2585
5556 Jian Tan, Xiaoqiao Meng, Li Zhang: Performance analysis of Coupling Scheduler for MapReduce/Hadoop. INFOCOM 2012:2586-2590
5555 Tung-Wei Kuo, Ming-Jer Tsai: On the construction of data aggregation tree with minimum energy cost in wireless sensor networks: NP-completeness and approximation algorithms. INFOCOM 2012:2591-2595
5554 Haitao Zhang, ShaoJie Tang, Xiang-Yang Li, Huadong Ma: Tracking and identifying burglar using collaborative sensor-camera networks. INFOCOM 2012:2596-2600
5553 Liang Liu, Xi Zhang, Huadong Ma: Optimal density estimation for exposure-path prevention in wireless sensor networks using percolation theory. INFOCOM 2012:2601-2605
5552 Dawei Pan, Yi Yuan, Dan Wang, XiaoHua Xu, Yu Peng, Xiyuan Peng, Peng-Jun Wan: Thermal Inertia: Towards an energy conservation room management system. INFOCOM 2012:2606-2610
5551 Daphney-Stavroula Zois, Marco Levorato, Urbashi Mitra: A POMDP framework for heterogeneous sensor selection in wireless body area networks. INFOCOM 2012:2611-2615
5550 Wei Wei, Fengyuan Xu, Qun Li: MobiShare: Flexible privacy-preserving location sharing in mobile online social networks. INFOCOM 2012:2616-2620
5549 Shraboni Jana, Kai Zeng, Prasant Mohapatra: Trusted collaborative spectrum sensing for mobile cognitive radio networks. INFOCOM 2012:2621-2625
5548 Dong-Hoon Shin, Saurabh Bagchi, Chih-Chun Wang: Distributed online channel assignment toward optimal monitoring in multi-channel wireless networks. INFOCOM 2012:2626-2630
5547 Matthew Knysz, Xin Hu, Yuanyuan Zeng, Kang G. Shin: Open WiFi networks: Lethal weapons for botnets? INFOCOM 2012:2631-2635
5546 Yao Liu, Peng Ning: Enhanced wireless channel authentication using time-synched link signature. INFOCOM 2012:2636-2640
5545 Nianbo Liu, Ming Liu, Guihai Chen, Jiannong Cao: The sharing at roadside: Vehicular content distribution using parked vehicles. INFOCOM 2012:2641-2645
5544 Maheswaran Sathiamoorthy, Alexandros G. Dimakis, Bhaskar Krishnamachari, Fan Bai: Distributed storage codes reduce latency in vehicular networks. INFOCOM 2012:2646-2650
5543 Merkourios Karaliopoulos, Christian Rohner: Trace-based performance analysis of opportunistic forwarding under imperfect node cooperation. INFOCOM 2012:2651-2655
5542 Yung-Chih Chen, Jim Kurose, Don Towsley: A mixed queueing network model of mobility in a campus wireless network. INFOCOM 2012:2656-2660
5541 Xuemei Liu, Yanmin Zhu, Minglu Li, Qian Zhang: POVA: Traffic light sensing with probe vehicles. INFOCOM 2012:2661-2665
5540 Huijiang Li, Neeraj Jaggi, Biplab Sikdar: An analytical approach towards cooperative relay scheduling under partial state information. INFOCOM 2012:2666-2670
5539 Miloud Bagaa, Abdelouahid Derhab, Noureddine Lasla, Abdelraouf Ouadjaout, Nadjib Badache: Semi-structured and unstructured data aggregation scheduling in wireless sensor networks. INFOCOM 2012:2671-2675
5538 ShaoJie Tang, Lei Yang: Morello: A quality-of-monitoring oriented sensing scheduling protocol in Sensor Networks. INFOCOM 2012:2676-2680
5537 Xiaokang Yu, Xiaotian Yin, Wei Han, Jie Gao, Xianfeng Gu: Scalable routing in 3D high genus sensor networks using graph embedding. INFOCOM 2012:2681-2685
5536 Qiang Liu, Xin Wang, Nageswara S. V. Rao: Fusion of state estimates over long-haul sensor networks under random delay and loss. INFOCOM 2012:2686-2690
5535 Yaqin Zhou, Xiang-Yang Li, Min Liu, Zhongcheng Li, ShaoJie Tang, XuFei Mao, Qiuyuan Huang: Distributed link scheduling for throughput maximization under physical interference model. INFOCOM 2012:2691-2695
5534 Javad Ghaderi, Tianxiong Ji, R. Srikant: Connection-level scheduling in wireless networks using only MAC-layer information. INFOCOM 2012:2696-2700
5533 Peng Zhao, Xinyu Yang, Jiayin Wang, Benyuan Liu, Jie Wang: BOR/AC: Bandwidth-aware opportunistic routing with admission control in wireless mesh networks. INFOCOM 2012:2701-2705
5532 Rafael P. Laufer, Pedro B. Velloso, Luiz Filipe M. Vieira, Leonard Kleinrock: PLASMA: A new routing paradigm for wireless multihop networks. INFOCOM 2012:2706-2710
5531 Edith C. H. Ngai, Mani B. Srivastava, Jiangchuan Liu: Context-aware sensor data dissemination for mobile users in remote areas. INFOCOM 2012:2711-2715
5530 Yonggang Wen, Weiwen Zhang, Haiyun Luo: Energy-optimal mobile application execution: Taming resource-poor mobile devices with cloud clones. INFOCOM 2012:2716-2720
5529 Karthik Thirugnanam, Bhojan Anand, Jeena Sebastian, Pravein G. Kannan, Akkihebbal L. Ananda, Rajesh Krishna Balan, Mun Choon Chan: Dynamic lookahead mechanism for conserving power in multi-player mobile games. INFOCOM 2012:2721-2725
5528 Jialin He, Hui Liu, Pengfei Cui, Jonathan Landon, Onur Altintas, Rama Vuyyuru, Dinesh Rajan, Joseph David Camp: Design and experimental evaluation of context-aware link-level adaptation. INFOCOM 2012:2726-2730
5527 Sanjit Krishnan Kaul, Roy D. Yates, Marco Gruteser: Real-time status: How often should one update? INFOCOM 2012:2731-2735
5526 Sebastian Neumayer, Alon Efrat, Eytan Modiano: Geographic max-flow and min-cut under a circular disk failure model. INFOCOM 2012:2736-2740
5525 Yang Liu, Wenji Chen, Yong Guan: A fast sketch for aggregate queries over high-speed network traffic. INFOCOM 2012:2741-2745
5524 Mohamad Jaber, Roberto G. Cascella, Chadi Barakat: Using host profiling to refine statistical application identification. INFOCOM 2012:2746-2750
5523 Josep Sanjuàs-Cuxart, Pere Barlet-Ros, Nick G. Duffield, Ramana Rao Kompella: Cuckoo sampling: Robust collection of flow aggregates under a fixed memory budget. INFOCOM 2012:2751-2755
5522 He Yan, Ashley Flavel, Zihui Ge, Alexandre Gerber, Daniel Massey, Christos Papadopoulos, Hiren Shah, Jennifer Yates: Argus: End-to-end service anomaly detection and localization from an ISP's point of view. INFOCOM 2012:2756-2760
5521 Yanjiao Chen, Jin Zhang, Qian Zhang, Juncheng Jia: A reverse auction framework for access permission transaction to promote hybrid access in femtocell network. INFOCOM 2012:2761-2765
5520 Mohammad Hadi Afrasiabi, Roch Guérin: Pricing strategies for user-provided connectivity services. INFOCOM 2012:2766-2770
5519 Eitan Altman, Dieter Fiems, Majed Haddad, Julien Gaillard: Semi-dynamic Hawk and Dove game, applied to power control. INFOCOM 2012:2771-2775
5518 Honggang Zhang, Sudarshan Vasudevan: Design and analysis of a choking strategy for coalitions in data swarming systems. INFOCOM 2012:2776-2780
5517 Swastik Brahma, Mainak Chatterjee: A bayesian based incentive-compatible routing mechanism for Dynamic Spectrum Access networks. INFOCOM 2012:2781-2785
5516 Zixia Huang, Klara Nahrstedt: Perception-based playout scheduling for high-quality real-time interactive multimedia. INFOCOM 2012:2786-2790
5515 Huan Huang, Bo Zhang, S.-H. Gary Chan, Gene Cheung, Pascal Frossard: Coding and replication co-design for interactive multiview video streaming. INFOCOM 2012:2791-2795
5514 Joerg Widmer, Andrea Capalbo, Antonio Fernández Anta, Albert Banchs: Rate allocation for layered multicast streaming with inter-layer network coding. INFOCOM 2012:2796-2800
5513 Dimitris S. Papailiopoulos, Jianqiang Luo, Alexandros G. Dimakis, Cheng Huang, Jin Li: Simple regenerating codes: Network coding for cloud storage. INFOCOM 2012:2801-2805
5512 Sujogya Banerjee, Shahrzad Shirazipourazad, Arunabha Sen: On region-based fault tolerant design of distributed file storage in networks. INFOCOM 2012:2806-2810
5511 Haifeng Zheng, Shilin Xiao, Xinbing Wang, Xiaohua Tian: Energy and latency analysis for in-network computation with compressive sensing in wireless sensor networks. INFOCOM 2012:2811-2815
5510 Kyuho Son, Bhaskar Krishnamachari: SpeedBalance: Speed-scaling-aware optimal load balancing for green cellular networks. INFOCOM 2012:2816-2820
5509 Ning Ding, Abhinav Pathak, Dimitrios Koutsonikolas, Clayton Shepard, Y. Charlie Hu, Lin Zhong: Realizing the full potential of PSM using proxying. INFOCOM 2012:2821-2825
5508 Murat Kocaoglu, Özgür B. Akan: Minimum energy coding for wireless nanosensor networks. INFOCOM 2012:2826-2830
5507 Andrea Francini: Selection of a rate adaptation scheme for network hardware. INFOCOM 2012:2831-2835
5506 Ratan Dey, Cong Tang, Keith W. Ross, Nitesh Saxena: Estimating age privacy leakage in online social networks. INFOCOM 2012:2836-2840
5505 Tom Callahan, Mark Allman, Michael Rabinovich: Pssst, over here: Communicating without fixed infrastructure. INFOCOM 2012:2841-2845
5504 Seungwon Shin, Zhaoyan Xu, Guofei Gu: EFFORT: Efficient and effective bot malware detection. INFOCOM 2012:2846-2850
5503 Shui Yu, Song Guo, Ivan Stojmenovic: Can we beat legitimate cyber behavior mimicking attacks from botnets? INFOCOM 2012:2851-2855
5502 Marc Lelarge: Coordination in network security games. INFOCOM 2012:2856-2860
5501 David Breitgand, Amir Epstein: Improving consolidation of virtual machines with risk-aware bandwidth oversubscription in compute clouds. INFOCOM 2012:2861-2865
5500 Muhammad Saqib Ilyas, Saqib Raza, Chao-Chih Chen, Zartash Afzal Uzmi, Chen-Nee Chuah: RED-BL: Energy solution for loading data centers. INFOCOM 2012:2866-2870
5499 Ting He, Shiyao Chen, Hyoil Kim, Lang Tong, Kang-Won Lee: To migrate or to wait: Bandwidth-latency tradeoff in opportunistic scheduling of parallel tasks. INFOCOM 2012:2871-2875
5498 Joe Wenjie Jiang, Tian Lan, Sangtae Ha, Minghua Chen, Mung Chiang: Joint VM placement and routing for data center traffic engineering. INFOCOM 2012:2876-2880
5497 Dan Xu, Xin Liu: Geographic trough filling for internet datacenters. INFOCOM 2012:2881-2885
5496 Ze Li, Haiying Shen, Hailang Wang, Guoxin Liu, Jin Li: SocialTube: P2P-assisted video sharing in online social networks. INFOCOM 2012:2886-2890
5495 Haiyang Wang, Feng Wang, Jiangchuan Liu: Accelerating peer-to-peer file sharing with social relations: Potentials and challenges. INFOCOM 2012:2891-2895
5494 Lan Zhang, Xiang-Yang Li, Yunhao Liu, Qiuyuan Huang, ShaoJie Tang: Mechanism design for finding experts using locally constructed social referral web. INFOCOM 2012:2896-2900
5493 Zhi Wang, Lifeng Sun, Chuan Wu, Shiqiang Yang: Guiding internet-scale video service deployment using microblog-based prediction. INFOCOM 2012:2901-2905
5492 Atish Das Sarma, Anisur Rahaman Molla, Gopal Pandurangan: Near-optimal random walk sampling in distributed networks. INFOCOM 2012:2906-2910
5491 Yuan Le, Liran Ma, Wei Cheng, Xiuzhen Cheng, Biao Chen: Maximizing throughput when achieving time fairness in multi-rate wireless LANs. INFOCOM 2012:2911-2915
5490 Pirmin Heinzer, Vincent Lenders, Franck Legendre: Fast and accurate packet delivery estimation based on DSSS chip errors. INFOCOM 2012:2916-2920
5489 Yang Liu, Mingyan Liu, Jing Deng: Is diversity gain worth the pain: A delay comparison between opportunistic multi-channel MAC and single-channel MAC. INFOCOM 2012:2921-2925
5488 Wenxian Li, Yanmin Zhu, Tian He: WiBee: Building WiFi radio map with ZigBee sensor networks. INFOCOM 2012:2926-2930
5487 Pablo Salvador, Francesco Gringoli, Vincenzo Mancuso, Pablo Serrano, Andrea Mannocci, Albert Banchs: VoIPiggy: Implementation and evaluation of a mechanism to boost voice capacity in 80211WLANs. INFOCOM 2012:2931-2935
5486 Honghai Zhang, Narayan Prasad, Sampath Rangarajan: MIMO downlink scheduling in LTE systems. INFOCOM 2012:2936-2940
5485 Tae Hyun Kim, Theodoros Salonidis, Henrik Lundgren: MIMO wireless networks with directional antennas in indoor environments. INFOCOM 2012:2941-2945
5484 Richard Combes, Zwi Altman, Eitan Altman: Self-organization in wireless networks: A flow-level perspective. INFOCOM 2012:2946-2950
5483 Jia Liu, Qian Chen, Hanif D. Sherali: Algorithm design for femtocell base station placement in commercial building environments. INFOCOM 2012:2951-2955
5482 Mustafa Y. Arslan, Jongwon Yoon, Karthikeyan Sundaresan, Srikanth V. Krishnamurthy, Suman Banerjee: Experimental characterization of interference in OFDMA femtocell networks. INFOCOM 2012:2956-2960
5481 Wanchun Jiang, Fengyuan Ren, Chuang Lin, Ivan Stojmenovic: Analysis of backward congestion notification with delay for enhanced ethernet networks. INFOCOM 2012:2961-2965
5480 Ching-Ming Lien, Shu-Hao Chang, Cheng-Shang Chang, Duan-Shin Lee: Anchored desynchronization. INFOCOM 2012:2966-2970
5479 Jelena Pesic, Julien Meuric, Esther Le Rouzic, Laurent Dupont, Michel Morvan: Proactive failure detection for WDM carrying IP. INFOCOM 2012:2971-2975
5478 Chih-Ping Li, Michael J. Neely: Delay and rate-optimal control in a multi-class priority queue with adjustable service rates. INFOCOM 2012:2976-2980
5477 Feng Lu, Geoffrey M. Voelker, Alex C. Snoeren: Weighted fair queuing with differential dropping. INFOCOM 2012:2981-2985
5476 László Toka, Pasquale Cataldi, Matteo Dell'Amico, Pietro Michiardi: Redundancy management for P2P backup. INFOCOM 2012:2986-2990
5475 Zhongmei Yao, Daren B. H. Cline, Dmitri Loguinov: On superposition of heterogeneous edge processes in dynamic random graphs. INFOCOM 2012:2991-2995
5474 Ziyu Shao, Hao Zhang, Minghua Chen, Kannan Ramchandran: Reverse-engineering BitTorrent: A Markov approximation perspective. INFOCOM 2012:2996-3000
5473 Delia Ciullo, Valentina Martina, Michele Garetto, Emilio Leonardi, Giovanni Luca Torrisi: Performance analysis of non-stationary peer-assisted VoD systems. INFOCOM 2012:3001-3005
5472 Srinivasan Venkatramanan, Anurag Kumar: Co-evolution of content popularity and delivery in mobile P2P networks. INFOCOM 2012:3006-3010
5471 Xiao Lin Liu, Chong Luo, Wenjun Hu, Feng Wu: Compressive broadcast in MIMO systems with receive antenna heterogeneity. INFOCOM 2012:3011-3015
5470 Shan Zhou, Xinzhou Wu, Lei Ying: Distributed power control and coding-modulation adaptation in wireless networks using annealed Gibbs sampling. INFOCOM 2012:3016-3020
5469 Sastry Kompella, Gam D. Nguyen, Jeffrey E. Wieselthier, Anthony Ephremides: Impact of channel state information on the stability of cognitive shared channels. INFOCOM 2012:3021-3025
5468 Bin Li, Atilla Eryilmaz: Distributed channel probing for efficient transmission scheduling over wireless fading channels. INFOCOM 2012:3026-3030
5467 Devu Manikantan Shila, Yu Cheng: Ad hoc wireless networks meet the infrastructure: Mobility, capacity and delay. INFOCOM 2012:3031-3035
5466 Anas Basalamah, Song Min Kim, Shuo Guo, Tian He, Yoshito Tobe: Link correlation aware opportunistic routing. INFOCOM 2012:3036-3040
5465 Yoora Kim, Kyunghan Lee, Ness B. Shroff, Injong Rhee: Revisiting delay-capacity tradeoffs for mobile networks: The delay is overestimated. INFOCOM 2012:3041-3045
5464 Guohua Li, Jianzhong Li, Bo Yu: Lower bound of weighted fairness guaranteed congestion control protocol for WSNs. INFOCOM 2012:3046-3050
5463 Jinbei Zhang, Luoyi Fu, Xinbing Wang: Impact of secrecy on capacity in large-scale wireless networks. INFOCOM 2012:3051-3055
5462 XiaoHua Xu, Qian Wang, Jiannong Cao, Peng-Jun Wan, Kui Ren, Yuanfang Chen: Locating malicious nodes for data aggregation in wireless networks. INFOCOM 2012:3056-3060
5461 Sangho Oh, Tam Vu, Marco Gruteser, Suman Banerjee: Phantom: Physical layer cooperation for location privacy protection. INFOCOM 2012:3061-3065
5460 Zhuo Lu, Wenye Wang, Cliff Wang: Hiding traffic with camouflage: Minimizing message delay in the smart grid under jamming. INFOCOM 2012:3066-3070
5459 Yun Li, Jian Li, Jian Ren, Jie Wu: Providing hop-by-hop authentication and source privacy in wireless sensor networks. INFOCOM 2012:3071-3075
5458 Xiaojun Feng, Yanjiao Chen, Jin Zhang, Qian Zhang, Bo Li: TAHES: Truthful double Auction for Heterogeneous Spectrums. INFOCOM 2012:3076-3080
5457 Bowen Li, Panlong Yang, Xiang-Yang Li, ShaoJie Tang, Yunhao Liu, Qihui Wu: Almost optimal dynamically-ordered multi-channel accessing for cognitive networks. INFOCOM 2012:3081-3085
5456 Wenhan Dai, Yi Gai, Bhaskar Krishnamachari: Efficient online learning for opportunistic spectrum access. INFOCOM 2012:3086-3090
5455 Shimin Gong, Ping Wang, Jianwei Huang: Robust threshold design for cooperative sensing in cognitive radio networks. INFOCOM 2012:3091-3095
5454 Bin Cao, Lin X. Cai, Hao Liang, Jon W. Mark, Qinyu Zhang, H. Vincent Poor, Weihua Zhuang: Cooperative cognitive radio networking using quadrature signaling. INFOCOM 2012:3096-3100
5453 : INFOCOM 2011. 30th IEEE International Conference on Computer Communications, Joint Conference of the IEEE Computer and Communications Societies, 10-15 April 2011, Shanghai, China INFOCOM 2011
5452 Salvatore Scellato, Ilias Leontiadis, Cecilia Mascolo, Prithwish Basu, Murtaza Zafer: Understanding robustness of mobile networks through temporal network measures. INFOCOM 2011:1-5
5451 Sukhyun Song, Peter J. Keleher, Bobby Bhattacharjee, Alan Sussman: Decentralized, accurate, and low-cost network bandwidth prediction. INFOCOM 2011:6-10
5450 Xingang Shi, Chi-Kin Chau, Dah-Ming Chiu: Space-efficient tracking of network-wide flow correlations. INFOCOM 2011:11-15
5449 Gonca Gürsun, Mark Crovella, Ibrahim Matta: Describing and forecasting video access patterns. INFOCOM 2011:16-20
5448 Yiming Zhang: Exploiting Tag-based Path Diversity in the DLG-Kautz network. INFOCOM 2011:21-25
5447 Ping Xu, XiaoHua Xu, ShaoJie Tang, Xiang-Yang Li: Truthful online spectrum allocation and auction in multi-channel wireless networks. INFOCOM 2011:26-30
5446 Keren Tan, Guanhua Yan, Jihwang Yeo, David Kotz: Privacy analysis of user association logs in a large-scale wireless LAN. INFOCOM 2011:31-35
5445 Shaxun Chen, Kai Zeng, Prasant Mohapatra: Hearing is believing: Detecting mobile primary user emulation attack in white space. INFOCOM 2011:36-40
5444 Hossein Kaffash Bokharaei, Alireza Sahraei, Yashar Ganjali, Ram Keralapura, Antonio Nucci: You can SPIT, but you can't hide: Spammer identification in telephony networks. INFOCOM 2011:41-45
5443 Mahmoud Taghizadeh, Amir R. Khakpour, Alex X. Liu, Subir Biswas: Collaborative firewalling in wireless networks. INFOCOM 2011:46-50
5442 Yan Zhang, Nirwan Ansari: On mitigating TCP Incast in Data Center Networks. INFOCOM 2011:51-55
5441 Dan Li, Mingwei Xu, Ming-Chen Zhao, Chuanxiong Guo, Yongguang Zhang, Min-You Wu: RDCM: Reliable data center multicast. INFOCOM 2011:56-60
5440 Deke Guo, Tao Chen, Dan Li, Yunhao Liu, Xue Liu, Guihai Chen: BCN: Expansible network structures for data centers using hierarchical compound graphs. INFOCOM 2011:61-65
5439 Vivek Shrivastava, Petros Zerfos, Kang-Won Lee, Hani Jamjoom, Yew-Huey Liu, Suman Banerjee: Application-aware virtual machine migration in data centers. INFOCOM 2011:66-70
5438 Meng Wang, Xiaoqiao Meng, Li Zhang: Consolidating virtual machines with dynamic bandwidth demand in data centers. INFOCOM 2011:71-75
5437 Mahdi Hajiaghayi, Min Dong, Ben Liang: Optimal channel assignment and power allocation for dual-hop multi-channel multi-user relaying. INFOCOM 2011:76-80
5436 Fan Wu, Nitin H. Vaidya: SMALL: A Strategy-proof Mechanism for radio spectrum allocation. INFOCOM 2011:81-85
5435 Ajay Gopinathan, Zongpeng Li: A prior-free revenue maximizing auction for secondary spectrum access. INFOCOM 2011:86-90
5434 Jonathan Wellons, Yuan Xue: Towards robust and efficient routing in multi-radio, multi-channel wireless mesh networks. INFOCOM 2011:91-95
5433 Reuven Cohen, Guy Grebla: Efficient allocation of CQI channels in broadband wireless networks. INFOCOM 2011:96-100
5432 Yu Jin, Nick G. Duffield, Alexandre Gerber, Patrick Haffner, Wen-Ling Hsu, Guy Jacobson, Subhabrata Sen, Shobha Venkataraman, Zhi-Li Zhang: Making sense of customer tickets in cellular networks. INFOCOM 2011:101-105
5431 Salah-Eddine Elayoubi, Louai Saker, Tijani Chahed: Optimal control for base station sleep mode in energy efficient radio access networks. INFOCOM 2011:106-110
5430 David López-Pérez, Ákos Ladányi, Alpár Jüttner, Hervé Rivano, Jie Zhang: Optimization method for the joint allocation of modulation schemes, coding rates, resource blocks and power in self-organizing LTE networks. INFOCOM 2011:111-115
5429 SeYoung Yun, Yung Yi, Dong-Ho Cho, Jeonghoon Mo: Open or close: On the sharing of femtocells. INFOCOM 2011:116-120
5428 Gyan Ranjan, Zhi-Li Zhang, Supranamaya Ranjan, Ram Keralapura, Joshua Robinson: Un-zipping cellular infrastructure locations via user geo-intent. INFOCOM 2011:121-125
5427 Peter Matray, Péter Hága, Sándor Laki, István Csabai, Gábor Vattay: On the network geography of the Internet. INFOCOM 2011:126-130
5426 Shiva Prasad Kasiviswanathan, Stephan Eidenbenz, Guanhua Yan: Geography-based analysis of the Internet infrastructure. INFOCOM 2011:131-135
5425 Mohit Chamania, Marcel Caria, Admela Jukan: A comparative performance analysis of IP traffic offloading schemes over Dynamic Circuits. INFOCOM 2011:136-140
5424 Onur Turkcu, Arun K. Somani: Efficient multicasting approaches using collection-distribution networks. INFOCOM 2011:141-145
5423 Ravish Khosla, Sonia Fahmy, Y. Charlie Hu: BGP molecules: Understanding and predicting prefix failures. INFOCOM 2011:146-150
5422 Udi Weinsberg, Augustin Soule, Laurent Massoulié: Inferring traffic shaping and policy parameters using end host measurements. INFOCOM 2011:151-155
5421 Pinghui Wang, Xiaohong Guan, Weibo Gong, Donald F. Towsley: A new virtual indexing method for measuring host connection degrees. INFOCOM 2011:156-160
5420 Kohei Watabe, Masaki Aida: Analysis on the fluctuation magnitude in probe interval for active measurement. INFOCOM 2011:161-165
5419 Mikkel Thorup: Timeouts with time-reversed linear probing. INFOCOM 2011:166-170
5418 Brian Eriksson, Paul Barford, Joel Sommers, Robert Nowak: DomainImpute: Inferring unseen components in the Internet. INFOCOM 2011:171-175
5417 Kaustubh Nyalkalkar, Sushant Sinha, Michael Bailey, Farnam Jahanian: A comparative study of two network-based anomaly detection methods. INFOCOM 2011:176-180
5416 Jing Gao, Wei Fan, Deepak S. Turaga, Olivier Verscheure, Xiaoqiao Meng, Lu Su, Jiawei Han: Consensus extraction from heterogeneous detectors to improve performance over network traffic anomaly detection. INFOCOM 2011:181-185
5415 Zhen Ling, Xinwen Fu, Weijia Jia, Wei Yu, Dong Xuan: A novel packet size based covert channel attack against anonymizer. INFOCOM 2011:186-190
5414 Anh Le, Athina Markopoulou, Michalis Faloutsos: PhishDef: URL names say it all. INFOCOM 2011:191-195
5413 Yeim-Kuan Chang, Chun-I. Lee, Cheng-Chien Su: Multi-field range encoding for packet classification in TCAM. INFOCOM 2011:196-200
5412 Zixia Huang, Chao Mei, Li Erran Li, Thomas Woo: CloudStream: Delivering high-quality streaming videos through a cloud-based SVC proxy. INFOCOM 2011:201-205
5411 Upendra Sharma, Prashant J. Shenoy, Sambit Sahu, Anees Shaikh: Kingfisher: Cost-aware elasticity in the cloud. INFOCOM 2011:206-210
5410 Yousuk Seung, Terry Lam, Li Erran Li, Thomas Woo: CloudFlex: Seamless scaling of enterprise applications into the cloud. INFOCOM 2011:211-215
5409 Xavier León, Leandro Navarro: Limits of energy saving for the allocation of data center resources to networked applications. INFOCOM 2011:216-220
5408 Xin Sun, Sanjay G. Rao: A cost-benefit framework for judicious enterprise network redesign. INFOCOM 2011:221-225
5407 Chuan Han, Yaling Yang: Information propagation speed study in multihop cognitive radio networks. INFOCOM 2011:226-230
5406 Ying Zhu, Minsu Huang, Siyuan Chen, Yu Wang: Cooperative energy spanners: Energy-efficient topology control in cooperative ad hoc networks. INFOCOM 2011:231-235
5405 Kaigui Bian, Jung-Min Park: Asynchronous channel hopping for establishing rendezvous in cognitive radio networks. INFOCOM 2011:236-240
5404 Chengzhi Li, Huaiyu Dai: On the throughput scaling of Cognitive Radio ad hoc networks. INFOCOM 2011:241-245
5403 Lei Sun, Wenye Wang: On distribution and limits of information dissemination latency and speed in mobile cognitive radio networks. INFOCOM 2011:246-250
5402 Alessandro Mei, Giacomo Morabito, Paolo Santi, Julinda Stefa: Social-aware stateless forwarding in pocket switched networks. INFOCOM 2011:251-255
5401 Yifan Li, Ping Wang, Dusit Niyato, Weihua Zhuang: A dynamic relay selection scheme for mobile users in wireless relay networks. INFOCOM 2011:256-260
5400 Riccardo Masiero, Giovanni Neglia: Distributed subgradient methods for Delay Tolerant Networks. INFOCOM 2011:261-265
5399 Suk-Bok Lee, Starsky H. Y. Wong, Kang-Won Lee, Songwu Lu: Content management in a mobile ad hoc network: Beyond opportunistic strategy. INFOCOM 2011:266-270
5398 Chi-Kin Chau, Richard J. Gibbens, Robert E. Hancock, Donald F. Towsley: Robust multipath routing in large wireless networks. INFOCOM 2011:271-275
5397 Tao Chen, Zheng Yang, Yunhao Liu, Deke Guo, Xueshan Luo: Localization in non-localizable sensor and ad-hoc networks: A Localizability-aided approach. INFOCOM 2011:276-280
5396 XuFei Mao, ShaoJie Tang, XiaoHua Xu, Xiang-Yang Li, Huadong Ma: iLight: Indoor device-free passive tracking using wireless sensor networks. INFOCOM 2011:281-285
5395 Wenbo Zhao, Xueyan Tang: Scheduling data collection with dynamic traffic patterns in wireless sensor networks. INFOCOM 2011:286-290
5394 Ming Liu, Haigang Gong, Yonggang Wen, Guihai Chen, Jiannong Cao: The last minute: Efficient Data Evacuation strategy for sensor networks in post-disaster applications. INFOCOM 2011:291-295
5393 Cheng Wang, ShaoJie Tang, Xiang-Yang Li, Changjun Jiang: SelectCast: Scalable data aggregation scheme in wireless sensor networks. INFOCOM 2011:296-300
5392 Jin Zhao, Xinya Zhang, Xin Wang, Yangdong Deng, Xiaoming Fu: Exploiting graphics processors for high-performance IP lookup in software routers. INFOCOM 2011:301-305
5391 Kun Huang, Gaogang Xie, Yanbiao Li, Alex X. Liu: Offset addressing approach to memory-efficient IP address lookup. INFOCOM 2011:306-310
5390 Zhuo Huang, Jih-Kwon Peir, Shigang Chen: Approximately-perfect hashing: Improving network throughput through efficient off-chip routing table lookup. INFOCOM 2011:311-315
5389 Guner D. Celik, Long Bao Le, Eytan Modiano: Scheduling in parallel queues with randomly varying connectivity and switchover delay. INFOCOM 2011:316-320
5388 Qing Li, Dan Wang, Mingwei Xu, Jiahai Yang: On the scalability of router forwarding tables: Nexthop-Selectable FIB aggregation. INFOCOM 2011:321-325
5387 Sushmita Ruj, Amiya Nayak, Ivan Stojmenovic: Fully secure pairwise and triple key distribution in wireless sensor networks using combinatorial designs. INFOCOM 2011:326-330
5386 Daojing He, Jiajun Bu, Sencun Zhu, Mingjian Yin, Yi Gao, Haodong Wang, Sammy Chan, Chun Chen: Distributed privacy-preserving access control in a single-owner multi-user sensor network. INFOCOM 2011:331-335
5385 Chuang Wang, Guiling Wang, Wensheng Zhang, Taiming Feng: Reconciling privacy preservation and intrusion detection in sensory data aggregation. INFOCOM 2011:336-340
5384 Xiaoyan Li, Yingying Chen, Jie Yang, Xiuyuan Zheng: Designing localization algorithms robust to signal strength attacks. INFOCOM 2011:341-345
5383 Xiali Hei, Xiaojiang Du: Biometric-based two-level secure access control for Implantable Medical Devices during emergencies. INFOCOM 2011:346-350
5382 Lei Kang, Kaishun Wu, Jin Zhang, Haoyu Tan: Decoding the collisions in RFID systems. INFOCOM 2011:351-355
5381 Wen Luo, Shigang Chen, Tao Li, Shiping Chen: Efficient missing tag detection in RFID systems. INFOCOM 2011:356-360
5380 Yong Cui, Wei Li, Xiuzhen Cheng: Partially overlapping channel assignment based on node orthogonality for 80211 wireless networks. INFOCOM 2011:361-365
5379 Sriram Lakshmanan, Shruti Sanadhya, Raghupathy Sivakumar: On link rate adaptation in 80211n WLANs. INFOCOM 2011:366-370
5378 Libin Jiang, Mathieu Leconte, Jian Ni, R. Srikant, Jean C. Walrand: Fast mixing of parallel Glauber dynamics and low-delay CSMA scheduling. INFOCOM 2011:371-375
5377 Wei Dong, Yunhao Liu, Chun Chen, Jiajun Bu, Chao Huang: ℛ2: Incremental ℛeprogramming using ℛelocatable code in networked embedded systems. INFOCOM 2011:376-380
5376 Jun Sun, Yonggang Wen, Lizhong Zheng: On file-based content distribution over wireless networks via multiple paths: Coding and delay trade-off. INFOCOM 2011:381-385
5375 Wai-Leong Yeow, Cédric Westphal, Ulas C. Kozat: Highly available virtual machines with network coding. INFOCOM 2011:386-390
5374 Dan Zhang, Narayan B. Mandayam: Resource allocation for multicast in an OFDMA network with Random Network Coding. INFOCOM 2011:391-395
5373 Shanshan Wang, Yalin Evren Sagduyu, Junshan Zhang, Jason Hongjun Li: Spectrum shaping via network coding in cognitive radio networks. INFOCOM 2011:396-400
5372 Matthieu Latapy, Clémence Magnien, Raphaël Fournier: Quantifying paedophile queries in a large P2P system. INFOCOM 2011:401-405
5371 Rafit Izhak-Ratzin, Hyunggon Park, Mihaela van der Schaar: Reinforcement learning in BitTorrent systems. INFOCOM 2011:406-410
5370 Brett Stone-Gross, Marco Cova, Christopher Kruegel, Giovanni Vigna: Peering through the iframe. INFOCOM 2011:411-415
5369 Jin Zhang, Wei Lou: The digital rights management game in peer-to-peer streaming systems. INFOCOM 2011:416-420
5368 Di Niu, Zimu Liu, Baochun Li, Shuqiao Zhao: Demand forecast and performance prediction in peer-assisted on-demand streaming systems. INFOCOM 2011:421-425
5367 Francesco Malandrino, Claudio Casetti, Carla-Fabiana Chiasserini, Marco Fiore: Content downloading in vehicular networks: What really matters. INFOCOM 2011:426-430
5366 Nianbo Liu, Ming Liu, Wei Lou, Guihai Chen, Jiannong Cao: PVA in VANETs: Stopped cars are not silent. INFOCOM 2011:431-435
5365 Emmanuel Baccelli, Philippe Jacquet, Bernard Mans, Georgios Rodolakis: Information propagation speed in bidirectional vehicular delay tolerant networks. INFOCOM 2011:436-440
5364 Fulong Xu, Shuo Guo, Jaehoon Jeong, Yu Gu, Qing Cao, Ming Liu, Tian He: Utilizing shared vehicle trajectories for data forwarding in vehicular networks. INFOCOM 2011:441-445
5363 Utku Günay Acer, Paolo Giaccone, David Hay, Giovanni Neglia, Saed Tarapiah: Timely data delivery in a realistic bus network. INFOCOM 2011:446-450
5362 Sourjya Bhaumik, David Chuck, Girija J. Narlikar, Gordon T. Wilfong: Energy-efficient design and optimization of wireline access networks. INFOCOM 2011:451-455
5361 Omur Ozel, Kaya Tutuncuoglu, Jing Yang, Sennur Ulukus, Aylin Yener: Resource management for fading wireless channels with energy harvesting nodes. INFOCOM 2011:456-460
5360 Miao He, Sugumar Murugesan, Junshan Zhang: Multiple timescale dispatch and scheduling for stochastic reliability in smart grids with wind generation integration. INFOCOM 2011:461-465
5359 Mario Marchese, Marco Cello, Giorgio Gnecco, Marcello Sanguineti: Structural properties of optimal coordinate-convex policies for CAC with nonlinearly-constrained feasibility regions. INFOCOM 2011:466-470
5358 Somayeh Sojoudi, Steven H. Low, John C. Doyle: Effect of buffers on stability of Internet congestion controllers. INFOCOM 2011:471-475
5357 Hao Jin, Deng Pan, Jason Liu, Niki Pissinou: OpenFlow based flow level bandwidth provisioning for CICQ switches. INFOCOM 2011:476-480
5356 Xiao Lei, Laura Cottatellucci, Konstantin Avrachenkov: Equilibriums in slow fading interfering channels with partial knowledge of the channels. INFOCOM 2011:481-485
5355 Boulat A. Bash, Dennis Goeckel, Donald F. Towsley: Clustering in cooperative networks. INFOCOM 2011:486-490
5354 Krishna P. Jagannathan, Shie Mannor, Ishai Menache, Eytan Modiano: A state action frequency approach to throughput maximization over uncertain wireless channels. INFOCOM 2011:491-495
5353 Saeed Moghaddam, Ahmed Helmy: Spatio-temporal modeling of wireless users internet access patterns using self-organizing maps. INFOCOM 2011:496-500
5352 Thanh Dang, Wu-chi Feng, Nirupama Bulusu: Zoom: A multi-resolution tasking framework for crowdsourced geo-spatial sensing. INFOCOM 2011:501-505
5351 Massimiliano Pierobon, Ian F. Akyildiz: Information capacity of diffusion-based molecular communication in nanonetworks. INFOCOM 2011:506-510
5350 Peng-Jun Wan, Minming Li, Lixin Wang, Zhu Wang, Ophir Frieder: Local pooling factor of multihop wireless networks. INFOCOM 2011:511-515
5349 Greg Kuperman, Eytan Modiano, Aradhana Narula-Tam: Analysis and algorithms for partial protection in mesh networks. INFOCOM 2011:516-520
5348 Abhijeet Bhorkar, Tara Javidi, Alex C. Snoeren: Achieving congestion diversity in wireless ad-hoc networks. INFOCOM 2011:521-525
5347 Honghai Zhang, Yuanxi Jiang, Karthikeyan Sundaresan, Sampath Rangarajan, Baohua Zhao: Wireless data multicasting with switched beamforming antennas. INFOCOM 2011:526-530
5346 Hsiao-Chen Lu, Wanjiun Liao: On cooperative strategies in wireless relay networks. INFOCOM 2011:531-535
5345 Niels Karowski, Aline Carneiro Viana, Adam Wolisz: Optimized asynchronous multi-channel neighbor discovery. INFOCOM 2011:536-540
5344 Ruichuan Chen, Eng Keong Lua, Zhuhua Cai: Bring order to online social networks. INFOCOM 2011:541-545
5343 Ajay Sridharan, Yong Gao, Kui Wu, James Nastos: Statistical behavior of embeddedness and communities of overlapping cliques in online social networks. INFOCOM 2011:546-550
5342 Xiwang Yang, Yang Guo, Yong Liu: Bayesian-inference based recommendation in online social networks. INFOCOM 2011:551-555
5341 Bin Liu, Peter Terlecky, Amotz Bar-Noy, Ramesh Govindan, Michael J. Neely: Optimizing information credibility in social swarming applications. INFOCOM 2011:556-560
5340 Muhammad Usman Ilyas, Muhammad Zubair Shafiq, Alex X. Liu, Hayder Radha: A distributed and privacy preserving algorithm for identifying information hubs in social networks. INFOCOM 2011:561-565
5339 Felix Ming, Fai Wong, Peter Marbach: Who Are Your Friends? - A Simple Mechanism that achieves perfect network formation. INFOCOM 2011:566-570
5338 Jaeok Park, Mihaela van der Schaar: Incentive provision using intervention. INFOCOM 2011:571-575
5337 Stefano Paris, Cristina Nita-Rotaru, Fabio Martignon, Antonio Capone: EFW: A cross-layer metric for reliable routing in wireless mesh networks with selfish participants. INFOCOM 2011:576-580
5336 MohammadHossein Bateni, Mohammad Taghi Hajiaghayi, Sina Jafarpour, Dan Pei: Towards an efficient algorithmic framework for pricing cellular data service. INFOCOM 2011:581-585
5335 Hong Xu, Baochun Li: Seen as stable marriages. INFOCOM 2011:586-590
5334 Gaoning He, Samson Lasaulce, Yezekael Hayel: Stackelberg games for energy-efficient power control in wireless networks. INFOCOM 2011:591-595
5333 Yuan Wu, Hongseok Kim, Prashanth Hande, Mung Chiang, Danny H. K. Tsang: Revenue sharing among ISPs in two-sided markets. INFOCOM 2011:596-600
5332 Guohua Li, Jianzhong Li: Global weighted fairness guaranteed congestion avoidance protocol for wireless sensor networks. INFOCOM 2011:601-605
5331 Yongle Cao, Ziguo Zhong, Yu Gu, Tian He: Safeguarding schedule updates in wireless sensor networks. INFOCOM 2011:606-610
5330 Chul-Ho Lee, Do Young Eun: Smart sleep: Sleep more to reduce delay in duty-cycled wireless sensor networks. INFOCOM 2011:611-615
5329 Jun Luo, Ying He: GeoQuorum: Load balancing and energy efficient data access in wireless sensor networks. INFOCOM 2011:616-620
5328 Xiaokang Yu, Xiaomeng Ban, Wei Zeng, Rik Sarkar, Xianfeng Gu, Jie Gao: Spherical representation and polyhedron routing for load balancing in wireless sensor networks. INFOCOM 2011:621-625
5327 Ai Chen, Zhizhou Li, Ten-Hwang Lai, Cong Liu: One-way barrier coverage with wireless sensors. INFOCOM 2011:626-630
5326 Guoqiang Mao, Brian D. O. Anderson: On the asymptotic connectivity of random networks under the random connection model. INFOCOM 2011:631-639
5325 Yun Wang, Xiaoyu Chu, Xinbing Wang, Yu Cheng: Optimal multicast capacity and delay tradeoffs in MANETs: A global perspective. INFOCOM 2011:640-648
5324 Luoyi Fu, Yi Qin, Xinbing Wang, Xue Liu: Converge-cast with MIMO. INFOCOM 2011:649-657
5323 Yuxin Chen, Sanjay Shakkottai, Jeffrey G. Andrews: Sharing multiple messages over mobile networks. INFOCOM 2011:658-666
5322 Haiying Shen, Lianyu Zhao, Harrison Chandler, Jared Stokes, Jin Li: Toward P2P-based multimedia sharing in user generated contents. INFOCOM 2011:667-675
5321 Ke Xu, Meng Shen, Mingjiang Ye: A model approach to estimate Peer-to-Peer traffic matrices. INFOCOM 2011:676-684
5320 Milan Vojnovic, Alexandre Proutiere: Hop limited flooding over dynamic networks. INFOCOM 2011:685-693
5319 Bo Tan, Laurent Massoulié: Optimal content placement for peer-to-peer video-on-demand systems. INFOCOM 2011:694-702
5318 Qiuyu Peng, Xinbing Wang, Huan Tang: Heterogeneity increases multicast capacity in clustered network. INFOCOM 2011:703-711
5317 Cheng Wang, Changjun Jiang, Xiang-Yang Li, ShaoJie Tang, Panlong Yang: General capacity scaling of wireless networks. INFOCOM 2011:712-720
5316 Abhigyan Sharma, Aditya Kumar Mishra, Vikas Kumar, Arun Venkataramani: Beyond MLU: An application-centric comparison of traffic engineering schemes. INFOCOM 2011:721-729
5315 Cheng-Shang Chang, Chin-Yi Hsu, Jay Cheng, Duan-Shin Lee: A general probabilistic framework for detecting community structure in networks. INFOCOM 2011:730-738
5314 Guanfeng Liang, Nitin H. Vaidya: Capacity of byzantine agreement with finite link capacity. INFOCOM 2011:739-747
5313 Yuan Feng, Zimu Liu, Baochun Li: GestureFlow: Streaming gestures to an audience. INFOCOM 2011:748-756
5312 Jin Wang, Jianping Wang, Kejie Lu, Yi Qian, Bin Xiao, Naijie Gu: Optimal Design of Linear Network Coding for information theoretically secure unicast. INFOCOM 2011:757-765
5311 Tracey Ho, Sidharth Jaggi, Svitlana Vyetrenko, Lingxiao Xia: Universal and robust distributed network codes. INFOCOM 2011:766-774
5310 Jiliang Wang, Yunhao Liu, Mo Li, Wei Dong, Yuan He: QoF: Towards comprehensive path quality measurement in wireless sensor networks. INFOCOM 2011:775-783
5309 Hongbo Jiang, Shengkai Zhang, Guang Tan, Chonggang Wang: CABET: Connectivity-based boundary extraction of large-scale 3D sensor networks. INFOCOM 2011:784-792
5308 Hongbo Jiang, Jie Cheng, Dan Wang, Chonggang Wang, Guang Tan: Continuous multi-dimensional top-k query processing in sensor networks. INFOCOM 2011:793-801
5307 Jun Zhu, Zhefu Jiang, Zhen Xiao: Twinkle: A fast resource provisioning mechanism for internet services. INFOCOM 2011:802-810
5306 Clint Sparkman, Hsin-Tsang Lee, Dmitri Loguinov: Agnostic topology-based spam avoidance in large-scale web crawls. INFOCOM 2011:811-819
5305 Cong Wang, Kui Ren, Jia Wang: Secure and practical outsourcing of linear programming in cloud computing. INFOCOM 2011:820-828
5304 Ning Cao, Cong Wang, Ming Li, Kui Ren, Wenjing Lou: Privacy-preserving multi-keyword ranked search over encrypted cloud data. INFOCOM 2011:829-837
5303 Peng-Jun Wan, Ophir Frieder, Xiaohua Jia, F. Frances Yao, XiaoHua Xu, ShaoJie Tang: Wireless link scheduling under physical interference model. INFOCOM 2011:838-845
5302 Peng-Jun Wan, Yu Cheng, Zhu Wang, F. Frances Yao: Multiflows in multi-channel multi-radio multihop wireless networks. INFOCOM 2011:846-854
5301 Fung Po Tso, Lin Cui, Lizhuo Zhang, Weijia Jia, Di Yao, Jin Teng, Dong Xuan: DragonNet: A robust mobile Internet service system for long distance trains. INFOCOM 2011:855-863
5300 Marjan A. Baghaie, Bhaskar Krishnamachari: Delay constrained minimum energy broadcast in cooperative wireless networks. INFOCOM 2011:864-872
5299 Yunhao Liu, Yuan He, Mo Li, Jiliang Wang, Kebin Liu, Lufeng Mo, Wei Dong, Zheng Yang, Min Xi, Jizhong Zhao, Xiang-Yang Li: Does wireless sensor network scale? A measurement study on GreenOrbs. INFOCOM 2011:873-881
5298 Utpal Paul, Anand Prabhu Subramanian, Milind M. Buddhikot, Samir R. Das: Understanding traffic dynamics in cellular data networks. INFOCOM 2011:882-890
5297 Biao Han, Jie Li, Jinshu Su: Self-supported congestion-aware networking for emergency services in WANETs. INFOCOM 2011:891-899
5296 Roy Friedman, Alex Kogan, Yevgeny Krivolapov: On power and throughput tradeoffs of WiFi and Bluetooth in smartphones. INFOCOM 2011:900-908
5295 Ze Li, Haiying Shen: A hierarchical account-aided Reputation Management system for large-scale MANETs. INFOCOM 2011:909-917
5294 Chi Zhang, Xiaoyan Zhu, Yang Song, Yuguang Fang: C4: A new paradigm for providing incentives in multi-hop wireless networks. INFOCOM 2011:918-926
5293 Joshua Reich, Vishal Misra, Dan Rubenstein, Gil Zussman: Connectivity maintenance in mobile wireless networks via constrained mobility. INFOCOM 2011:927-935
5292 Fangming Liu, Shijun Shen, Bo Li, Baochun Li, Hao Yin, Sanli Li: Novasky: Cinematic-quality VoD in a P2P storage cloud. INFOCOM 2011:936-944
5291 Yipeng Zhou, Tom Z. J. Fu, Dah Ming Chiu: Statistical modeling and analysis of P2P replication to support VoD service. INFOCOM 2011:945-953
5290 Raphael Eidenbenz, Thomas Locher, Roger Wattenhofer: Hidden communication in P2P networks Steganographic handshake and broadcast. INFOCOM 2011:954-962
5289 Rubén Cuevas Rumín, Nikolaos Laoutaris, Xiaoyuan Yang, Georgos Siganos, Pablo Rodriguez: Deep diving into BitTorrent locality. INFOCOM 2011:963-971
5288 Yuanzhong Xu, Xinbing Wang: Fundamental lower bound for node buffer size in intermittently connected wireless networks. INFOCOM 2011:972-980
5287 Peng-Jun Wan, Lixin Wang: Asymptotic distribution of critical transmission radius for greedy forward routing. INFOCOM 2011:981-989
5286 Hongkun Li, Yu Cheng, Peng-Jun Wan, Jiannong Cao: Local sufficient rate constraints for guaranteed capacity region in multi-radio multi-channel wireless networks. INFOCOM 2011:990-998
5285 Aditya Gopalan, Siddhartha Banerjee, Abhik K. Das, Sanjay Shakkottai: Random mobility and the spread of infection. INFOCOM 2011:999-1007
5284 Jin Wang, Jianping Wang, Chuan Wu, Kejie Lu, Naijie Gu: Anonymous communication with network coding against traffic analysis attack. INFOCOM 2011:1008-1016
5283 Arash Saber Tehrani, Alexandros G. Dimakis, Michael J. Neely: SigSag: Iterative detection through soft message-passing. INFOCOM 2011:1017-1025
5282 Peng Zhang, Yixin Jiang, Chuang Lin, Hongyi Yao, Albert Wasef, Xuemin Shen: Padding for orthogonality: Efficient subspace authentication for network coding. INFOCOM 2011:1026-1034
5281 Hulya Seferoglu, Athina Markopoulou, K. K. Ramakrishnan: I2NC: Intra- and inter-session network coding for unicast flows in wireless networks. INFOCOM 2011:1035-1043
5280 Dezun Dong, Yunhao Liu, Xiangke Liao, Xiang-Yang Li: Fine-grained location-free planarization in wireless sensor networks. INFOCOM 2011:1044-1052
5279 Hongyu Zhou, Hongyi Wu, Su Xia, Miao Jin, Ning Ding: A distributed triangulation algorithm for wireless sensor networks on 2D and 3D surface. INFOCOM 2011:1053-1061
5278 Shouling Ji, Yingshu Li, Xiaohua Jia: Capacity of dual-radio multi-channel wireless sensor networks for continuous data collection. INFOCOM 2011:1062-1070
5277 Matthew P. Johnson, Amotz Bar-Noy: Pan and scan: Configuring cameras for coverage. INFOCOM 2011:1071-1079
5276 Mathias Björkqvist, Lydia Y. Chen, Marko Vukolic, Xi Zhang: Minimizing retrieval latency for content cloud. INFOCOM 2011:1080-1088
5275 Danhua Guo, Laxmi N. Bhuyan: A QoS aware multicore hash scheduler for network applications. INFOCOM 2011:1089-1097
5274 Minghong Lin, Adam Wierman, Lachlan L. H. Andrew, Eno Thereska: Dynamic right-sizing for power-proportional data centers. INFOCOM 2011:1098-1106
5273 Honghai Zhang, Yuanxi Jiang, Sampath Rangarajan, Baohua Zhao: Multicast video delivery with switched beamforming antennas in indoor wireless networks. INFOCOM 2011:1107-1115
5272 Guanhong Pei, V. S. Anil Kumar, Srinivasan Parthasarathy, Aravind Srinivasan: Approximation algorithms for throughput maximization in wireless networks with delay constraints. INFOCOM 2011:1116-1124
5271 Shyamnath Gollakota, Dina Katabi: Physical layer wireless security made fast and channel independent. INFOCOM 2011:1125-1133
5270 Sungro Yoon, Injong Rhee, Bang Chul Jung, Babak Daneshrad, Jae H. Kim: Contrabass: Concurrent transmissions without coordination for ad hoc networks. INFOCOM 2011:1134-1142
5269 Xinyu Xing, Jianxun Dang, Shivakant Mishra, Xue Liu: A highly scalable bandwidth estimation of commercial hotspot access points. INFOCOM 2011:1143-1151
5268 Pallavi Arora, Csaba Szepesvári, Rong Zheng: Sequential learning for optimal monitoring of multi-channel wireless networks. INFOCOM 2011:1152-1160
5267 Mariyam Mirza, Paul Barford, Xiaojin Zhu, Suman Banerjee, Michael Blodgett: Fingerprinting 80211 rate adaption algorithms. INFOCOM 2011:1161-1169
5266 Ryad Ben-El-Kezadri, Giovanni Pau, Thomas Claveirole: TurboSync: Clock synchronization for shared media networks via principal component analysis with missing data. INFOCOM 2011:1170-1178
5265 Gjergji Zyba, Geoffrey M. Voelker, Stratis Ioannidis, Christophe Diot: Dissemination in opportunistic mobile ad-hoc networks: The power of the crowd. INFOCOM 2011:1179-1187
5264 Bruno Nardelli, Jinsung Lee, Kangwook Lee, Yung Yi, Song Chong, Edward W. Knightly, Mung Chiang: Experimental evaluation of optimal CSMA. INFOCOM 2011:1188-1196
5263 Di Niu, Baochun Li: Asymptotic optimality of randomized peer-to-peer broadcast with network coding. INFOCOM 2011:1197-1205
5262 Weijie Wu, John C. S. Lui: Exploring the optimal replication strategy in P2P-VoD systems: Characterization and evaluation. INFOCOM 2011:1206-1214
5261 Frédérique E. Oggier, Anwitaman Datta: Self-repairing homomorphic codes for distributed storage systems. INFOCOM 2011:1215-1223
5260 Jie Dai, Bo Li, Fangming Liu, Baochun Li, Hai Jin: On the efficiency of collaborative caching in ISP-aware P2P networks. INFOCOM 2011:1224-1232
5259 Ting He, Animashree Anandkumar, Dakshi Agrawal: Index-based sampling policies for tracking dynamic networks under sampling constraints. INFOCOM 2011:1233-1241
5258 Yashar Ghiassi-Farrokhfal, Jörg Liebeherr, Almut Burchard: The impact of link scheduling on long paths: Statistical analysis and optimal bounds. INFOCOM 2011:1242-1250
5257 Shreeshankar Bodas, Sanjay Shakkottai, Lei Ying, R. Srikant: Scheduling for small delay in multi-rate multi-channel wireless networks. INFOCOM 2011:1251-1259
5256 Jian Tan, Yang Yang, Ness B. Shroff, Hesham El Gamal: Delay asymptotics with retransmissions and fixed rate codes over erasure channels. INFOCOM 2011:1260-1268
5255 Dejun Yang, Xi Fang, Guoliang Xue: ESPN: Efficient server placement in probabilistic networks with budget constraint. INFOCOM 2011:1269-1277
5254 Moti Geva, Amir Herzberg: QoSoDoS: If you can't beat them, join them! INFOCOM 2011:1278-1286
5253 Shaohe Lv, Weihua Zhuang, Xiaodong Wang, Xingming Zhou: Scheduling in wireless ad hoc networks with successive interference cancellation. INFOCOM 2011:1287-1295
5252 Yunbo Wang, Mehmet C. Vuran, Steve Goddard: Analysis of event detection delay in wireless sensor networks. INFOCOM 2011:1296-1304
5251 Lei Tang, Yanjun Sun, Omer Gurewitz, David B. Johnson: PW-MAC: An energy-efficient predictive-wakeup MAC protocol for wireless sensor networks. INFOCOM 2011:1305-1313
5250 Yang Peng, Zi Li, Daji Qiao, Wensheng Zhang: Delay-bounded MAC with minimal idle listening for sensor networks. INFOCOM 2011:1314-1322
5249 Shuguang Xiong, Jianzhong Li, Mo Li, Jiliang Wang, Yunhao Liu: Multiple task scheduling for low-duty-cycled wireless sensor networks. INFOCOM 2011:1323-1331
5248 Brian Guenter, Navendu Jain, Charles Williams: Managing cost, performance, and reliability tradeoffs for energy-aware server provisioning. INFOCOM 2011:1332-1340
5247 Canming Jiang, Yi Shi, Y. Thomas Hou, Sastry Kompella: On optimal throughput-energy curve for multi-hop wireless networks. INFOCOM 2011:1341-1349
5246 Yi Shi, Liguang Xie, Y. Thomas Hou, Hanif D. Sherali: On renewable sensor networks with wireless energy transfer. INFOCOM 2011:1350-1358
5245 Matthew Andrews, Spyridon Antonakopoulos, Lisa Zhang: Energy-aware scheduling algorithms for network stability. INFOCOM 2011:1359-1367
5244 Dan Li, Jiangwei Yu, Junbiao Yu, Jianping Wu: Exploring efficient and scalable multicast routing in future data center networks. INFOCOM 2011:1368-1376
5243 Jiao Zhang, Fengyuan Ren, Chuang Lin: Modeling and understanding TCP incast in data center networks. INFOCOM 2011:1377-1385
5242 Chao-Chih Chen, Lihua Yuan, Albert G. Greenberg, Chen-Nee Chuah, Prasant Mohapatra: Routing-as-a-Service (RaaS): A framework For tenant-directed route control in data center. INFOCOM 2011:1386-1394
5241 Yong Cui, Hongyi Wang, Xiuzhen Cheng: Channel allocation in wireless data center networks. INFOCOM 2011:1395-1403
5240 Nam Tuan Nguyen, Guanbo Zheng, Zhu Han, Rong Zheng: Device fingerprinting to enhance wireless security using nonparametric Bayesian method. INFOCOM 2011:1404-1412
5239 Qian Wang, Ping Xu, Kui Ren, Xiang-Yang Li: Delay-bounded adaptive UFH-based anti-jamming wireless communication. INFOCOM 2011:1413-1421
5238 Qian Wang, Hai Su, Kui Ren, Kwangjo Kim: Fast and scalable secret key generation exploiting channel phase randomness in wireless networks. INFOCOM 2011:1422-1430
5237 Udi Ben-Porat, Anat Bremler-Barr, Hanoch Levy, Bernhard Plattner: On the vulnerability of the proportional fairness scheduler to retransmission attacks. INFOCOM 2011:1431-1439
5236 Eitan Altman, Philippe Nain, Adam Shwartz, Yuedong Xu: Predicting the impact of measures against P2P networks on the transient behaviors. INFOCOM 2011:1440-1448
5235 Can Zhao, Xiaojun Lin, Chuan Wu: The streaming capacity of sparsely-connected P2P systems with distributed control. INFOCOM 2011:1449-1457
5234 Michael J. Neely, Leana Golubchik: Utility optimization for dynamic peer-to-peer networks with tit-for-tat constraints. INFOCOM 2011:1458-1466
5233 François Baccelli, Jean Bolot: Modeling the economic value of the location data of mobile users. INFOCOM 2011:1467-1475
5232 Devu Manikantan Shila, Yu Cheng, Tricha Anjali: Throughput and delay analysis of hybrid wireless networks with multi-hop uplinks. INFOCOM 2011:1476-1484
5231 Pan Li, Miao Pan, Yuguang Fang: The capacity of three-dimensional wireless ad hoc networks. INFOCOM 2011:1485-1493
5230 George Iosifidis, Iordanis Koutsopoulos, Georgios Smaragdakis: The impact of storage capacity on end-to-end delay in time varying networks. INFOCOM 2011:1494-1502
5229 Yang Wang, Xiaojun Cao, Yi Pan: A study of the routing and spectrum allocation in spectrum-sliced Elastic Optical Path networks. INFOCOM 2011:1503-1511
5228 Matthew Johnston, Hyang-Won Lee, Eytan Modiano: A robust optimization approach to backup network design with random failures. INFOCOM 2011:1512-1520
5227 Pankaj K. Agarwal, Alon Efrat, Shashidhara K. Ganjugunte, David Hay, Swaminathan Sankararaman, Gil Zussman: The resilience of WDM networks to probabilistic geographical failures. INFOCOM 2011:1521-1529
5226 Lin Liu, Zhenghao Zhang, Yuanyuan Yang: Packet scheduling in a low-latency optical switch with wavelength division multiplexing and electronic buffer. INFOCOM 2011:1530-1538
5225 Kebin Liu, Qiang Ma, Xibin Zhao, Yunhao Liu: Self-diagnosis for large scale wireless sensor networks. INFOCOM 2011:1539-1547
5224 Xin Miao, Kebin Liu, Yuan He, Yunhao Liu, Dimitris Papadias: Agnostic diagnosis: Discovering silent failures in wireless sensor networks. INFOCOM 2011:1548-1556
5223 Ling Ding, Weili Wu, James Willson, Hongjie Du, Wonjun Lee: Construction of directional virtual backbones with minimum routing cost in wireless networks. INFOCOM 2011:1557-1565
5222 Dijun Luo, Xiaojun Zhu, Xiaobing Wu, Guihai Chen: Maximizing lifetime for the shortest path aggregation tree in wireless sensor networks. INFOCOM 2011:1566-1574
5221 Paul Balister, Béla Bollobás, Animashree Anandkumar, Alan S. Willsky: Energy-latency tradeoff for in-network function computation in random networks. INFOCOM 2011:1575-1583
5220 Yi Xu, Wenye Wang: Information delivery in large wireless networks with minimum energy expense. INFOCOM 2011:1584-1592
5219 Tao Jin, Guevara Noubir, Bo Sheng: WiZi-Cloud: Application-transparent dual ZigBee-WiFi radios for low power internet access. INFOCOM 2011:1593-1601
5218 Maria Gorlatova, Aya Wallwater, Gil Zussman: Networking low-power energy harvesting devices: Measurements and algorithms. INFOCOM 2011:1602-1610
5217 Longjiang Guo, Raheem A. Beyah, Yingshu Li: SMITE: A stochastic compressive data collection protocol for Mobile Wireless Sensor Networks. INFOCOM 2011:1611-1619
5216 Yingying Chen, Sourabh Jain, Vijay Kumar Adhikari, Zhi-Li Zhang, Kuai Xu: A first look at inter-data center traffic characteristics via Yahoo! datasets. INFOCOM 2011:1620-1628
5215 Andrew R. Curtis, Wonho Kim, Praveen Yalagandula: Mahout: Low-overhead datacenter traffic management using end-host-based elephant detection. INFOCOM 2011:1629-1637
5214 Jin Tang, Yu Cheng, Weihua Zhuang: An analytical approach to real-time misbehavior detection in IEEE 80211 based wireless networks. INFOCOM 2011:1638-1646
5213 Wei Dong, Vacha Dave, Lili Qiu, Yin Zhang: Secure friend discovery in mobile social networks. INFOCOM 2011:1647-1655
5212 Kanthakumar Pongaliur, Li Xiao: Maintaining source privacy under eavesdropping and node compromise attacks. INFOCOM 2011:1656-1664
5211 Hao Han, Fengyuan Xu, Chiu Chiang Tan, Yifan Zhang, Qun Li: Defending against vehicular rogue APs. INFOCOM 2011:1665-1673
5210 Tae Hyun Kim, Jian Ni, R. Srikant, Nitin H. Vaidya: On the achievable throughput of CSMA under imperfect carrier sensing. INFOCOM 2011:1674-1682
5209 M. H. R. Khouzani, Saswati Sarkar, Eitan Altman: Optimal control of epidemic evolution. INFOCOM 2011:1683-1691
5208 Zhiyang Guo, Zhemin Zhang, Yuanyuan Yang: Performance modeling of hybrid optical packet switches with shared buffer. INFOCOM 2011:1692-1700
5207 Cheng Wang, Changjun Jiang, Yunhao Liu, Xiang-Yang Li, ShaoJie Tang, Huadong Ma: Aggregation capacity of wireless sensor networks: Extended network case. INFOCOM 2011:1701-1709
5206 Aniket Pingley, Nan Zhang, Xinwen Fu, Hyeong-Ah Choi, Suresh Subramaniam, Wei Zhao: Protection of query privacy for continuous location based services. INFOCOM 2011:1710-1718
5205 Matthew Keally, Gang Zhou, Guoliang Xing, Jianxin Wu: Exploiting sensing diversity for confident sensing in wireless sensor networks. INFOCOM 2011:1719-1727
5204 Michael J. Neely: Opportunistic scheduling with worst case delay guarantees in single and multi-hop networks. INFOCOM 2011:1728-1736
5203 Hongwei Du, Qiang Ye, Weili Wu, Wonjun Lee, Deying Li, Ding-Zhu Du, Stephen Howard: Constant approximation for virtual backbone construction with Guaranteed Routing Cost in wireless sensor networks. INFOCOM 2011:1737-1744
5202 Yan Qiao, Tao Li, Shigang Chen: One memory access bloom filters and their generalization. INFOCOM 2011:1745-1753
5201 Rachit Agarwal, Philip Brighten Godfrey, Sariel Har-Peled: Approximate distance queries and compact routing in sparse graphs. INFOCOM 2011:1754-1762
5200 Lei Yu, Jianzhong Li, Siyao Cheng, Shuguang Xiong: Secure continuous aggregation via sampling-based verification in wireless sensor networks. INFOCOM 2011:1763-1771
5199 Ryo Sugihara, Rajesh K. Gupta: Sensor localization with deterministic accuracy guarantee. INFOCOM 2011:1772-1780
5198 Yi Wang, Guohong Cao: On full-view coverage in camera sensor networks. INFOCOM 2011:1781-1789
5197 Yi Wang, Guohong Cao: Minimizing service delay in directional sensor networks. INFOCOM 2011:1790-1798
5196 Tao Li, Shigang Chen, Yibei Ling: Fast and compact per-flow traffic measurement through randomized counter sharing. INFOCOM 2011:1799-1807
5195 Xiaoming Wang, Xiaoyong Li, Dmitri Loguinov: Modeling residual-geometric flow sampling. INFOCOM 2011:1808-1816
5194 Ralf Lübben, Markus Fidler, Jörg Liebeherr: A foundation for stochastic bandwidth estimation of networks with random service. INFOCOM 2011:1817-1825
5193 Imed Lassoued, Amir Krifa, Chadi Barakat, Konstantin Avrachenkov: Network-wide monitoring through self-configuring adaptive system. INFOCOM 2011:1826-1834
5192 Ze Li, Haiying Shen: SOAP: A Social network Aided Personalized and effective spam filter to clean your e-mail box. INFOCOM 2011:1835-1843
5191 Matthew Knysz, Xin Hu, Kang G. Shin: Good guys vs Bot Guise: Mimicry attacks against fast-flux detection systems. INFOCOM 2011:1844-1852
5190 Yi-Hua E. Yang, Viktor K. Prasanna: Space-time tradeoff in regular expression matching with semi-deterministic finite automata. INFOCOM 2011:1853-1861
5189 Fengyuan Xu, Zhengrui Qin, Chiu Chiang Tan, Baosheng Wang, Qun Li: IMDGuard: Securing implantable medical devices with the external wearable guardian. INFOCOM 2011:1862-1870
5188 Zhuo Lu, Wenye Wang, Cliff Wang: From jammer to gambler: Modeling and detection of jamming attacks against time-critical traffic. INFOCOM 2011:1871-1879
5187 Kai Zeng, Kannan Govindan, Daniel Wu, Prasant Mohapatra: Identity-based attack detection in mobile wireless networks. INFOCOM 2011:1880-1888
5186 Zhichao Zhu, Guohong Cao: APPLAUS: A Privacy-Preserving Location Proof Updating System for location-based services. INFOCOM 2011:1889-1897
5185 Sushant Sharma, Yi Shi, Y. Thomas Hou, Hanif D. Sherali, Sastry Kompella: Optimizing network-coded cooperative communications via joint session grouping and relay node selection. INFOCOM 2011:1898-1906
5184 Xi Fang, Dejun Yang, Guoliang Xue: Consort: Node-Constrained Opportunistic Routing in wireless mesh networks. INFOCOM 2011:1907-1915
5183 Yi Shi, Jia Liu, Canming Jiang, Cunhao Gao, Y. Thomas Hou: An optimal link layer model for multi-hop MIMO networks. INFOCOM 2011:1916-1924
5182 Jianping Wang, Chunming Qiao, Hongfang Yu: On progressive network recovery after a major disruption. INFOCOM 2011:1925-1933
5181 Xu Li, Nathalie Mitton, Isabelle Simplot-Ryl, David Simplot-Ryl: A novel family of geometric planar graphs for wireless ad hoc networks. INFOCOM 2011:1934-1942
5180 Abedelaziz Mohaisen, Nicholas Hopper, Yongdae Kim: Keep your friends close: Incorporating trust into social network-based Sybil defenses. INFOCOM 2011:1943-1951
5179 Yi-Ruei Chen, J. D. Tygar, Wen-Guey Tzeng: Secure group key management using uni-directional proxy re-encryption schemes. INFOCOM 2011:1952-1960
5178 Sastry Kompella, Gam D. Nguyen, Jeffrey E. Wieselthier, Anthony Ephremides: Stable throughput tradeoffs in cognitive shared channels with cooperative relaying. INFOCOM 2011:1961-1969
5177 Jens B. Schmitt, Nicos Gollan, Steffen Bondorf, Ivan Martinovic: Pay bursts only once holds for (some) non-FIFO systems. INFOCOM 2011:1970-1978
5176 Florin Ciucu, Jens Schmitt, Hao Wang: On expressing networks with flow transformations in convolution-form. INFOCOM 2011:1979-1987
5175 Florin Ciucu, Oliver Hohlfeld, Lydia Y. Chen: On the convergence to fairness in overloaded FIFO systems. INFOCOM 2011:1988-1996
5174 Zengfeng Huang, Ke Yi, Yunhao Liu, Guihai Chen: Optimal sampling algorithms for frequency estimation in distributed data. INFOCOM 2011:1997-2005
5173 Shibo He, Jiming Chen, Fachang Jiang, David K. Y. Yau, Guoliang Xing, Youxian Sun: Energy provisioning in wireless rechargeable sensor networks. INFOCOM 2011:2006-2014
5172 Khuong Vu, Rong Zheng: Robust coverage under uncertainty in wireless sensor networks. INFOCOM 2011:2015-2023
5171 Michael M. Groat, Wenbo He, Stephanie Forrest: KIPDA: k-indistinguishable privacy-preserving data aggregation in wireless sensor networks. INFOCOM 2011:2024-2032
5170 Robert Sauter, Olga Saukh, Oliver Frietsch, Pedro José Marrón: TinyLTS: Efficient network-wide Logging and Tracing System for TinyOS. INFOCOM 2011:2033-2041
5169 Xin Zhao, Jun Guo, Chun Tung Chou, Archan Misra, Sanjay Jha: A high-throughput routing metric for reliable multicast in multi-rate wireless mesh networks. INFOCOM 2011:2042-2050
5168 Yong Ding, Yang Yang, Li Xiao: Multi-path routing and rate allocation for multi-source video on-demand streaming in wireless mesh networks. INFOCOM 2011:2051-2059
5167 Weiyi Zhang, Shi Bai, Guoliang Xue, Jian Tang, Chonggang Wang: DARP: Distance-aware relay placement in WiMAX mesh networks. INFOCOM 2011:2060-2068
5166 Arik Motskin, Ian Downes, Branislav Kusy, Omprakash Gnawali, Leonidas J. Guibas: Network warehouses: Efficient information distribution to mobile users. INFOCOM 2011:2069-2077
5165 Kuai Xu, Feng Wang, Lin Gu: Network-aware behavior clustering of Internet end hosts. INFOCOM 2011:2078-2086
5164 Weiyu Xu, Enrique Mallada, Ao Tang: Compressive sensing over graphs. INFOCOM 2011:2087-2095
5163 Xiaofei Wu, Ke Yu, Xin Wang: On the growth of Internet application flows: A complex network perspective. INFOCOM 2011:2096-2104
5162 Paul Tune, Darryl Veitch: Sampling vs sketching: An information theoretic comparison. INFOCOM 2011:2105-2113
5161 Yaxuan Qi, Kai Wang, Jeffrey Fong, Yibo Xue, Jun Li, Weirong Jiang, Viktor K. Prasanna: FEACAN: Front-end acceleration for content-aware network processing. INFOCOM 2011:2114-2122
5160 Hrishikesh B. Acharya, Mohamed G. Gouda: Firewall verification and redundancy checking are equivalent. INFOCOM 2011:2123-2128
5159 Tingwen Liu, Yifu Yang, Yanbing Liu, Yong Sun, Li Guo: An efficient regular expressions compression algorithm from a new perspective. INFOCOM 2011:2129-2137
5158 M. H. R. Khouzani, Saswati Sarkar, Eitan Altman: A dynamic game solution to malware attack. INFOCOM 2011:2138-2146
5157 Xiaodong Lin, Rongxing Lu, Xiaohui Liang, Xuemin Shen: STAP: A social-tier-assisted packet forwarding protocol for achieving receiver-location privacy preservation in VANETs. INFOCOM 2011:2147-2155
5156 Zhuo Hao, Sheng Zhong, Erran L. Li: Towards wireless security without computational assumptions - An oblivious transfer protocol based on an unauthenticated wireless channel. INFOCOM 2011:2156-2164
5155 Yunchuan Wei, Kai Zeng, Prasant Mohapatra: Adaptive wireless channel probing for shared key generation. INFOCOM 2011:2165-2173
5154 Xu Li, Xuegang Yu, Aditya Wagh, Chunming Qiao: Human factors-aware service scheduling in Vehicular Cyber-Physical systems. INFOCOM 2011:2174-2182
5153 Yuchen Wu, Yanmin Zhu, Bo Li: Trajectory improves data delivery in vehicular networks. INFOCOM 2011:2183-2191
5152 Hongzi Zhu, Shan Chang, Minglu Li, Kshirasagar Naik, Sherman X. Shen: Exploiting temporal dependency for opportunistic forwarding in urban vehicular networks. INFOCOM 2011:2192-2200
5151 Bo Yu, Fan Bai: ETP: Encounter Transfer Protocol for opportunistic vehicle communication. INFOCOM 2011:2201-2209
5150 Wentao Huang, Xinbing Wang: Throughput and delay scaling of general cognitive networks. INFOCOM 2011:2210-2218
5149 Lara B. Deek, Xia Zhou, Kevin C. Almeroth, Haitao Zheng: To preempt or not: Tackling bid and time-based cheating in online spectrum auctions. INFOCOM 2011:2219-2227
5148 Lei Yang, Hongseok Kim, Junshan Zhang, Mung Chiang, Chee-Wei Tan: Pricing-based spectrum access control in cognitive radio networks with random access. INFOCOM 2011:2228-2236
5147 Miao Pan, Chi Zhang, Pan Li, Yuguang Fang: Joint routing and link scheduling for cognitive radio networks under uncertain spectrum supply. INFOCOM 2011:2237-2245
5146 Zhenjiang Li, Mo Li, Jiliang Wang, Zhichao Cao: Ubiquitous data collection for mobile users in wireless sensor networks. INFOCOM 2011:2246-2254
5145 Bowu Zhang, Xiuzhen Cheng, Nan Zhang, Yong Cui, Yingshu Li, Qilian Liang: Sparse target counting and localization in sensor networks based on compressive sensing. INFOCOM 2011:2255-2263
5144 Zuoming Yu, Jin Teng, Xiaole Bai, Dong Xuan, Weijia Jia: Connected coverage in wireless networks with directional antennas. INFOCOM 2011:2264-2272
5143 Shengbo Chen, Prasun Sinha, Ness B. Shroff, Changhee Joo: Finite-horizon energy allocation and routing scheme in rechargeable sensor networks. INFOCOM 2011:2273-2281
5142 Nam P. Nguyen, Thang N. Dinh, Ying Xuan, My T. Thai: Adaptive algorithms for detecting community structure in dynamic social networks. INFOCOM 2011:2282-2290
5141 ShaoJie Tang, Jing Yuan, XuFei Mao, Xiang-Yang Li, Wei Chen, Guojun Dai: Relationship classification in large scale online social networks and its impact on information propagation. INFOCOM 2011:2291-2299
5140 Michael Sirivianos, Kyungbaek Kim, Xiaowei Yang: SocialFilter: Introducing social trust to collaborative spam mitigation. INFOCOM 2011:2300-2308
5139 Youngsang Shin, Minaxi Gupta, Steven A. Myers: Prevalence and mitigation of forum spamming. INFOCOM 2011:2309-2317
5138 Krishna P. Jagannathan, Mihalis G. Markakis, Eytan Modiano, John N. Tsitsiklis: Queue length asymptotics for generalized max-weight scheduling in the presence of heavy-tailed traffic. INFOCOM 2011:2318-2326
5137 Peng-Jun Wan, Chao Ma, Zhu Wang, Boliu Xu, Minming Li, Xiaohua Jia: Weighted wireless link scheduling without information of positions and interference/communication radii. INFOCOM 2011:2327-2335
5136 V. J. Venkataramanan, Xiaojun Lin: Low-complexity scheduling algorithm for sum-queue minimization in wireless convergecast. INFOCOM 2011:2336-2344
5135 Ching-Ming Lien, Cheng-Shang Chang, Jay Cheng, Duan-Shin Lee: Maximizing throughput in wireless networks with finite internal buffers. INFOCOM 2011:2345-2353
5134 Myungjin Lee, Mohammad Y. Hajjat, Ramana Rao Kompella, Sanjay G. Rao: RelSamp: Preserving application structure in sampled flow measurements. INFOCOM 2011:2354-2362
5133 Joel Sommers, Rhys Alistair Bowden, Brian Eriksson, Paul Barford, Matthew Roughan, Nick G. Duffield: Efficient network-wide flow record generation. INFOCOM 2011:2363-2371
5132 Angela Wang, Cheng Huang, Jin Li, Keith W. Ross: Estimating the performance of hypothetical cloud service deployments: A measurement-based approach. INFOCOM 2011:2372-2380
5131 Sourabh Jain, Yingying Chen, Zhi-Li Zhang: VIRO: A scalable, robust and namespace independent virtual Id routing for future networks. INFOCOM 2011:2381-2389
5130 Talmai Oliveira, Srisudha Mahadevan, Dharma P. Agrawal: Handling network uncertainty in heterogeneous wireless networks. INFOCOM 2011:2390-2398
5129 Mikko Särelä, Christian Esteve Rothenberg, Tuomas Aura, András Zahemszky, Pekka Nikander, Jörg Ott: Forwarding anomalies in Bloom filter-based multicast. INFOCOM 2011:2399-2407
5128 Ting Wang, Yaling Yang: Location privacy protection from RSS localization system using antenna pattern synthesis. INFOCOM 2011:2408-2416
5127 Yu Hua, Xue Liu: Scheduling design and analysis for end-to-end heterogeneous flows in an avionics network. INFOCOM 2011:2417-2425
5126 Junwei Huang, Xian Pan, Xinwen Fu, Jie Wang: Long PN code based DSSS watermarking. INFOCOM 2011:2426-2434
5125 Ming Li, Ning Cao, Shucheng Yu, Wenjing Lou: FindU: Privacy-preserving personal profile matching in mobile social networks. INFOCOM 2011:2435-2443
5124 Zhiyong Lin, Hai Liu, Xiaowen Chu, Yiu-Wing Leung: Jump-stay based channel-hopping algorithm with guaranteed rendezvous for cognitive radio networks. INFOCOM 2011:2444-2452
5123 Hyoil Kim, Jaehyuk Choi, Kang G. Shin: Wi-Fi 20: Price and quality competitions of duopoly cognitive radio wireless service providers with time-varying spectrum availability. INFOCOM 2011:2453-2461
5122 Cem Tekin, Mingyan Liu: Online learning in opportunistic spectrum access: A restless bandit approach. INFOCOM 2011:2462-2470
5121 Yifan Zhang, Qun Li, Gexin Yu, Baosheng Wang: ETCH: Efficient Channel Hopping for communication rendezvous in dynamic spectrum access networks. INFOCOM 2011:2471-2479
5120 Ziguo Zhong, Pengpeng Chen, Tian He: On-demand time synchronization with predictable accuracy. INFOCOM 2011:2480-2488
5119 Pu Wang, Rui Dai, Ian F. Akyildiz: Visual correlation-based image gathering for wireless multimedia sensor networks. INFOCOM 2011:2489-2497
5118 Xiaole Bai, Ziqiu Yun, Dong Xuan, Biao Chen, Wei Zhao: Optimal multiple-coverage of sensor networks. INFOCOM 2011:2498-2506
5117 Qing Cao, Xiaorui Wang, Hairong Qi, Tian He: r-Kernel: An operating system foundation for highly reliable networked embedded systems. INFOCOM 2011:2507-2515
5116 Mingyi Hong, Alfredo Garcia, Jorge Barrera: Joint distributed access point selection and power allocation in cognitive radio networks. INFOCOM 2011:2516-2524
5115 Zvi Lotker, Merav Parter, David Peleg, Yvonne Anne Pignolet: Distributed power control in the SINR model. INFOCOM 2011:2525-2533
5114 Haiping Liu, Xiaoling Qiu, Dipak Ghosal, Chen-Nee Chuah, Xin Liu, Yueyue Fan: Traffic-tracing gateway (TTG). INFOCOM 2011:2534-2542
5113 Sundeep Rangan, Ritesh Madan: Belief propagation methods for intercell interference coordination. INFOCOM 2011:2543-2551
5112 Chee Wei Tan: Optimal power control in Rayleigh-fading heterogeneous networks. INFOCOM 2011:2552-2560
5111 Yingsong Huang, Shiwen Mao: Downlink power control for variable bit rate videos over multicell wireless networks. INFOCOM 2011:2561-2569
5110 Wei Yu, Taesoo Kwon, Changyong Shin: Multicell coordination via joint scheduling, beamforming and power spectrum adaptation. INFOCOM 2011:2570-2578
5109 Bo Ji, Changhee Joo, Ness B. Shroff: Delay-based Back-Pressure scheduling in multi-hop wireless networks. INFOCOM 2011:2579-2587
5108 Po-Kai Huang, Xiaojun Lin, Chih-Chun Wang: A low-complexity congestion control and scheduling algorithm for multihop wireless networks with order-optimal per-flow delay. INFOCOM 2011:2588-2596
5107 Bin Li, Atilla Eryilmaz: On the limitations of randomization for Queue-Length-Based Scheduling in wireless networks. INFOCOM 2011:2597-2605
5106 Yishay Mansour, Boaz Patt-Shamir, Dror Rawitz: Overflow management with multipart packets. INFOCOM 2011:2606-2614
5105 Cheng Huang, David A. Maltz, Jin Li, Albert G. Greenberg: Public DNS system and Global Traffic Management. INFOCOM 2011:2615-2623
5104 Jun Li, Scott Brooks: I-seismograph: Observing and measuring Internet earthquakes. INFOCOM 2011:2624-2632
5103 Xin Hu, Matthew Knysz, Kang G. Shin: Measurement and analysis of global IP-usage patterns of fast-flux botnets. INFOCOM 2011:2633-2641
5102 Giusi Alfano, Michele Garetto, Emilio Leonardi: New insights into the stochastic geometry analysis of dense CSMA networks. INFOCOM 2011:2642-2650
5101 Yinjie Chen, Zhongli Liu, Benyuan Liu, Xinwen Fu, Wei Zhao: Identifying mobiles hiding behind wireless routers. INFOCOM 2011:2651-2659
5100 Yan Gao, Chee Wei Tan, Ying Huang, Zheng Zeng, P. R. Kumar: Feasibility and optimization of delay guarantees for non-homogeneous flows in IEEE 80211 WLANs. INFOCOM 2011:2660-2668
5099 Zheng Zeng, Yan Gao, Kun Tan, P. R. Kumar: CHAIN: Introducing minimum controlled coordination into random access MAC. INFOCOM 2011:2669-2677
5098 Yong Cui, Tianze Ma, Xiuzhen Cheng: Multi-hop access pricing in public area WLANs. INFOCOM 2011:2678-2686
5097 Yi Gai, Hua Liu, Bhaskar Krishnamachari: A packet dropping-based incentive mechanism for M/M/1 queues with selfish users. INFOCOM 2011:2687-2695
5096 Shaolei Ren, Jaeok Park, Mihaela van der Schaar: User subscription dynamics and revenue maximization in communications markets. INFOCOM 2011:2696-2704
5095 Chandramani Kishore Singh, Eitan Altman: The wireless multicast coalition game and the non-cooperative association problem. INFOCOM 2011:2705-2713
5094 Sha Hua, Hang Liu, Mingquan Wu, Shivendra S. Panwar: Exploiting MIMO antennas in cooperative cognitive radio networks. INFOCOM 2011:2714-2722
5093 Tengyi Zhang, Danny H. K. Tsang: Optimal Cooperative Sensing Scheduling for energy-efficient Cognitive Radio Networks. INFOCOM 2011:2723-2731
5092 Chengzhi Li, Huaiyu Dai: Transport throughput of secondary networks in spectrum sharing systems. INFOCOM 2011:2732-2740
5091 Chonggang Wang, Kazem Sohraby, Rittwik Jana, Lusheng Ji, Mahmoud Daneshmand: Network selection for secondary users in cognitive radio systems. INFOCOM 2011:2741-2749
5090 Zhen Ren, Gang Zhou, Andrew J. Pyles, Matthew Keally, Weizhen Mao, Haining Wang: BodyT2: Throughput and time delay performance assurance for heterogeneous BSNs. INFOCOM 2011:2750-2758
5089 Miao Zhao, Yuanyuan Yang: A framework for mobile data gathering with load balanced clustering and MIMO uploading. INFOCOM 2011:2759-2767
5088 Xuefeng Liu, Jiannong Cao, Steven Lai, Chao Yang, Hejun Wu, Youlin Xu: Energy efficient clustering for WSN-based structural health monitoring. INFOCOM 2011:2768-2776
5087 Yaling Yang, Yujun Li, Mengshu Hou: Many-to-one deliverability of greedy routing in 2-D wireless sensor networks. INFOCOM 2011:2777-2785
5086 Zhe Yang, Yuanqian Luo, Lin Cai: Network modulation: A new dimension to enhance wireless network performance. INFOCOM 2011:2786-2794
5085 Zih-Ci Lin, Huai-Lei Fu, Phone Lin: Dynamic Channel Allocation for wireless zone-based Multicast and Broadcast Service. INFOCOM 2011:2795-2803
5084 Fan Wu, Nikhil Singh, Nitin H. Vaidya, Guihai Chen: On adaptive-width channel allocation in non-cooperative, multi-radio wireless networks. INFOCOM 2011:2804-2812
5083 Mahmoud Al-Ayyoub, Himanshu Gupta: Truthful spectrum auctions with approximate revenue. INFOCOM 2011:2813-2821
5082 Mohit Thakur, Nadia Fawaz, Muriel Médard: Optimal relay location and power allocation for low SNR broadcast relay channels. INFOCOM 2011:2822-2830
5081 Pan Li, Xiaoxia Huang, Yuguang Fang: Capacity scaling of multihop cellular networks. INFOCOM 2011:2831-2839
5080 Ionut Trestian, Supranamaya Ranjan, Aleksandar Kuzmanovic, Antonio Nucci: Taming user-generated content in mobile networks via Drop Zones. INFOCOM 2011:2840-2848
5079 Urtzi Ayesta, Peter Jacko, Vladimir Novak: A nearly-optimal index rule for scheduling of users with abandonment. INFOCOM 2011:2849-2857
5078 Meghana M. Amble, Parimal Parag, Srinivas Shakkottai, Lei Ying: Content-aware caching and traffic management in content distribution networks. INFOCOM 2011:2858-2866
5077 Mahdi Lotfinezhad, Peter Marbach: Throughput-optimal random access with order-optimal delay. INFOCOM 2011:2867-2875
5076 Vinod Ramaswamy, Diganto Choudhury, Srinivas Shakkottai: Which protocol? Mutual interaction of heterogeneous congestion controllers. INFOCOM 2011:2876-2884
5075 Hyungsoo Jung, Shin Gyu Kim, Heon Young Yeom, Sooyong Kang, Lavy Libman: Adaptive delay-based congestion control for high bandwidth-delay product networks. INFOCOM 2011:2885-2893
5074 Jingyuan Wang, Jiangtao Wen, Jun Zhang, Yuxing Han: TCP-FIT: An improved TCP congestion control algorithm and its performance. INFOCOM 2011:2894-2902
5073 Fei Chen, Bezawada Bruhadeshwar, Alex X. Liu: A cross-domain privacy-preserving protocol for cooperative firewall optimization. INFOCOM 2011:2903-2911
5072 Shruti Sanadhya, Raghupathy Sivakumar: Adaptive flow control for TCP on mobile phones. INFOCOM 2011:2912-2920
5071 Amitabha Ghosh, Rittwik Jana, V. Ramaswami, Jim Rowland, N. K. Shankaranarayanan: Modeling and characterization of large-scale Wi-Fi traffic in public hot-spots. INFOCOM 2011:2921-2929
5070 Kyu-Han Kim, Alexander W. Min, Dhruv Gupta, Prasant Mohapatra, Jatinder Pal Singh: Improving energy efficiency of Wi-Fi sensing on smartphones. INFOCOM 2011:2930-2938
5069 Jie Xiong, Romit Roy Choudhury: PeerCast: Improving link layer multicast through cooperative relaying. INFOCOM 2011:2939-2947
5068 Gábor Rétvári, János Tapolcai, Gábor Enyedi, András Császár: IP fast ReRoute: Loop Free Alternates revisited. INFOCOM 2011:2948-2956
5067 Marco Chiesa, Luca Cittadini, Giuseppe Di Battista, Stefano Vissicchio: Local transit policies and the complexity of BGP Stability Testing. INFOCOM 2011:2957-2965
5066 Martin Suchara, Alex Fabrikant, Jennifer Rexford: BGP safety with spurious updates. INFOCOM 2011:2966-2974
5065 Alex Fabrikant, Umar Syed, Jennifer Rexford: There's something about MRAI: Timing diversity can exponentially worsen BGP convergence. INFOCOM 2011:2975-2983
5064 Dongyue Xue, Eylem Ekici: Guaranteed opportunistic scheduling in multi-hop cognitive radio networks. INFOCOM 2011:2984-2992
5063 Alexander W. Min, Kyu-Han Kim, Jatinder Pal Singh, Kang G. Shin: Opportunistic spectrum access for mobile cognitive radios. INFOCOM 2011:2993-3001
5062 Karim Khalil, Mehmet Karaca, Özgür Erçetin, Eylem Ekici: Optimal scheduling in cooperate-to-join Cognitive Radio Networks. INFOCOM 2011:3002-3010
5061 Yi Song, Jiang Xie: Performance analysis of spectrum handoff for cognitive radio ad hoc networks without common control channel under homogeneous primary traffic. INFOCOM 2011:3011-3019
5060 Ajay Gopinathan, Zongpeng Li, Chuan Wu: Strategyproof auctions for balancing social welfare and fairness in secondary spectrum markets. INFOCOM 2011:3020-3028
5059 Eyjolfur Ingi Asgeirsson, Pradipta Mitra: On a game theoretic approach to capacity maximization in wireless networks. INFOCOM 2011:3029-3037
5058 Qinghe Du, Xi Zhang: Base-station selections for qos provisioning over distributed multi-user MIMO links in wireless networks. INFOCOM 2011:3038-3046
5057 Chandrashekhar Thejaswi P. S., Tuan Tran, Junshan Zhang: When compressive sampling meets multicast: Outage analysis and subblock network coding. INFOCOM 2011:3047-3055
5056 Wenzhuo Ouyang, Sugumar Murugesan, Atilla Eryilmaz, Ness B. Shroff: Exploiting channel memory for joint estimation and scheduling in downlink networks. INFOCOM 2011:3056-3064
5055 Ruogu Li, Atilla Eryilmaz: Scheduling for end-to-end deadline-constrained traffic with reliability requirements in multi-hop networks. INFOCOM 2011:3065-3073
5054 Hyunseok Chang, Murali S. Kodialam, Ramana Rao Kompella, T. V. Lakshman, Myungjin Lee, Sarit Mukherjee: Scheduling in mapreduce-like systems for fast completion time. INFOCOM 2011:3074-3082
5053 Lin Liu, Zhenghao Zhang, Yuanyuan Yang: Pipelining packet scheduling in a low latency optical packet switch. INFOCOM 2011:3083-3091
5052 Lei Yang, Jinsong Han, Yong Qi, Cheng Wang, Tao Gu, Yunhao Liu: Season: Shelving interference and joint identification in large-scale RFID systems. INFOCOM 2011:3092-3100
5051 Shigang Chen, Ming Zhang, Bin Xiao: Efficient information collection protocols for sensor-augmented RFID networks. INFOCOM 2011:3101-3109
5050 Nazif C. Tas, Tamer Nadeem, Ashok K. Agrawala: Making wireless networks MORAL. INFOCOM 2011:3110-3118
5049 Wei Gao, Guohong Cao: User-centric data dissemination in disruption tolerant networks. INFOCOM 2011:3119-3127
5048 Kyunghan Lee, Yoora Kim, Song Chong, Injong Rhee, Yung Yi: Delay-capacity tradeoffs for mobile networks with Lévy walks and Lévy flights. INFOCOM 2011:3128-3136
5047 Esa Hyytiä, Jorma T. Virtamo, Pasi E. Lassila, Jussi Kangasharju, Jörg Ott: When does content float? Characterizing availability of anchored information in opportunistic content sharing. INFOCOM 2011:3137-3145
5046 Eitan Altman, Veeraruna Kavitha, Francesco De Pellegrini, Vijay Kamble, Vivek S. Borkar: Risk sensitive optimal control framework applied to delay tolerant networks. INFOCOM 2011:3146-3154
5045 Junxing Zhang, Sneha Kumar Kasera, Neal Patwari, Piyush Rai: Distinguishing locations across perimeters using wireless link measurements. INFOCOM 2011:3155-3163
5044 Miao Jin, Su Xia, Hongyi Wu, Xianfeng Gu: Scalable and fully distributed localization with mere connectivity. INFOCOM 2011:3164-3172
5043 Sándor Laki, Peter Matray, Péter Hága, Tamas Sebok, István Csabai, Gábor Vattay: Spotter: A model based active geolocation service. INFOCOM 2011:3173-3181
5042 Jun-geun Park, Dorothy Curtis, Seth J. Teller, Jonathan Ledlie: Implications of device diversity for organic localization. INFOCOM 2011:3182-3190
5041 Isaac Keslassy, Kirill Kogan, Gabriel Scalosub, Michael Segal: Providing performance guarantees in multipass network processors. INFOCOM 2011:3191-3199
5040 Tao Li, Shigang Chen, Wen Luo, Ming Zhang: Scan detection in high-speed networks based on optimal dynamic bit sharing. INFOCOM 2011:3200-3208
5039 Lixiong Chen, Xue Liu, Qixin Wang, Yufei Wang: A real-time multicast routing scheme for multi-hop switched fieldbuses. INFOCOM 2011:3209-3217
5038 Dinh Nguyen Tran, Jinyang Li, Lakshminarayanan Subramanian, Sherman S. M. Chow: Optimal Sybil-resilient node admission control. INFOCOM 2011:3218-3226
5037 Lu Zhang, Xueyan Tang: Client assignment for improving interactivity in distributed interactive applications. INFOCOM 2011:3227-3235
5036 Rami Cohen, Danny Raz: Cost effective resource allocation of overlay routing relay nodes. INFOCOM 2011:3236-3244
5035 : INFOCOM 2010. 29th IEEE International Conference on Computer Communications, Joint Conference of the IEEE Computer and Communications Societies, 15-19 March 2010, San Diego, CA, USA INFOCOM 2010
5034 Yong Yang, Lu Su, Yan Gao, Tarek F. Abdelzaher: SolarCode: Utilizing Erasure Codes for Reliable Data Delivery in Solar-powered Wireless Sensor Networks. INFOCOM 2010:1-5
5033 Michael Segal, Hanan Shpungin: Improved Multi-criteria Spanners for Ad-Hoc Networks Under Energy and Distance Metrics. INFOCOM 2010:6-10
5032 Yan Gao, Zheng Zeng, P. R. Kumar: Joint Random Access and Power Selection for Maximal Throughput in Wireless Networks. INFOCOM 2010:11-15
5031 Wenjie Zeng, Anish Arora, Ness B. Shroff: Maximizing Energy Efficiency for Convergecast via Joint Duty Cycle and Route Optimization. INFOCOM 2010:16-20
5030 Matthew Andrews, Antonio Fernández, Lisa Zhang, Wenbo Zhao: Routing and Scheduling for Energy and Delay Minimization in the Powerdown Model. INFOCOM 2010:21-25
5029 Hong Xu, Jin Jin, Baochun Li: A Secondary Market for Spectrum. INFOCOM 2010:31-35
5028 Praveen Kumar Muthuswamy, Koushik Kar, Sambit Sahu, Prashant Pradhan, Saswati Sarkar: Change Management in Enterprise IT Systems: Process Modeling and Capacity-optimal Scheduling. INFOCOM 2010:36-40
5027 Jocelyne Elias, Fabio Martignon, Konstantin Avrachenkov, Giovanni Neglia: Socially-Aware Network Design Games. INFOCOM 2010:41-45
5026 Zhi-Li Zhang, Papak Nabipay, Andrew M. Odlyzko, Roch Guérin: Interactions, Competition and Innovation in a Service-Oriented Internet: An Economic Model. INFOCOM 2010:46-50
5025 Yu Cheng, Hongkun Li, Peng-Jun Wan, Xinbing Wang: Capacity Region of a Wireless Mesh Backhaul Network over the CSMA/CA MAC. INFOCOM 2010:51-55
5024 Matthew Mah, Neha Gupta, Ashok K. Agrawala: PinPoint Time Difference of Arrival for Unsynchronized 80211 Wireless Cards. INFOCOM 2010:56-60
5023 Amr Rizk, Markus Fidler: Sample Path Bounds for Long Memory FBM Traffic. INFOCOM 2010:61-65
5022 Hongseok Kim, Gustavo de Veciana, Xiangying Yang: alpha-Optimal User Association and Cell Load Balancing in Wireless Networks. INFOCOM 2010:66-70
5021 Vartika Bhandari, Nitin H. Vaidya: On Providing Non-uniform Scheduling Guarantees in a Wireless Network. INFOCOM 2010:71-75
5020 Casey T. Deccio, Jeff Sedayao, Krishna Kant, Prasant Mohapatra: Measuring Availability in the Domain Name System. INFOCOM 2010:76-80
5019 Hassan Gobjuka: Topology Discovery for Virtual Local Area Networks. INFOCOM 2010:81-85
5018 Yi-Hua Edward Yang, Hoang Le, Viktor K. Prasanna: High Performance Dictionary-Based String Matching for Deep Packet Inspection. INFOCOM 2010:86-90
5017 Hongyi Yao, Sidharth Jaggi, Minghua Chen: Network Coding Tomography for Network Failures. INFOCOM 2010:91-95
5016 Hemant Sengar, Zhen Ren, Haining Wang, Duminda Wijesekera, Sushil Jajodia: Tracking Skype VoIP Calls Over The Internet. INFOCOM 2010:96-100
5015 Hongzi Zhu, Luoyi Fu, Guangtao Xue, Yanmin Zhu, Minglu Li, Lionel M. Ni: Recognizing Exponential Inter-Contact Time in VANETs. INFOCOM 2010:101-105
5014 Eitan Altman, Amar Prakash Azad, Tamer Basar, Francesco De Pellegrini: Optimal Activation and Transmission Control in Delay Tolerant Networks. INFOCOM 2010:106-110
5013 Abderrahmen Mtibaa, Martin May, Christophe Diot, Mostafa H. Ammar: PeopleRank: Social Opportunistic Forwarding. INFOCOM 2010:111-115
5012 Bojin Liu, Behrooz Khorashadi, Dipak Ghosal, Chen-Nee Chuah, H. Michael Zhang: Assessing the VANET's Local Information Storage Capability under Different Traffic Mobility. INFOCOM 2010:116-120
5011 Eitan Altman, Francesco De Pellegrini, Lucile Sassatelli: Dynamic Control of Coding in Delay Tolerant Networks. INFOCOM 2010:121-125
5010 Giovanni Resta, Paolo Santi: On the Fundamental Limits of Broadcasting in Wireless Mobile Networks. INFOCOM 2010:126-130
5009 Shan Zhou, Lei Ying: On Delay Constrained Multicast Capacity of Large-Scale Mobile Ad-Hoc Networks. INFOCOM 2010:131-135
5008 Xiaohang Li, Chih-Chun Wang, Xiaojun Lin: Throughput and Delay Analysis on Uncoded and Coded Wireless Broadcast with Hard Deadline Constraints. INFOCOM 2010:136-140
5007 Jubin Jose, Ahmed Abdel-Hadi, Piyush Gupta, Sriram Vishwanath: On the Impact of Mobility on Multicast Capacity of Wireless Networks. INFOCOM 2010:141-145
5006 Lakshmi Anantharamu, Bogdan S. Chlebus, Dariusz R. Kowalski, Mariusz A. Rokicki: Deterministic Broadcast on Multiple Access Channels. INFOCOM 2010:146-150
5005 Apoorva Jindal, Ann Arbor, Konstantinos Psounis: Making the Case for Random Access Scheduling in Wireless Multi-hop Networks. INFOCOM 2010:151-155
5004 Daniel Wu, Prasant Mohapatra: From Theory to Practice: Evaluating Static Channel Assignments on a Wireless Mesh Network. INFOCOM 2010:156-160
5003 János Tapolcai, Lajos Rónyai, Pin-Han Ho: Optimal Solutions for Single Fault Localization in Two Dimensional Lattice Networks. INFOCOM 2010:161-165
5002 Ahmed Khattab: An Experimental Case for SIMO Random Access in Multi-hop Wireless Networks. INFOCOM 2010:166-170
5001 Yunfeng Lin, Ben Liang, Baochun Li: SlideOR: Online Opportunistic Network Coding in Wireless Mesh Networks. INFOCOM 2010:171-175
5000 Shinuk Woo, Hwangnam Kim: Estimating Link Reliability in Wireless Networks: An Empirical Study and Interference Modeling. INFOCOM 2010:176-180
4999 Ziyu Shao, Minghua Chen, Amir Salman Avestimehr, Shuo-Yen Robert Li: Cross-layer Optimization for Wireless Networks with Deterministic Channel Models. INFOCOM 2010:181-185
4998 Moran Feldman, Joseph Naor: Non-Preemptive Buffer Management for Latency Sensitive Packets. INFOCOM 2010:186-190
4997 Luigi Alfredo Grieco, Chadi Barakat: A Frequency Domain Model to Predict the Estimation Accuracy of Packet Sampling. INFOCOM 2010:191-195
4996 Stilian Stoev, George Michailidis, Joel Vaughan: On Global Modeling of Backbone Network Traffic. INFOCOM 2010:196-200
4995 D. K. Lee, Keon Jang, Changhyun Lee, Gianluca Iannaccone, Sue B. Moon: Path Stitching: Internet-Wide Path and Delay Estimation from Existing Measurements. INFOCOM 2010:201-205
4994 Aiyou Chen, Yu Jin, Jin Cao: Tracking Long Duration Flows in Network Traffic. INFOCOM 2010:206-210
4993 Jin Cao, Li (Erran) Li, Aiyou Chen, Tian Bu: Tracking Quantiles of Network Data Streams with Dynamic Operations. INFOCOM 2010:211-215
4992 Ravish Khosla, Sonia Fahmy, Y. Charlie Hu, Jennifer Neville: Predicting Prefix Availability in the Internet. INFOCOM 2010:216-220
4991 Brian Gallagher, Marios Iliofotou, Tina Eliassi-Rad, Michalis Faloutsos: Link Homophily in the Application Layer and its Usage in Traffic Classification. INFOCOM 2010:221-225
4990 Xiaoqing Zhu, Rong Pan, Nandita Dukkipati, Vijay Subramanian, Flavio Bonomi: Layered Internet Video Engineering (LIVE): Network-Assisted Bandwidth Sharing and Transient Loss Protection for Scalable Video Streaming. INFOCOM 2010:226-230
4989 Lin Cai, Yuanqian Luo, Siyuan Xiang, Jianping Pan: Scalable Modulation for Scalable Wireless Videocast. INFOCOM 2010:231-235
4988 Wesley W. Terpstra, Christof Leng, Max Lehn, Alejandro P. Buchmann: Channel-based Unidirectional Stream Protocol (CUSP). INFOCOM 2010:236-240
4987 Gabriel Scalosub, Peter Marbach, Jörg Liebeherr: Buffer Management for Aggregated Streaming Data with Packet Dependencies. INFOCOM 2010:241-245
4986 Vijay Gopalakrishnan, Rittwik Jana, Ralph Knag, K. K. Ramakrishnan, Deborah F. Swayne, Vinay A. Vaishampayan: Characterizing Interactive Behavior in a Large-Scale Operational IPTV Environment. INFOCOM 2010:246-250
4985 Lars Kulseng, Zhen Yu, Yawen Wei, Yong Guan: Lightweight Mutual Authentication and Ownership Transfer for RFID Systems. INFOCOM 2010:251-255
4984 Thanh Dang, Nirupama Bulusu, Wu-chi Feng, Sergey Frolov: CoTrack: A Framework for Tracking Dynamic Features with Static and Mobile Sensors. INFOCOM 2010:256-260
4983 Junxing Zhang, Sneha Kumar Kasera, Neal Patwari: Mobility Assisted Secret Key Generation Using Wireless Link Signatures. INFOCOM 2010:261-265
4982 Natalia Castro Fernandes, Marcelo D. D. Moreira, Otto Carlos Muniz Bandeira Duarte: A Self-Organized Mechanism for Thwarting Malicious Access in Ad Hoc Networks. INFOCOM 2010:266-270
4981 Jian Ni, Bo (Rambo) Tan, R. Srikant: Q-CSMA: Queue-Length Based CSMA/CA Algorithms for Achieving Maximum Throughput and Low Delay in Wireless Networks. INFOCOM 2010:271-275
4980 Miao Wang, Lisong Xu, Byrav Ramamurthy: Linear Programming Models For Multi-Channel P2P Streaming Systems. INFOCOM 2010:276-280
4979 Zhenjiang Li, Danny H. K. Tsang, Wang-Chien Lee: Understanding Sub-stream Scheduling in P2P Hybrid Live Streaming Systems. INFOCOM 2010:281-285
4978 Yi Hu, Min Feng, Laxmi N. Bhuyan: A Balanced Consistency Maintenance Protocol for Structured P2P Systems. INFOCOM 2010:286-290
4977 David R. Choffnes, Mario A. Sánchez, Fabian E. Bustamante: Network Positioning from the Edge - An Empirical Study of the Effectiveness of Network Positioning in P2P Systems. INFOCOM 2010:291-295
4976 Qiyan Wang, Long Vu, Klara Nahrstedt, Himanshu Khurana: MIS: Malicious Nodes Identification Scheme in Network-Coding-Based Peer-to-Peer Streaming. INFOCOM 2010:296-300
4975 Bakr Sarakbi, Stéphane Maag: BGP Skeleton - An Alternative to iBGP Route Reflection. INFOCOM 2010:301-305
4974 Jung Ryu, Lei Ying, Sanjay Shakkottai: Back-Pressure Routing for Intermittently Connected Networks. INFOCOM 2010:306-310
4973 Jianping Wang, Kui Wu, Shiliang Li, Chunming Qiao: Performance Modeling and Analysis of Multi-Path Routing in Integrated Fiber-Wireless Networks. INFOCOM 2010:311-315
4972 Vijay Kamble, Eitan Altman, Rachid El Azouzi, Vinod Sharma: A Theoretical Framework for Hierarchical Routing Games. INFOCOM 2010:316-320
4971 Chengchen Hu, Kai Chen, Yan Chen, Bin Liu: Evaluating Potential Routing Diversity for Internet Failure Recovery. INFOCOM 2010:321-325
4970 Andrew J. Kalafut, Craig A. Shue, Minaxi Gupta: Malicious Hubs: Detecting Abnormally Malicious Autonomous Systems. INFOCOM 2010:326-330
4969 Zhibin Zhou, Dijiang Huang: An Optimal Key Distribution Scheme for Secure Multicast Group Communication. INFOCOM 2010:331-335
4968 Daniele Quercia, Stephen Hailes: Sybil Attacks Against Mobile Users: Friends and Foes to the Rescue. INFOCOM 2010:336-340
4967 Bin Zhang, Ehab Al-Shaer: Towards Automatic Creation of Usable Security Configuration. INFOCOM 2010:341-345
4966 Pawan Prakash, Manish Kumar, Ramana Rao Kompella, Minaxi Gupta: PhishNet: Predictive Blacklisting to Detect Phishing Attacks. INFOCOM 2010:346-350
4965 Chia-Hung Lin, Jian-Jhih Kuo, Ming-Jer Tsai: Reliable GPS-Free Double-Ruling-Based Information Brokerage in Wireless Sensor Networks. INFOCOM 2010:351-355
4964 Siyuan Chen, ShaoJie Tang, Minsu Huang, Yu Wang: Capacity of Data Collection in Arbitrary Wireless Sensor Networks. INFOCOM 2010:356-360
4963 Haiyan Cai, Xiaohua Jia, Mo Sha: Critical Sensor Density for Partial Connectivity in Large Area Wireless Sensor Networks. INFOCOM 2010:361-365
4962 Yaxiong Zhao, Jie Wu, Feng Li, Sanglu Lu: VBS: Maximum Lifetime Sleep Scheduling for Wireless Sensor Networks Using Virtual Backbones. INFOCOM 2010:366-370
4961 Robert Zhong Zhou, James Peng Zheng, Jun-Hong Cui, Zaihan Jiang: Handling Triple Hidden Terminal Problems for Multi-Channel MAC in Long-Delay Underwater Sensor Networks. INFOCOM 2010:371-375
4960 Zohar Naor, Sajal K. Das: Mobile Real-Time Group Communication Service. INFOCOM 2010:376-380
4959 Alexander W. Min, Xinyu Zhang, Kang G. Shin: Spatio-Temporal Fusion for Small-scale Primary Detection in Cognitive Radio Networks. INFOCOM 2010:381-385
4958 Liang Cai, Sridhar Machiraju, Hao Chen: CapAuth: A Capability-based Handover Scheme. INFOCOM 2010:386-390
4957 Chengdi Lai, Ka-Cheong Leung, Victor O. K. Li: Enhancing Wireless TCP: A Serialized-Timer Approach. INFOCOM 2010:391-395
4956 Di Wang, Alhussein A. Abouzeid: On the Cost of Knowledge of Mobility in Dynamic Networks. INFOCOM 2010:396-400
4955 Salah-Eddine Elayoubi, Eitan Altman, Majed Haddad, Zwi Altman: A Hybrid Decision Approach for the Association Problem in Heterogeneous Networks. INFOCOM 2010:401-405
4954 Alexandre Proutiere, Yung Yi, Tian Lan, Mung Chiang: Resource Allocation over Network Dynamics without Timescale Separation. INFOCOM 2010:406-410
4953 Andrés Ferragut, Fernando Paganini: User-Centric Network Fairness through Connection-Level Control. INFOCOM 2010:411-415
4952 Hammad Iqbal, Taieb Znati: Overcoming Failures: Fault-tolerance and Logical Centralization in Clean-Slate Network Management. INFOCOM 2010:416-420
4951 Mingui Zhang, Bin Liu, Beichuan Zhang: Safeguarding Data Delivery by Decoupling Path Propagation and Adoption. INFOCOM 2010:421-425
4950 Rade Stanojevic, Robert Shorten: Distributed Dynamic Speed Scaling. INFOCOM 2010:426-430
4949 Yunghsiang S. Han, Oluwasoji Omiwade, Rong Zheng: Survivable Distributed Storage with Progressive Decoding. INFOCOM 2010:431-435
4948 Urtzi Ayesta, Olivier Brun, Balakrishna J. Prabhu: Price of Anarchy in Non-Cooperative Load Balancing. INFOCOM 2010:436-440
4947 Jin Li, Qian Wang, Cong Wang, Ning Cao, Kui Ren, Wenjing Lou: Fuzzy Keyword Search over Encrypted Data in Cloud Computing. INFOCOM 2010:441-445
4946 Haiquan (Chuck) Zhao, Cathy H. Xia, Zhen Liu, Donald F. Towsley: Distributed Resource Allocation for Synchronous Fork and Join Processing Networks. INFOCOM 2010:446-450
4945 Shuang Yang, Xin Wang, Baochun Li: Haste: Practical Online Network Coding in a Multicast Switch. INFOCOM 2010:451-455
4944 Ori Rottenstreich, Isaac Keslassy: Worst-Case TCAM Rule Expansion. INFOCOM 2010:456-460
4943 Ramei Cohen, Dan Raz: Simple Efficient TCAM Based Range Classification. INFOCOM 2010:461-465
4942 Kaishun Wu, Haoyu Tan, Hoilun Ngan, Lionel M. Ni: Chip Error Pattern Analysis in IEEE 802154. INFOCOM 2010:466-470
4941 Novella Bartolini, Tiziana Calamoneri, Thomas F. La Porta, Simone Silvestri: Mobile Sensor Deployment in Unknown Fields. INFOCOM 2010:471-475
4940 Kai Zeng, Zhenyu Yang, Wenjing Lou: Opportunistic Routing in Multi-radio Multi-channel Multi-hop Wireless Networks. INFOCOM 2010:476-480
4939 Swaminathan Sankararaman, Alon Efrat, Srinivasan Ramasubramanian, Pankaj K. Agarwal: On Channel-Discontinuity-Constraint Routing in Wireless Networks. INFOCOM 2010:481-485
4938 Ilias Leontiadis, Paolo Costa, Cecilia Mascolo: Extending Access Point Connectivity through Opportunistic Routing in Vehicular Networks. INFOCOM 2010:486-490
4937 Partha Dutta, Vivek Mhatre, Debmalya Panigrahi, Rajeev Rastogi: Joint Routing and Scheduling in Multi-hop Wireless Networks with Directional Antennas. INFOCOM 2010:491-495
4936 Mohammad Naghshvar, Tara Javidi: Opportunistic Routing with Congestion Diversity in Wireless Multi-hop Networks. INFOCOM 2010:496-500
4935 Miao Zhao, Yuanyuan Yang: An Optimization Based Distributed Algorithm for Mobile Data Gathering in Wireless Sensor Networks. INFOCOM 2010:501-505
4934 Junbin Liang, Jianxin Wang, Jiannong Cao, Jianer Chen, Mingming Lu: An Efficient Algorithm for Constructing Maximum lifetime Tree for Data Gathering Without Aggregation in Wireless Sensor Networks. INFOCOM 2010:506-510
4933 Dengpan Zhou, Jie Gao: Maintaining Approximate Minimum Steiner Tree and k-center for Mobile Agents in a Sensor Network. INFOCOM 2010:511-515
4932 Amir Epstein, Dean H. Lorenz, Ezra Silvera, Inbar Shapira: Virtual Appliance Content Distribution for a Global Infrastructure Cloud Service. INFOCOM 2010:516-524
4931 Cong Wang, Qian Wang, Kui Ren, Wenjing Lou: Privacy-Preserving Public Auditing for Data Storage Security in Cloud Computing. INFOCOM 2010:525-533
4930 Shucheng Yu, Cong Wang, Kui Ren, Wenjing Lou: Achieving Secure, Scalable, and Fine-grained Data Access Control in Cloud Computing. INFOCOM 2010:534-542
4929 Hyoil Kim, Kang G. Shin: Asymmetry-Aware Real-Time Distributed Joint Resource Allocation in IEEE 80222 WRANs. INFOCOM 2010:543-551
4928 Jin Jin, Baochun Li: Cooperative Resource Management in Cognitive WiMAX with Femto Cells. INFOCOM 2010:552-560
4927 Hong Xu, Baochun Li: Efficient Resource Allocation with Flexible Channel Cooperation in OFDMA Cognitive Radio Networks. INFOCOM 2010:561-569
4926 Mahdi Lotfinezhad, Ben Liang, Elvino S. Sousa: Optimal Control of Constrained Cognitive Radio Networks with Dynamic Population Size. INFOCOM 2010:570-578
4925 Mohammad A. Saleh, Ahmed E. Kamal: Approximation Algorithms for Many-to-Many Traffic Grooming in WDM Mesh Networks. INFOCOM 2010:579-587
4924 Ming Xia, Massimo Tornatore, Charles U. Martel, Biswanath Mukherjee: Risk-Aware Routing for Optical Transport Networks. INFOCOM 2010:588-595
4923 Onur Turkcu, Suresh Subramaniam: Optimal Waveband Switching in Optical Ring Networks. INFOCOM 2010:596-604
4922 Haojin Zhu, Xiaodong Lin, Rongxing Lu, Xuemin Shen, Dongsheng Xing, Zhenfu Cao: An Opportunistic Batch Bundle Authentication Scheme for Energy Constrained DTNs. INFOCOM 2010:605-613
4921 Liang Hu, Jean-Yves Le Boudec, Milan Vojnovic: Optimal Channel Choice for Collaborative Ad-Hoc Dissemination. INFOCOM 2010:614-622
4920 Philippe Jacquet, Bernard Mans, Georgios Rodolakis: On Space-Time Capacity Limits in Mobile and Delay Tolerant Networks. INFOCOM 2010:623-631
4919 Rongxing Lu, Xiaodong Lin, Xuemin Shen: SPRING: A Social-based Privacy-preserving Packet Forwarding Protocol for Vehicular Delay Tolerant Networks. INFOCOM 2010:632-640
4918 Andrew Markham, Agathoniki Trigoni: Discrete Gene Regulatory Networks (dGRNs): A Novel Approach to Configuring Sensor Networks. INFOCOM 2010:641-649
4917 Bo Li, Dan Wang, Feng Wang, Yi Qing Ni: High Quality Sensor Placement for SHM Systems: Refocusing on Application Demands. INFOCOM 2010:650-658
4916 Anat Bremler-Barr, David Hay, Yaron Koral: CompactDFA: Generic State Machine Compression for Scalable Pattern Matching. INFOCOM 2010:659-667
4915 Yunye Jin, Mehul Motani, Wee-Seng Soh, Juanjuan Zhang: SparseTrack: Enhancing Indoor Pedestrian Tracking with Sparse Infrastructure Support. INFOCOM 2010:668-676
4914 Onur Güngör, Jian Tan, Can Emre Koksal, Hesham El Gamal, Ness B. Shroff: Joint Power and Secret Key Queue Management for Delay Limited Secure Communication. INFOCOM 2010:677-685
4913 Javad Ghaderi, Rayadurgam Srikant: Towards a Theory of Anonymous Networking. INFOCOM 2010:686-694
4912 Yao Liu, Peng Ning, Huaiyu Dai, An Liu: Randomized Differential DSSS: Jamming-Resistant Wireless Broadcast Communication. INFOCOM 2010:695-703
4911 Li Lu, Yunhao Liu, Xiang-Yang Li: Refresh: Weak Privacy Model for RFID Systems. INFOCOM 2010:704-712
4910 Daniela Brauckhoff, Kavé Salamatian, Martin May: A Signal Processing View on Packet Sampling and Anomaly Detection. INFOCOM 2010:713-721
4909 Fernando Silveira, Christophe Diot: URCA: Pulling out Anomalies by their Root Causes. INFOCOM 2010:722-730
4908 Kai Zheng, Xin Zhang, Zhiping Cai, Zhijun Wang, Baohua Yang: Scalable NIDS via Negative Pattern Matching and Exclusive Pattern Matching. INFOCOM 2010:731-739
4907 Kedar S. Namjoshi, Girija J. Narlikar: Robust and Fast Pattern Matching for Intrusion Detection. INFOCOM 2010:740-748
4906 M. H. R. Khouzani, Saswati Sarkar, Eitan Altman: Maximum Damage Malware Attack in Mobile Wireless Networks. INFOCOM 2010:749-757
4905 Jing Shi, Rui Zhang, Yunzhong Liu, Yanchao Zhang: PriSense: Privacy-Preserving Data Aggregation in People-Centric Urban Sensing Systems. INFOCOM 2010:758-766
4904 Jie Yang, Yong Ge, Hui Xiong, Yingying Chen, Hongbo Liu: Performing Joint Learning for Passive Intrusion Detection in Pervasive Wireless Environments. INFOCOM 2010:767-775
4903 Mohamed Elsalih Mahmoud, Xuemin Shen: Stimulating Cooperation in Multi-hop Wireless Networks Using Cheating Detection System. INFOCOM 2010:776-784
4902 Lingjie Duan, Jianwei Huang, Biying Shou: Cognitive Mobile Virtual Network Operator: Investment and Pricing with Supply Uncertainty. INFOCOM 2010:785-793
4901 Lin Chen, Stefano Iellamo, Marceau Coupechoux, Philippe Godlewski: An Auction Framework for Spectrum Allocation with Interference Constraint in Cognitive Radio Networks. INFOCOM 2010:794-802
4900 Animashree Anandkumar, Nithin Michael, Ao Tang: Opportunistic Spectrum Access with Multiple Users: Learning under Competition. INFOCOM 2010:803-811
4899 Prasanna Chaporkar, Alexandre Proutiere, Himanshu Asnani: Learning to Optimally Exploit Multi-Channel Diversity in Wireless Systems. INFOCOM 2010:812-820
4898 Masanori Bando, H. Jonathan Chao: FlashTrie: Hash-based Prefix-Compressed Trie for IP Route Lookup Beyond 100Gbps. INFOCOM 2010:821-829
4897 Christos Kozanitis, John Huber, Sushil Singh, George Varghese: Leaping Multiple Headers in a Single Bound: Wire-Speed Parsing Using the Kangaroo System. INFOCOM 2010:830-838
4896 Cheng-Shang Chang, Jay Cheng, Tien-Ke Huang, Xuan-Chao Huang, Duan-Shin Lee: A Bit-Stuffing Algorithm for Crosstalk Avoidance in High Speed Switching. INFOCOM 2010:839-847
4895 Xin Zhao, Yaoqing Liu, Lan Wang, Beichuan Zhang: On the Aggregatability of Router Forwarding Tables. INFOCOM 2010:848-856
4894 Qinghua Li, Sencun Zhu, Guohong Cao: Routing in Socially Selfish Delay Tolerant Networks. INFOCOM 2010:857-865
4893 Theus Hossmann, Thrasyvoulos Spyropoulos, Franck Legendre: Know Thy Neighbor: Towards Optimal Mapping of Contacts to Social Graphs for DTN Routing. INFOCOM 2010:866-874
4892 Bin Bin Chen, Mun Choon Chan: MobiCent: a Credit-Based Incentive System for Disruption Tolerant Network. INFOCOM 2010:875-883
4891 Daniel J. Klein, João Pedro Hespanha, Upamanyu Madhow: A Reaction-Diffusion Model for Epidemic Routing in Sparsely Connected MANETs. INFOCOM 2010:884-892
4890 Changhee Joo, Jin-Ghoo Choi, Ness B. Shroff: Delay Performance of Scheduling with Data Aggregation in Wireless Sensor Networks. INFOCOM 2010:893-901
4889 Ren-Shiou Liu, Prasun Sinha, Can Emre Koksal: Joint Energy Management and Resource Allocation in Rechargeable Sensor Networks. INFOCOM 2010:902-910
4888 Yafeng Wu, Gang Zhou, John A. Stankovic: ACR: Active Collision Recovery in Dense Wireless Sensor Networks. INFOCOM 2010:911-919
4887 Kolar Purushothama Naveen, Anurag Kumar: Tunable Locally-Optimal Geographical Forwarding in Wireless Sensor Networks With Sleep-Wake Cycling Nodes. INFOCOM 2010:920-928
4886 Chi-Kin Chau, Qian Wang, Dah-Ming Chiu: On the Viability of Paris Metro Pricing for Communication and Service Networks. INFOCOM 2010:929-937
4885 Prashanth Hande, Mung Chiang, A. Robert Calderbank, Junshan Zhang: Pricing under Constraints in Access Networks: Revenue Maximization and Congestion Management. INFOCOM 2010:938-946
4884 Huseyin Mutlu, Murat Alanyali, David Starobinski: On-line Pricing of Secondary Spectrum Access with Unknown Demand Function and Call Length Distribution. INFOCOM 2010:947-955
4883 Jaeok Park, Mihaela van der Schaar: Pricing and Incentives in Peer-to-Peer Networks. INFOCOM 2010:956-964
4882 Jayakrishnan Nair, Martin Andreasson, Lachlan L. H. Andrew, Steven H. Low, John Doyle: File Fragmentation over an Unreliable Channel. INFOCOM 2010:965-973
4881 Boxuan Gu, Xiaole Bai, Zhimin Yang, Adam C. Champion, Dong Xuan: Malicious Shellcode Detection with Virtual Memory Snapshots. INFOCOM 2010:974-982
4880 Matteo Dell'Amico, Pietro Michiardi, Yves Roudier: Password Strength: An Empirical Analysis. INFOCOM 2010:983-991
4879 Mengjun Xie, Haining Wang: A Collaboration-based Autonomous Reputation System for Email Services. INFOCOM 2010:992-1000
4878 Lei Xie, Bo Sheng, Chiu Chiang Tan, Hao Han, Qun Li, Daoxu Chen: Efficient Tag Identification in Mobile RFID Systems. INFOCOM 2010:1001-1009
4877 Bo Sheng, Qun Li, Weizhen Mao: Efficient Continuous Scanning in RFID Systems. INFOCOM 2010:1010-1018
4876 Tao Li, Samuel Wu, Shigang Chen, Mark C. K. Yang: Energy Efficient Algorithms for the RFID Estimation Problem. INFOCOM 2010:1019-1027
4875 Hao Han, Bo Sheng, Chiu Chiang Tan, Qun Li, Weizhen Mao, Sanglu Lu: Counting RFID Tags Efficiently and Anonymously. INFOCOM 2010:1028-1036
4874 Tao Shu, Marwan Krunz: Truthful Least-Priced-Path Routing in Opportunistic Spectrum Access Networks. INFOCOM 2010:1037-1045
4873 Amine Laourine, Shiyao Chen, Lang Tong: Queuing Analysis in Multichannel Cognitive Spectrum Access: A Large Deviation Approach. INFOCOM 2010:1046-1054
4872 Shanshan Wang, Junshan Zhang, Lang Tong: Delay Analysis for Cognitive Radio Networks with Random Access: A Fluid Queue View. INFOCOM 2010:1055-1063
4871 Xinyu Zhang, Kang G. Shin: DAC: Distributed Asynchronous Cooperation for Wireless Relay Networks. INFOCOM 2010:1064-1072
4870 Elias Kehdi, Baochun Li: Incorporating Random Linear Network Coding for Peer-to-Peer Network Diagnosis. INFOCOM 2010:1073-1081
4869 John R. Douceur, James W. Mickens, Thomas Moscibroda, Debmalya Panigrahi: Collaborative Measurements of Upload Speeds in P2P Systems. INFOCOM 2010:1082-1090
4868 Zhichun Li, Anup Goyal, Yan Chen, Aleksandar Kuzmanovic: Measurement and Diagnosis of Address Misconfigured P2P Traffic. INFOCOM 2010:1091-1099
4867 Elisha J. Rosensweig, James F. Kurose, Donald F. Towsley: Approximate Models for General Cache Networks. INFOCOM 2010:1100-1108
4866 Zizhan Zheng, Zhixue Lu, Prasun Sinha, Santosh Kumar: Maximizing the Contact Opportunity for Vehicular Internet Access. INFOCOM 2010:1109-1117
4865 Nathanael Thompson, Samuel C. Nelson, Mehedi Bakht, Tarek F. Abdelzaher, Robin Kravets: Retiring Replicants: Congestion Control for Intermittently-Connected Networks. INFOCOM 2010:1118-1126
4864 Qing Yu, Jiming Chen, Yanfei Fan, Xuemin Shen, Youxian Sun: Multi-Channel Assignment in Wireless Sensor Networks: A Game Theoretic Approach. INFOCOM 2010:1127-1135
4863 Kyunghan Lee, Yung Yi, Jaeseong Jeong, Hyungsuk Won, Injong Rhee, Song Chong: Max-Contribution: On Optimal Resource Allocation in Delay Tolerant Networks. INFOCOM 2010:1136-1144
4862 Lei Rao, Xue Liu, Le Xie, Wenyu Liu: Minimizing Electricity Cost: Optimization of Distributed Internet Data Centers in a Multi-Electricity-Market Environment. INFOCOM 2010:1145-1153
4861 Xiaoqiao Meng, Vasileios Pappas, Li Zhang: Improving the Scalability of Data Center Networks with Traffic-aware Virtual Machine Placement. INFOCOM 2010:1154-1162
4860 Guohui Wang, T. S. Eugene Ng: The Impact of Virtualization on Network Performance of Amazon EC2 Data Center. INFOCOM 2010:1163-1171
4859 Yun Wang, Kai Li, Jie Wu: Distance Estimation by Constructing The Virtual Ruler in Anisotropic Sensor Networks. INFOCOM 2010:1172-1180
4858 Siyao Cheng, Jianzhong Li, Qianqian Ren, Lei Yu: Bernoulli Sampling Based (element of, delta)-Approximate Aggregation in Large-Scale Sensor Networks. INFOCOM 2010:1181-1189
4857 Zainul Charbiwala, Supriyo Chakraborty, Sadaf Zahedi, Younghun Kim, Ting He, Chatschik Bisdikian, Mani B. Srivastava: Compressive Oversampling for Robust Data Transmission in Sensor Networks. INFOCOM 2010:1190-1198
4856 Rui Zhang, Jing Shi, Yunzhong Liu, Yanchao Zhang: Verifiable Fine-Grained Top-k Queries in Tiered Sensor Networks. INFOCOM 2010:1199-1207
4855 Ahmed Elmokashfi, Amund Kvalbein, Constantine Dovrolis: BGP Churn Evolution: a Perspective from the Core. INFOCOM 2010:1208-1216
4854 Gábor Rétvári, Gábor Németh: Demand-Oblivious Routing: Distributed vs Centralized Approaches. INFOCOM 2010:1217-1225
4853 Yuval Shavitt, Yaron Singer: Limitations and Possibilities of Path Trading between Autonomous Systems. INFOCOM 2010:1226-1234
4852 Kin Wah Kwong, Lixin Gao, Roch Guérin, Zhi-Li Zhang: On the Feasibility and Efficacy of Protection Routing in IP Networks. INFOCOM 2010:1235-1243
4851 Yu Gu, Guofei Jiang, Vishal Singh, Yueping Zhang: Optimal Probing for Unicast Network Delay Tomography. INFOCOM 2010:1244-1252
4850 Peter Lieven, Björn Scheuermann: High-Speed Per-Flow Traffic Measurement with Probabilistic Multiplicity Counting. INFOCOM 2010:1253-1261
4849 Denisa Ghita, Hung Xuan Nguyen, Maciej Kurant, Katerina J. Argyraki, Patrick Thiran: Netscope: Practical Network Loss Tomography. INFOCOM 2010:1262-1270
4848 Saqib Raza, Guanyao Huang, Chen-Nee Chuah, Srini Seetharaman, Jatinder Pal Singh: MeasuRouting: A Framework for Routing Assisted Traffic Monitoring. INFOCOM 2010:1271-1279
4847 Senhua Huang, Xin Liu, Zhi Ding: Distributed Power Control for Cognitive User Access based on Primary Link Control Feedback. INFOCOM 2010:1280-1288
4846 Jin Jin, Hong Xu, Baochun Li: Multicast Scheduling with Cooperation and Network Coding in Cognitive Radio Networks. INFOCOM 2010:1289-1297
4845 Yanyan Yang, Yunhuai Liu, Qian Zhang, Lionel M. Ni: Cooperative Boundary Detection for Spectrum Sensing Using Dedicated Wireless Sensor Networks. INFOCOM 2010:1298-1306
4844 Jin Zhang, Juncheng Jia, Qian Zhang, Eric M. K. Lo: Implementation and Evaluation of Cooperative Communication Schemes in Software-Defined Radio Testbed. INFOCOM 2010:1307-1315
4843 Anne Bouillard, Laurent Jouhet, Eric Thierry: Tight Performance Bounds in the Worst-Case Analysis of Feed-Forward Networks. INFOCOM 2010:1316-1324
4842 Jörg Liebeherr, Almut Burchard, Florin Ciucu: Non-asymptotic Delay Bounds for Networks with Heavy-Tailed Traffic. INFOCOM 2010:1325-1333
4841 Jian Tan, Ness B. Shroff: Transition from Heavy to Light Tails in Retransmission Durations. INFOCOM 2010:1334-1342
4840 Tian Lan, David Kao, Mung Chiang, Ashutosh Sabharwal: An Axiomatic Theory of Fairness in Network Resource Allocation. INFOCOM 2010:1343-1351
4839 Xinyu Xing, Shivakant Mishra, Xue Liu: ARBOR: Hang Together Rather Than Hang Separately in 80211 WiFi Networks. INFOCOM 2010:1352-1360
4838 Fengyuan Xu, Chiu Chiang Tan, Qun Li, Guanhua Yan, Jie Wu: Designing a Practical Access Point Association Protocol. INFOCOM 2010:1361-1369
4837 Ming Zhang, Shigang Chen, Ying Jian: MAC-layer Time Fairness across Multiple Wireless LANs. INFOCOM 2010:1370-1378
4836 Zhenghao Zhang, Steven Bronson, Jin Xie, Hu Wei: Employing the One-Sender-Multiple-Receiver Technique in Wireless LANs. INFOCOM 2010:1379-1387
4835 Peng-Jun Wan, Lixin Wang, Ai Huang, Minming Li, F. Frances Yao: Approximate Capacity Subregions of Uniform Multihop Wireless Networks. INFOCOM 2010:1388-1396
4834 Michael Dinitz: Distributed Algorithms for Approximating Wireless Network Capacity. INFOCOM 2010:1397-1405
4833 Pan Li, Yuguang Fang, Jie Li: Throughput, Delay, and Mobility in Wireless Ad Hoc Networks. INFOCOM 2010:1406-1414
4832 Mingyue Ji, Zheng Wang, Hamid R. Sadjadpour, Jose Joaquin Garcia-Luna-Aceves: The Capacity of Ad Hoc Networks with Heterogeneous Traffic Using Cooperation. INFOCOM 2010:1415-1423
4831 Yan Cai, Bo Jiang, Tilman Wolf, Weibo Gong: A Practical On-line Pacing Scheme at Edges of Small Buffer Networks. INFOCOM 2010:1424-1432
4830 Arun Vishwanath, Vijay Sivaraman, Marina Thottan, Constantine Dovrolis: Enabling a Bufferless Core Network Using Edge-to-Edge Packet-Level FEC. INFOCOM 2010:1433-1441
4829 Haoyu Song, Murali S. Kodialam, Fang Hao, T. V. Lakshman: Building Scalable Virtual Routers with Trie Braiding. INFOCOM 2010:1442-1450
4828 Xin Sun, Yu-Wei Eric Sung, Sunil Krothapalli, Sanjay G. Rao: A Systematic Approach for Evolving VLAN Designs. INFOCOM 2010:1451-1459
4827 Chao Zhang, Prithula Dhungel, Di Wu, Zhengye Liu, Keith W. Ross: BitTorrent Darknets. INFOCOM 2010:1460-1468
4826 Gabriel Maciá-Fernández, Yong Wang, Rafael Rodríguez-Gómez, Aleksandar Kuzmanovic: ISP-Enabled Behavioral Ad Targeting without Deep Packet Inspection. INFOCOM 2010:1469-1477
4825 Sem C. Borst, Varun Gupta, Anwar Walid: Distributed Caching Algorithms for Content Distribution Networks. INFOCOM 2010:1478-1486
4824 Kanat Tangwongsan, Himabindu Pucha, David G. Andersen, Michael Kaminsky: Efficient Similarity Estimation for Systems Exploiting Data Redundancy. INFOCOM 2010:1487-1495
4823 Dan-Cristian Tomozei, Laurent Massoulié: Flow Control for Cost-Efficient Peer-to-Peer Streaming. INFOCOM 2010:1496-1504
4822 Daniel Sadoc Menasché, Laurent Massoulié, Donald F. Towsley: Reciprocity and Barter in Peer-to-Peer Systems. INFOCOM 2010:1505-1513
4821 Bivas Mitra, Abhishek Kumar Dubey, Sujoy Ghose, Niloy Ganguly: How do Superpeer Networks Emerge? INFOCOM 2010:1514-1522
4820 Shansi Ren, Enhua Tan, Tian Luo, Songqing Chen, Lei Guo, Xiaodong Zhang: TopBT: A Topology-Aware and Infrastructure-Independent BitTorrent Client. INFOCOM 2010:1523-1531
4819 Brian Eriksson, Gautam Dasarathy, Paul Barford, Robert Nowak: Toward the Practical Use of Network Tomography for Internet Topology Discovery. INFOCOM 2010:1532-1540
4818 Hao Wang, Haiquan (Chuck) Zhao, Bill Lin, Jun Xu: Design and Analysis of a Robust Pipelined Memory System. INFOCOM 2010:1541-1549
4817 Murali S. Kodialam, T. V. Lakshman, Sarit Mukherjee, Limin Wang: Online Scheduling of Targeted Advertisements for IPTV. INFOCOM 2010:1550-1558
4816 Giovanna Carofiglio, Luca Muscariello: On the Impact of TCP and Per-Flow Scheduling on Internet Performance. INFOCOM 2010:1559-1567
4815 Sheng Xiao, Weibo Gong, Donald F. Towsley: Secure Wireless Communication with Dynamic Secrets. INFOCOM 2010:1568-1576
4814 Julien Freudiger, Mohammad Hossein Manshaei, Jean-Yves Le Boudec, Jean-Pierre Hubaux: On the Age of Pseudonyms in Mobile Ad Hoc Networks. INFOCOM 2010:1577-1585
4813 Santhanakrishnan Anand, Shamik Sengupta, Rajarathnam Chandramouli: An Attack-Defense Game Theoretic Analysis of Multi-Band Wireless Covert Timing Networks. INFOCOM 2010:1586-1594
4812 Kai Xing, Xiuzhen Cheng: From Time Domain to Space Domain: Detecting Replica Attacks in Mobile Ad Hoc Networks. INFOCOM 2010:1595-1603
4811 Xi Chen, Daji Qiao: HaND: Fast Handoff with Null Dwell Time for IEEE 80211 Networks. INFOCOM 2010:1604-1612
4810 An (Jack) Chan, Kai Zeng, Prasant Mohapatra, Sung-Ju Lee, Sujata Banerjee: Metrics for Evaluating Video Streaming Quality in Lossy IEEE 80211 Wireless Networks. INFOCOM 2010:1613-1621
4809 Joseph Camp, Ehsan Aryafar, Edward W. Knightly: Coupled 80211 Flows in Urban Channels: Model and Experimental Evaluation. INFOCOM 2010:1622-1630
4808 Chen Feng, Wain Sy Anthea Au, Shahrokh Valaee, Zhenhui Tan: Compressive Sensing Based Positioning Using RSS of WLAN Access Points. INFOCOM 2010:1631-1639
4807 Fabio Soldo, Anh Le, Athina Markopoulou: Predictive Blacklisting as an Implicit Recommendation System. INFOCOM 2010:1640-1648
4806 Partha Kanuparthy, Constantine Dovrolis: DiffProbe: Detecting ISP Service Discrimination. INFOCOM 2010:1649-1657
4805 Sebastian Neumayer, Eytan Modiano: Network Reliability With Geographically Correlated Failures. INFOCOM 2010:1658-1666
4804 Kayi Lee, Hyang-Won Lee, Eytan Modiano: Reliability in Layered Networks with Random Link Failures. INFOCOM 2010:1667-1675
4803 Uichin Lee, Paul Wang, Youngtae Noh, Luiz Filipe M. Vieira, Mario Gerla, Jun-Hong Cui: Pressure Routing for Underwater Sensor Networks. INFOCOM 2010:1676-1684
4802 Shouwen Lai, Binoy Ravindran: On Distributed Time-Dependent Shortest Paths over Duty-Cycled Wireless Sensor Networks. INFOCOM 2010:1685-1693
4801 Wei Zeng, Rik Sarkar, Feng Luo, Xianfeng Gu, Jie Gao: Resilient Routing for Sensor Networks Using Hyperbolic Embedding of Universal Covering Space. INFOCOM 2010:1694-1702
4800 Hwee-Xian Tan, Mun-Choon Chan, Wendong Xiao, Peng Yong Kong, Chen-Khong Tham: Information Quality Aware Routing in Event-Driven Sensor Networks. INFOCOM 2010:1703-1711
4799 Sreenath Ramanath, Mérouane Debbah, Eitan Altman, Vinod Kumar: Asymptotic Analysis of Precoded Small Cell Networks. INFOCOM 2010:1712-1719
4798 Vincenzo Mancuso, Omer Gurewitz, Ahmed Khattab, Edward W. Knightly: Elastic Rate Limiting for Spatially Biased Wireless Mesh Networks. INFOCOM 2010:1720-1728
4797 Alonso Silva, Eitan Altman, Mérouane Debbah, Giuseppa Alfano: Magnetworks: How Mobility Impacts the Design of Mobile Ad Hoc Networks. INFOCOM 2010:1729-1737
4796 Delia Ciullo, Valentina Martina, Michele Garetto, Emilio Leonardi: Impact of Correlated Mobility on Delay-Throughput Performance in Mobile Ad-Hoc Networks. INFOCOM 2010:1738-1746
4795 Xinyu Zhang, Kang G. Shin: Chorus: Collision Resolution for Efficient Wireless Broadcast. INFOCOM 2010:1747-1755
4794 Seyed A. Hejazi, Ben Liang: Throughput Analysis of Multiple Access Relay Channel under Collision Model. INFOCOM 2010:1756-1764
4793 Sumit Singh, Raghuraman Mudumbai, Upamanyu Madhow: Distributed Coordination with Deaf Neighbors: Efficient Medium Access for 60 GHz Mesh Networks. INFOCOM 2010:1765-1773
4792 Erran L. Li, Richard Alimi, Dawei Shen, Harish Viswanathan, Yang Richard Yang: A General Algorithm for Interference Alignment and Cancellation in Wireless Networks. INFOCOM 2010:1774-1782
4791 Minghua Chen, Soung Chang Liew, Ziyu Shao, Caihong Kai: Markov Approximation for Combinatorial Network Optimization. INFOCOM 2010:1783-1791
4790 Moez Draief, Milan Vojnovic: Convergence Speed of Binary Interval Consensus. INFOCOM 2010:1792-1800
4789 Chenhui Hu, Xinbing Wang, Ding Nie, Jun Zhao: Multicast Scaling Laws with Hierarchical Cooperation. INFOCOM 2010:1801-1809
4788 MinJi Kim, Daniel Enrique Lucani, Xiaomeng Shi, Fang Zhao, Muriel Médard: Network Coding for Multi-Resolution Multicast. INFOCOM 2010:1810-1818
4787 Zhuo Lu, Wenye Wang, Cliff Wang: On Order Gain of Backoff Misbehaving Nodes in CSMA/CA-based Wireless Networks. INFOCOM 2010:1819-1827
4786 Tingting Chen, Sheng Zhong: INPAC: An Enforceable Incentive Scheme for Wireless Networks using Network Coding. INFOCOM 2010:1828-1836
4785 Kai Zeng, Daniel Wu, An (Jack) Chan, Prasant Mohapatra: Exploiting Multiple-Antenna Diversity for Shared Secret Key Generation in Wireless Networks. INFOCOM 2010:1837-1845
4784 Yang Ji, Seung-Woo Seo: Optimizing the Batch Mode of Group Rekeying: Lower Bound and New Protocols. INFOCOM 2010:1846-1854
4783 Maryam Daneshi, Jianping Pan, Sudhakar Ganti: Towards an Efficient Reservation Algorithm for Distributed Reservation Protocols. INFOCOM 2010:1855-1863
4782 Ron Banner, Ariel Orda: Designing Low-Capacity Backup Networks for Fast Restoration. INFOCOM 2010:1864-1872
4781 John R. Lange, J. Scott Miller, Peter A. Dinda: EmNet: Satisfying The Individual User Through Empathic Home Networks. INFOCOM 2010:1873-1881
4780 Yi Xu, Wenye Wang: Characterizing the Spread of Correlated Failures in Large Wireless Networks. INFOCOM 2010:1882-1890
4779 Bin Tong, Zi Li, Guiling Wang, Wensheng Zhang: Towards Reliable Scheduling Schemes for Long-lived Replaceable Sensor Networks. INFOCOM 2010:1891-1899
4778 Saikat Guha, Chi-Kin Chau, Prithwish Basu: Green Wave: Latency and Capacity-Efficient Sleep Scheduling for Wireless Networks. INFOCOM 2010:1900-1908
4777 Praveen Jayachandran, Matthew Andrews: Minimizing End-to-End Delay in Wireless Networks Using a Coordinated EDF Schedule. INFOCOM 2010:1909-1917
4776 Zhe Yang, Lin Cai, Wu-sheng Lu: Practical Scheduling Algorithms for Concurrent Transmissions in Rate-adaptive Wireless Networks. INFOCOM 2010:1918-1926
4775 Amir Hamed Mohsenian Rad, Jianwei Huang, Vincent W. S. Wong, Robert Schober: Bargaining and Price-of-Anarchy in Repeated Inter-Session Network Coding Games. INFOCOM 2010:1927-1935
4774 Vinith Reddy, Srinivas Shakkottai, Alexander Sprintson, Natarajan Gautam: Multipath Wireless Network Coding: A Population Game Perspective. INFOCOM 2010:1936-1944
4773 Fangwen Fu, Ulas C. Kozat: Wireless Network Virtualization as A Sequential Auction Game. INFOCOM 2010:1945-1953
4772 Ozan Candogan, Ishai Menache, Asuman E. Ozdaglar, Pablo A. Parrilo: Near-Optimal Power Control in Wireless Networks: A Potential Game Approach. INFOCOM 2010:1954-1962
4771 Hui Zang, François Baccelli, Jean Bolot: Bayesian Inference for Localization in Cellular Networks. INFOCOM 2010:1963-1971
4770 Lirong Jian, Zheng Yang, Yunhao Liu: Beyond Triangle Inequality: Sifting Noisy and Outlier Distance Measurements for Localization. INFOCOM 2010:1972-1980
4769 A. K. M. Mahtab Hossain, Wee-Seng Soh: Cramer-Rao Bound Analysis of Localization Using Signal Strength Difference as Location Fingerprint. INFOCOM 2010:1981-1989
4768 Sushant Sharma, Yi Shi, Jia Liu, Y. Thomas Hou, Sastry Kompella: Is Network Coding Always Good for Cooperative Communications? INFOCOM 2010:1990-1998
4767 Qijia Liu, Wei Zhang, Xiaoli Ma: Practical and General Amplify-and-Forward Designs for Cooperative Networks. INFOCOM 2010:1999-2007
4766 Chengzhi Li, Huaiyu Dai: Towards Efficient Designs for In-network Computing with Noisy Wireless Channels. INFOCOM 2010:2008-2015
4765 Sushant Sharma, Yi Shi, Y. Thomas Hou, Hanif D. Sherali, Sastry Kompella: Cooperative Communications in Multi-hop Wireless Networks: Joint Flow Routing and Relay Node Assignment. INFOCOM 2010:2016-2024
4764 Shahab Oveis Gharan, Shervan Fashandi, Amir K. Khandani: Diversity-Rate Trade-off in Erasure Networks. INFOCOM 2010:2025-2033
4763 Long Bao Le, Eytan Modiano, Ness B. Shroff: Optimal Control of Wireless Networks with Finite Buffers. INFOCOM 2010:2034-2042
4762 Andre Berger, James Gross, Tobias Harks: The k-Constrained Bipartite Matching Problem: Approximation Algorithms and Applications to Wireless Networks. INFOCOM 2010:2043-2051
4761 Bozidar Radunovic, Prasanna Chaporkar, Alexandre Proutiere: Rate Adaptation Games in Wireless LANs: Nash Equilibrium and Price of Anarchy. INFOCOM 2010:2052-2060
4760 Yan Yang, Alix L. H. Chow, Leana Golubchik, Danielle Bragg: Improving QoS in BitTorrent-like VoD Systems. INFOCOM 2010:2061-2069
4759 Zimu Liu, Chuan Wu, Baochun Li, Shuqiao Zhao: UUSee: Large-Scale Operational On-Demand Streaming with Random Network Coding. INFOCOM 2010:2070-2078
4758 Jianping Wang, Chunming Qiao, Yan Li, Kejie Lu: Minimizing the Worst-Case Playback Delay in VoD Services over Passive Optical Networks. INFOCOM 2010:2079-2087
4757 Anh Tuan Nguyen, Baochun Li, Frank Eliassen: Chameleon: Adaptive Peer-to-Peer Streaming with Network Coding. INFOCOM 2010:2088-2096
4756 Changlei Liu, Guohong Cao: Distributed Monitoring and Aggregation in Wireless Sensor Networks. INFOCOM 2010:2097-2105
4755 Pu Wang, Rui Dai, Ian F. Akyildiz: Collaborative Data Compression Using Clustered Source Coding for Wireless Multimedia Sensor Networks. INFOCOM 2010:2106-2114
4754 Jian Li, Amol Deshpande, Samir Khuller: On Computing Compression Trees for Data Collection in Wireless Sensor Networks. INFOCOM 2010:2115-2123
4753 Rui Tan, Guoliang Xing, Xue Liu, Jianguo Yao, Zhaohui Yuan: Adaptive Calibration for Fusion-based Wireless Sensor Networks. INFOCOM 2010:2124-2132
4752 Yao Hua, Qian Zhang, Zhisheng Niu: Resource Allocation in Multi-cell OFDMA-based Relay Networks. INFOCOM 2010:2133-2141
4751 Joshua Robinson, Mohit Singh, Ram Swaminathan, Edward W. Knightly: Deploying Mesh Nodes under Non-Uniform Propagation. INFOCOM 2010:2142-2150
4750 Eugene Chai, Kang G. Shin: M-Polar: Channel Allocation for Throughput Maximization in SDR Mesh Networks. INFOCOM 2010:2151-2159
4749 Claudio Cicconetti, Luciano Lenzini, Andrea Lodi, Silvano Martello, Enzo Mingozzi, Michele Monaci: Efficient Two-dimensional Data Allocation in IEEE 80216 OFDMA. INFOCOM 2010:2160-2168
4748 Lu Cheng, Xuesong Qiu, Luoming Meng, Yan Qiao, Raouf Boutaba: Efficient Active Probing for Fault Diagnosis in Large Scale and Noisy Networks. INFOCOM 2010:2169-2177
4747 Weiyi Zhang, Jian Tang, Chonggang Wang, Shanaka de Soysa: Reliable Adaptive Multipath Provisioning with Bandwidth and Differential Delay Constraints. INFOCOM 2010:2178-2186
4746 Giuseppe Bianchi, Elisa Boschi, Simone Teofili, Brian Trammell: Measurement Data Reduction through Variation Rate Metering. INFOCOM 2010:2187-2195
4745 Myungjin Lee, Nick G. Duffield, Ramana Rao Kompella: Two Samples are Enough: Opportunistic Flow-level Latency Estimation using NetFlow. INFOCOM 2010:2196-2204
4744 Peng-Jun Wan, Zhu Wang, Hongwei Du, Scott C.-H. Huang, Zhiyuan Wan: First-Fit Scheduling for Beaconing in Multihop Wireless Networks. INFOCOM 2010:2205-2212
4743 Berk Birand, Maria Chudnovsky, Bernard Ries, Paul D. Seymour, Gil Zussman, Yori Zwols: Analyzing the Performance of Greedy Maximal Scheduling via Local Pooling and Graph Theory. INFOCOM 2010:2213-2221
4742 Shreeshankar Bodas, Sanjay Shakkottai, Lei Ying, R. Srikant: Low-complexity Scheduling Algorithms for Multi-channel Downlink Wireless Networks. INFOCOM 2010:2222-2230
4741 Juan José Jaramillo, R. Srikant: Optimal Scheduling for Fair Resource Allocation in Ad Hoc Networks with Elastic and Inelastic Traffic. INFOCOM 2010:2231-2239
4740 Jin Wang, Jianping Wang, Kejie Lu, Bin Xiao, Naijie Gu: Optimal Linear Network Coding Design for Secure Unicast with Multiple Streams. INFOCOM 2010:2240-2248
4739 Peng Zhang, Yixin Jiang, Chuang Lin, Yanfei Fan, Xuemin Shen: P-Coding: Secure Network Coding against Eavesdropping Attacks. INFOCOM 2010:2249-2257
4738 Yaping Li, Hongyi Yao, Minghua Chen, Sidharth Jaggi, Alon Rosen: RIPPLE Authentication for Network Coding. INFOCOM 2010:2258-2266
4737 Guanfeng Liang, Rachit Agarwal, Nitin H. Vaidya: When Watchdog Meets Coding. INFOCOM 2010:2267-2275
4736 Roman Chertov, Daniel M. Havey, Kevin C. Almeroth: MSET: A Mobility Satellite Emulation Testbed. INFOCOM 2010:2276-2284
4735 Xi Deng, Yuanyuan Yang, Sangjin Hong: A Flexible Platform for Hardware-Aware Network Experiments and a Case Study on Wireless Network Coding. INFOCOM 2010:2285-2293
4734 Frédéric Morlot, Salah-Eddine Elayoubi, François Baccelli: An Interaction-Based Mobility Model for Dynamic Hot Spot Analysis. INFOCOM 2010:2294-2302
4733 Roberto Di Pietro, Gabriele Oligeri, Claudio Soriente, Gene Tsudik: Intrusion-Resilience in Mobile Unattended WSNs. INFOCOM 2010:2303-2311
4732 Zhisu Zhu, Anthony Man-Cho So, Yinyu Ye: Universal Rigidity: Towards Accurate and Efficient Localization of Wireless Networks. INFOCOM 2010:2312-2320
4731 Ionut Constandache, Romit Roy Choudhury, Injong Rhee: Towards Mobile Phone Localization without War-Driving. INFOCOM 2010:2321-2329
4730 Deokwoo Jung, Thiago Teixeira, Andreas Savvides: Towards Cooperative Localization of Wearable Sensors using Accelerometers and Cameras. INFOCOM 2010:2330-2338
4729 Zheng Yang, Yunhao Liu: Understanding Node Localizability of Wireless Ad-hoc Networks. INFOCOM 2010:2339-2347
4728 Jia Liu, Yi Shi, Y. Thomas Hou: A Tractable and Accurate Cross-Layer Model for Multi-Hop MIMO Networks. INFOCOM 2010:2348-2356
4727 Ece Gelal, Konstantinos Pelechrinis, Tae-Suk Kim, Ioannis Broustis, Srikanth V. Krishnamurthy, Bhaskar Rao: Topology Control for Effective Interference Cancellation in Multi-User MIMO Networks. INFOCOM 2010:2357-2365
4726 Wei Dong, Xue Liu, Chun Chen, Yuan He, Gong Chen, Yunhao Liu, Jiajun Bu: DPLC: Dynamic Packet Length Control in Wireless Sensor Networks. INFOCOM 2010:2366-2374
4725 Ramin Khalili, Dennis Goeckel, Donald F. Towsley, Ananthram Swami: Neighbor Discovery with Reception Status Feedback to Transmitters. INFOCOM 2010:2375-2383
4724 Amir Hamed Mohsenian Rad, Vincent W. S. Wong, Robert Schober: Optimal SINR-based Random Access. INFOCOM 2010:2384-2392
4723 Aman Jain, Sanjeev R. Kulkarni, Sergio Verdú: Minimum Energy per Bit for Wideband Wireless Multicasting: Performance of Decode-and-Forward. INFOCOM 2010:2393-2401
4722 Niv Buchbinder, Liane Lewin-Eytan, Ishai Menache, Joseph Naor, Ariel Orda: Dynamic Power Allocation Under Arbitrary Varying Channels - The Multi-User Case. INFOCOM 2010:2402-2410
4721 A. Karim Abu-Affash, Rom Aschner, Paz Carmi, Matthew J. Katz: Minimum Power Energy Spanners in Wireless Ad Hoc Networks. INFOCOM 2010:2411-2416
4720 Holger Boche, Siddharth Naik, Tansu Alpcan: Characterization of Non-Manipulable and Pareto Optimal Resource Allocation Strategies for Interference Coupled Wireless Systems. INFOCOM 2010:2417-2425
4719 I-Hong Hou, P. R. Kumar: Utility Maximization for Delay Constrained QoS in Wireless. INFOCOM 2010:2426-2434
4718 Matthew Andrews, Antonio Fernández, Lisa Zhang, Wenbo Zhao: Routing for Energy Minimization in the Speed Scaling Model. INFOCOM 2010:2435-2443
4717 Pan Li, Yuguang Fang: The Capacity of Heterogeneous Wireless Networks. INFOCOM 2010:2444-2452
4716 Yanyan Zhuang, Jianping Pan, Lin Cai: Minimizing Energy Consumption with Probabilistic Distance Models in Wireless Sensor Networks. INFOCOM 2010:2453-2461
4715 Guanqun Yang, Daji Qiao: Multi-Round Sensor Deployment for Guaranteed Barrier Coverage. INFOCOM 2010:2462-2470
4714 Xing Xu, Ji Luo, Qian Zhang: Delay Tolerant Event Collection in Sensor Networks with Mobile Sink. INFOCOM 2010:2471-2479
4713 Xiaole Bai, Ziqiu Yun, Dong Xuan, Weijia Jia, Wei Zhao: Pattern Mutation in Wireless Sensor Deployment. INFOCOM 2010:2480-2488
4712 Zhengye Liu, Hao Hu, Yong Liu, Keith W. Ross, Yao Wang, Markus Mobius: P2P Trading in Social Networks: The Value of Staying Connected. INFOCOM 2010:2489-2497
4711 Minas Gjoka, Maciej Kurant, Carter T. Butts, Athina Markopoulou: Walking in Facebook: A Case Study of Unbiased Sampling of OSNs. INFOCOM 2010:2498-2506
4710 Stratis Ioannidis, Laurent Massoulié: Surfing the Blogosphere: Optimal Personalized Strategies for Searching the Web. INFOCOM 2010:2507-2515
4709 Jinyuan Sun, Xiaoyan Zhu, Yuguang Fang: A Privacy-Preserving Scheme for Online Social Networks with Efficient Revocation. INFOCOM 2010:2516-2524
4708 Di Niu, Baochun Li: Topological Properties Affect the Power of Network Coding in Decentralized Broadcast. INFOCOM 2010:2525-2533
4707 Wei Pu, Hao Cui, Chong Luo, Feng Wu, Chang Wen Chen: Stable Maximum Throughput Broadcast in Wireless Fading Channels. INFOCOM 2010:2534-2542
4706 Weiyao Xiao, Sachin Agarwal, David Starobinski, Ari Trachtenberg: Reliable Wireless Broadcasting with Near-Zero Feedback. INFOCOM 2010:2543-2551
4705 Nikolaos Fountoulakis, Anna Huber, Konstantinos Panagiotou: Reliable Broadcasting in Random Networks and the Effect of Density. INFOCOM 2010:2552-2560
4704 N. Prasanth Anthapadmanabhan, Armand M. Makowski: On the Absence of Isolated Nodes in Wireless Ad-Hoc Networks with Unreliable Links - a Curious Gap. INFOCOM 2010:2561-2569
4703 Bartlomiej Blaszczyszyn, Paul Mühlethaler: Stochastic Analysis of Non-Slotted Aloha in Wireless Ad-Hoc Networks. INFOCOM 2010:2570-2578
4702 Cem Boyaci, Bo Li, Ye Xia: An Investigation on the Nature of Wireless Scheduling. INFOCOM 2010:2579-2587
4701 Liqun Fu, Soung Chang Liew, Jianwei Huang: Effective Carrier Sensing in CSMA Networks under Cumulative Interference. INFOCOM 2010:2588-2596
4700 Hongkun Yang, Fengyuan Ren, Chuang Lin, Jiao Zhang: Frequency-Domain Packet Scheduling for 3GPP LTE Uplink. INFOCOM 2010:2597-2605
4699 I-Hong Hou, P. R. Kumar: Scheduling Heterogeneous Real-Time Traffic over Fading Wireless Channels. INFOCOM 2010:2606-2614
4698 Veeraruna Kavitha, Eitan Altman, Rachid El Azouzi, Rajesh Sundaresan: Fair Scheduling in Cellular Systems in the Presence of Noncooperative Mobiles. INFOCOM 2010:2615-2623
4697 Yang Song, Chi Zhang, Yuguang Fang, Zhisheng Niu: Energy-Conserving Scheduling in Multi-hop Wireless Networks with Time-Varying Channels. INFOCOM 2010:2624-2632
4696 Rui Zhang, Yanchao Zhang: Wormhole-Resilient Secure Neighbor Discovery in Underwater Acoustic Networks. INFOCOM 2010:2633-2641
4695 Fei Chen, Alex X. Liu: SafeQ: Secure and Efficient Query Processing in Sensor Networks. INFOCOM 2010:2642-2650
4694 Ming Li, Shucheng Yu, Wenjing Lou, Kui Ren: Group Device Pairing based Secure Sensor Association and Key Management for Body Area Networks. INFOCOM 2010:2651-2659
4693 Yun Li, Jian Ren: Source-Location Privacy through Dynamic Routing in Wireless Sensor Networks. INFOCOM 2010:2660-2668
4692 Michael J. Neely: Delay-Based Network Utility Maximization. INFOCOM 2010:2669-2677
4691 Thang N. Dinh, Ying Xuan, My T. Thai, E. K. Park, Taieb Znati: On Approximation of New Optimization Methods for Assessing Network Vulnerability. INFOCOM 2010:2678-2686
4690 Ching-Ming Lien, Cheng-Shang Chang, Jay Cheng, Duan-Shin Lee, Jou-Ting Liao: Twister Networks and Their Applications to Load-Balanced Switches. INFOCOM 2010:2687-2695
4689 Hung Q. Ngo, Atri Rudra, Anh N. Le, Thanh-Nhan Nguyen: Analyzing Nonblocking Switching Networks using Linear Programming (Duality). INFOCOM 2010:2696-2704
4688 Miklós Reiter, Richard Steinberg: Forward Contracts for Complementary Segments of a Communication Network. INFOCOM 2010:2705-2713
4687 Tricha Anjali, Gruia Calinescu, Alexander Fortin, Sanjiv Kapoor, Nandakiran Kirubanandan, Sutep Tongngam: Multipath Network Flows: Bounded Buffers and Jitter. INFOCOM 2010:2714-2720
4686 Javad Lavaei, John C. Doyle, Steven H. Low: Utility Functionals Associated With Available Congestion Control Algorithms. INFOCOM 2010:2721-2729
4685 Parimal Parag, Srinivas Shakkottai, Jean-François Chamberland: Value-aware Resource Allocation for Service Guarantees in Networks. INFOCOM 2010:2730-2738
4684 Donghyun Kim, Wei Wang, Xianyue Li, Zhao Zhang, Weili Wu: A New Constant Factor Approximation for Computing 3-Connected m-Dominating Sets in Homogeneous Wireless Networks. INFOCOM 2010:2739-2747
4683 Chi Yi, Wenye Wang: On the Connectivity Analysis over Large-Scale Hybrid Wireless Networks. INFOCOM 2010:2748-2756
4682 In Keun Son, Shiwen Mao: Design and Optimization of a Tiered Wireless Access Network. INFOCOM 2010:2757-2765
4681 Weiyi Zhao, Jiang Xie: A Novel Xcast-based Caching Architecture for Inter-gateway Handoffs in Infrastructure Wireless Mesh Networks. INFOCOM 2010:2766-2774
4680 Yanhua Li, Zhi-Li Zhang: Random Walks on Digraphs: A Theoretical Framework for Estimating Transmission Costs in Wireless Routing. INFOCOM 2010:2775-2783
4679 Shan Chu, Xin Wang: MIMO-Aware Routing in Wireless Mesh Networks. INFOCOM 2010:2784-2792
4678 Stanislav Miskovic, Edward W. Knightly: Routing Primitives for Wireless Mesh Networks: Design, Analysis and Experiments. INFOCOM 2010:2793-2801
4677 Chansu Yu, Tianning Shen, Kang G. Shin, Jeong-Yoon Lee, Young-Joo Suh: Multihop Transmission Opportunity in Wireless Multihop Networks. INFOCOM 2010:2802-2810
4676 Feng Li, Yinying Yang, Jie Wu: CPMC: An Efficient Proximity Malware Coping Scheme in Smartphone-based Mobile Networks. INFOCOM 2010:2811-2819
4675 Fengjun Li, Bo Luo, Peng Liu, Chao-Hsien Chu: A Node-failure-resilient Anonymous Communication Protocol through Commutative Path Hopping. INFOCOM 2010:2820-2828
4674 Wojciech Galuba, Panos Papadimitratos, Marcin Poturalski, Karl Aberer, Zoran Despotovic, Wolfgang Kellerer: Castor: Scalable Secure Routing for Ad Hoc Networks. INFOCOM 2010:2829-2837
4673 Chi Zhang, Xiaoyan Zhu, Yang Song, Yuguang Fang: A Formal Study of Trust-Based Routing in Wireless Ad Hoc Networks. INFOCOM 2010:2838-2846
4672 V. J. Venkataramanan, Xiaojun Lin, Lei Ying, Sanjay Shakkottai: On Scheduling for Minimizing End-to-End Buffer Usage over Multihop Wireless Networks. INFOCOM 2010:2847-2855
4671 Arun Sridharan, Can Emre Koksal, Elif Uysal-Biyikoglu: A Greedy Link Scheduler for Wireless Networks with Gaussian Multiple Access and Broadcast Channels. INFOCOM 2010:2856-2864
4670 Dajun Qian, Dong Zheng, Junshan Zhang, Ness B. Shroff: CSMA-Based Distributed Scheduling in Multi-hop MIMO Networks under SINR Model. INFOCOM 2010:2865-2873
4669 Sheu-Sheu Tan, Dong Zheng, Junshan Zhang, James R. Zeidler: Distributed Opportunistic Scheduling for Ad-Hoc Communications Under Delay Constraints. INFOCOM 2010:2874-2882
4668 Shihuan Liu, Lei Ying, R. Srikant: Throughput-Optimal Opportunistic Scheduling in the Presence of Flow-Level Dynamics. INFOCOM 2010:2883-2891
4667 Jun Li, Shuang Yang, Xin Wang, Baochun Li: Tree-structured Data Regeneration in Distributed Storage Systems with Regenerating Codes. INFOCOM 2010:2892-2900
4666 Jilong Kuang, Laxmi N. Bhuyan: Optimizing Throughput and Latency under Given Power Budget for Network Packet Processing. INFOCOM 2010:2901-2909
4665 Bo Zhang, T. S. Eugene Ng: On Constructing Efficient Shared Decision Trees for Multiple Packet Filters. INFOCOM 2010:2910-2918
4664 Dimitrios Koutsonikolas, Chih-Chun Wang, Y. Charlie Hu: CCACK: Efficient Network Coding Based Opportunistic Routing Through Cumulative Coded Acknowledgments. INFOCOM 2010:2919-2927
4663 Jieun Yu, Heejun Roh, Wonjun Lee, Sangheon Pack, Ding-Zhu Du: Cooperative Bridges: Topology Control in Cooperative Wireless Ad Hoc Networks. INFOCOM 2010:2928-2936
4662 Tae-Suk Kim, Serdar Vural, Ioannis Broustis, Dimitris Syrivelis, Srikanth V. Krishnamurthy, Thomas F. La Porta: A Framework for Joint Network Coding and Transmission Rate Control in Wireless Networks. INFOCOM 2010:2937-2945
4661 Sofiane Hassayoun, Patrick Maillé, David Ros: On the Impact of Random Losses on TCP Performance in Coded Wireless Mesh Networks. INFOCOM 2010:2946-2954
4660 Raed T. Al-Zubi, Marwan Krunz: Overhearing-aware Joint Routing and Rate Selection in Multi-hop Multi-rate UWB-based WPANs. INFOCOM 2010:2955-2963
4659 Rolando Menchaca-Mendez, J. J. Garcia-Luna-Aceves: Robust and Scalable Integrated Routing in MANETs Using Context-Aware Ordered Meshes. INFOCOM 2010:2964-2972
4658 Fragkiskos Papadopoulos, Dmitri V. Krioukov, Marián Boguñá, Amin Vahdat: Greedy Forwarding in Dynamic Scale-Free Networks Embedded in Hyperbolic Metric Spaces. INFOCOM 2010:2973-2981
4657 François Baccelli, Bartlomiej Blaszczyszyn: A New Phase Transitions for Local Delays in MANETs. INFOCOM 2010:2982-2990
4656 : INFOCOM 2009. 28th IEEE International Conference on Computer Communications, Joint Conference of the IEEE Computer and Communications Societies, 19-25 April 2009, Rio de Janeiro, Brazil INFOCOM 2009
4655 Vishnu Vardhan Reddy Konda, Jasleen Kaur: RAPID: Shrinking the Congestion-Control Timescale. INFOCOM 2009:1-9
4654 Ihsan Ayyub Qazi, Taieb Znati, Lachlan L. H. Andrew: Congestion Control using Efficient Explicit Feedback. INFOCOM 2009:10-18
4653 François Baccelli, Giovanna Carofiglio, Marta Piancino: Stochastic Analysis of Scalable TCP. INFOCOM 2009:19-27
4652 Thomas Bonald, Mathieu Feuillet, Alexandre Proutiére: Is the ''Law of the Jungle'' Sustainable for the Internet? INFOCOM 2009:28-36
4651 Rafael P. Laufer, Henri Dubois-Ferrière, Leonard Kleinrock: Multirate Anypath Routing in Wireless Mesh Networks. INFOCOM 2009:37-45
4650 Hongkun Li, Yu Cheng, Chi Zhou, Weihua Zhuang: Minimizing End-to-End Delay: A Novel Routing Metric for Multi-Radio Wireless Mesh Networks. INFOCOM 2009:46-54
4649 Simon Heimlicher, Merkourios Karaliopoulos, Hanoch Levy, Thrasyvoulos Spyropoulos: On Leveraging Partial Paths in Partially-Connected Networks. INFOCOM 2009:55-63
4648 Yujun Li, Yaling Yang, Xianliang Lu: Routing Metric Designs for Greedy, Face and Combined-Greedy-Face Routing. INFOCOM 2009:64-72
4647 Di Wu, Yong Liu, Keith W. Ross: Queuing Network Models for Multi-Channel P2P Live Streaming Systems. INFOCOM 2009:73-81
4646 Zimu Liu, Chuan Wu, Baochun Li, Shuqiao Zhao: Distilling Superior Peers in Large-Scale P2P Streaming Systems. INFOCOM 2009:82-90
4645 Vijay Gopalakrishnan, Samrat Bhattacharjee, K. K. Ramakrishnan, Rittwik Jana, Divesh Srivastava: CPM: Adaptive Video-on-Demand with Cooperative Peer Assists and Multicast. INFOCOM 2009:91-99
4644 Eugenio Alessandria, Massimo Gallo, Emilio Leonardi, Marco Mellia, Michela Meo: P2P-TV Systems under Adverse Network Conditions: A Measurement Study. INFOCOM 2009:100-108
4643 Ming-Chen Zhao, Jiayin Lei, Min-You Wu, Yunhuai Liu, Wei Shu: Surface Coverage in Wireless Sensor Networks. INFOCOM 2009:109-117
4642 Ji Luo, Dan Wang, Qian Zhang: Double Mobility: Coverage of the Sea Surface with Mobile Sensor Networks. INFOCOM 2009:118-126
4641 Anwar Saipulla, Cédric Westphal, Benyuan Liu, Jie Wang: Barrier Coverage of Line-Based Deployed Wireless Sensor Networks. INFOCOM 2009:127-135
4640 Paul Balister, Zizhan Zheng, Santosh Kumar, Prasun Sinha: Trap Coverage: Allowing Coverage Holes of Bounded Diameter in Wireless Sensor Networks. INFOCOM 2009:136-144
4639 Niv Buchbinder, Liane Lewin-Eytan, Ishai Menache, Joseph Naor, Ariel Orda: Dynamic Power Allocation Under Arbitrary Varying Channels - An Online Approach. INFOCOM 2009:145-153
4638 Jeremy Gummeson, Deepak Ganesan, Mark D. Corner, Prashant J. Shenoy: An Adaptive Link Layer for Range Diversity in Multi-Radio Mobile Sensor Networks. INFOCOM 2009:154-162
4637 Hanan Shpungin, Michael Segal: Near Optimal Multicriteria Spanner Constructions in Wireless Ad-Hoc Networks. INFOCOM 2009:163-171
4636 Liping (Mani) Qian, Ying Jun: Monotonic Optimization for Non-Concave Power Control in Multiuser Multicarrier Network Systems. INFOCOM 2009:172-180
4635 Jin Zhang, Qian Zhang: Cooperative Network Coding-Aware Routing for Multi-Rate Wireless Networks. INFOCOM 2009:181-189
4634 Wai-Leong Yeow, Anh Tuan Hoang, Chen-Khong Tham: Minimizing Delay for Multicast-Streaming in Wireless Networks with Network Coding. INFOCOM 2009:190-198
4633 Chi Zhang, Yuguang Fang, Xiaoyan Zhu: Throughput-Delay Tradeoffs in Large-Scale MANETs with Network Coding. INFOCOM 2009:199-207
4632 João Barros, Rui A. Costa, Daniele Munaretto, Jörg Widmer: Effective Delay Control in Online Network Coding. INFOCOM 2009:208-216
4631 Hongzi Zhu, Yuanchen Zhu, Multicast Li, Lionel M. Ni: SEER: Metropolitan-Scale Traffic Perception Based on Lossy Sensory Data. INFOCOM 2009:217-225
4630 Farzad Farnoud, Shahrokh Valaee: Reliable Broadcast of Safety Messages in Vehicular Ad Hoc Networks. INFOCOM 2009:226-234
4629 Marco Fiore, Francesco Mininni, Claudio Casetti, Carla-Fabiana Chiasserini: To Cache or Not To Cache? INFOCOM 2009:235-243
4628 Philippe Jacquet, Bernard Mans, Georgios Rodolakis: Information Propagation Speed in Mobile and Delay Tolerant Networks. INFOCOM 2009:244-252
4627 Ruogu Li, Lei Ying, Atilla Eryilmaz, Ness B. Shroff: A Unified Approach to Optimizing Performance in Networks Serving Heterogeneous Flows. INFOCOM 2009:253-261
4626 Ajit Warrier, Sankararaman Janakiraman, Sangtae Ha, Injong Rhee: DiffQ: Practical Differential Backlog Congestion Control for Wireless Networks. INFOCOM 2009:262-270
4625 Krishna Prasanna Jagannathan, Eytan Modiano, Lizhong Zheng: On the Trade-Off Between Control Rate and Congestion in Single Server Systems. INFOCOM 2009:271-279
4624 Jay Kumar Sundararajan, Devavrat Shah, Muriel Médard, Michael Mitzenmacher, João Barros: Network Coding Meets TCP. INFOCOM 2009:280-288
4623 Saqib Raza, Yuanchen Zhu, Chen-Nee Chuah: Graceful Network Operations. INFOCOM 2009:289-297
4622 Yasuhiro Ohara, Shinji Imahori, Rodney Van Meter: MARA: Maximum Alternative Routing Algorithm. INFOCOM 2009:298-306
4621 Feng Wang, Lixin Gao: Path Diversity Aware Interdomain Routing. INFOCOM 2009:307-315
4620 Simon Balon, Guy Leduc: BGP-Aware IGP Link Weight Optimization in Presence of Route Reflectors. INFOCOM 2009:316-324
4619 Ben Q. Zhao, John C. S. Lui, Dah-Ming Chiu: Analysis of Adaptive Incentive Protocols for P2P Networks. INFOCOM 2009:325-333
4618 Xinyu Zhang, Baochun Li: On the Market Power of Network Coding in P2P Content Distribution Systems. INFOCOM 2009:334-342
4617 Raul Landa, David Griffin, Richard G. Clegg, Eleni Mykoniati, Miguel Rio: A Sybilproof Indirect Reciprocity Mechanism for Peer-to-Peer Networks. INFOCOM 2009:343-351
4616 Yi Hu, Min Feng, Laxmi N. Bhuyan, Vana Kalogeraki: Budget-Based Self-Optimized Incentive Search in Unstructured P2P Networks. INFOCOM 2009:352-360
4615 Xiaoyu Chu, Harish Sethu: A New Distributed Algorithm for Even Coverage and Improved Lifetime in a Sensor Network. INFOCOM 2009:361-369
4614 Maleq Khan, V. S. Anil Kumar, Madhav V. Marathe, Gopal Pandurangan, S. S. Ravi: Bi-Criteria Approximation Algorithms for Power-Efficient and Low-Interference Topology Control in Unreliable Ad Hoc Networks. INFOCOM 2009:370-378
4613 Matthew P. Johnson, Deniz Sariöz, Amotz Bar-Noy, Theodore Brown, Dinesh C. Verma, Chai Wah Wu: More is More: The Benefits of Denser Sensor Deployment. INFOCOM 2009:379-387
4612 Xiaole Bai, Chuanlin Zhang, Dong Xuan, Weijia Jia: Full-Coverage and k-Connectivity (k=14, 6) Three Dimensional Networks. INFOCOM 2009:388-396
4611 Anat Bremler-Barr, Yaron Koral: Accelerating Multi-Patterns Matching on Compressed HTTP Traffic. INFOCOM 2009:397-405
4610 Zhen Yu, Yawen Wei, Bhuvaneswari Ramkumar, Yong Guan: An Efficient Scheme for Securing XOR Network Coding against Pollution Attacks. INFOCOM 2009:406-414
4609 Nan Hua, Haoyu Song, T. V. Lakshman: Variable-Stride Multi-Pattern Matching For Scalable Deep Packet Inspection. INFOCOM 2009:415-423
4608 Nick G. Duffield, Patrick Haffner, Balachander Krishnamurthy, Haakon Ringberg: Rule-Based Anomaly Detection on IP Flows. INFOCOM 2009:424-432
4607 Yoojin Choi, Petar Momcilovic: On Effectiveness of Application-Layer Coding. INFOCOM 2009:433-441
4606 Sorina Dumitrescu, Mingkai Shao, Xiaolin Wu: Layered Multicast with Inter-Layer Network Coding. INFOCOM 2009:442-449
4605 Minkyu Kim, Muriel Médard, Una-May O'Reilly, Danail Traskov: An Evolutionary Approach To Inter-Session Network Coding. INFOCOM 2009:450-458
4604 Hassan Shojania, Baochun Li, Xin Wang: Nuclei: GPU-Accelerated Many-Core Network Coding. INFOCOM 2009:459-467
4603 Feng Wang, Jiangchuan Liu: Duty-Cycle-Aware Broadcast in Wireless Sensor Networks. INFOCOM 2009:468-476
4602 Qinghe Du, Xi Zhang: Statistical QoS Provisionings for Wireless Unicast/Multicast of Layered Video Streams. INFOCOM 2009:477-485
4601 I-Hong Hou, Vivek S. Borkar, P. R. Kumar: A Theory of QoS for Wireless. INFOCOM 2009:486-494
4600 Amin Farbod, Ben Liang: Structured Admission Control Policy in Heterogeneous Wireless Networks with Mesh Underlay. INFOCOM 2009:495-503
4599 MyungKeun Yoon, Tao Li, Shigang Chen, Jih-Kwon Peir: Fit a Spread Estimator in Small Memory. INFOCOM 2009:504-512
4598 Fang Hao, Murali S. Kodialam, T. V. Lakshman, Haoyu Song: Fast Multiset Membership Testing Using Combinatorial Bloom Filters. INFOCOM 2009:513-521
4597 Yi Lu, Balaji Prabhakar: Robust Counting Via Counter Braids: An Error-Resilient Network Measurement Architecture. INFOCOM 2009:522-530
4596 Yao Zhao, Zhaosheng Zhu, Yan Chen, Dan Pei, Jia Wang: Towards Efficient Large-Scale VPN Monitoring and Diagnosis under Operational Constraints. INFOCOM 2009:531-539
4595 Dominic DiPalantino, Ramesh Johari: Traffic Engineering vs Content Distribution: A Game Theoretic Perspective. INFOCOM 2009:540-548
4594 Rahul Sami, Michael Schapira, Aviv Zohar: Searching for Stability in Interdomain Routing. INFOCOM 2009:549-557
4593 Satyajayant Misra, Guoliang Xue, Dejun Yang: Polynomial Time Approximations for Multi-Path Routing with Bandwidth and Delay Constraints. INFOCOM 2009:558-566
4592 Anirban Majumder, Nisheeth Shrivastava, Rajeev Rastogi, Anand Srinivasan: Scalable Content-Based Routing in Pub/Sub Systems. INFOCOM 2009:567-575
4591 Stratis Ioannidis, Peter Marbach: Absence of Evidence as Evidence of Absence: A Simple Mechanism for Scalable P2P Search. INFOCOM 2009:576-584
4590 Alix L. H. Chow, Leana Golubchik, Vishal Misra: BitTorrent: An Extensible Heterogeneous Model. INFOCOM 2009:585-593
4589 G. Matthew Ezovski, Ao Tang, Lachlan L. H. Andrew: Minimizing Average Finish Time in P2P Networks. INFOCOM 2009:594-602
4588 Xin Xiao, Yuanchun Shi, Yuan Gao, Qian Zhang: LayerP2P: A New Data Scheduling Approach for Layered Streaming in Heterogeneous Networks. INFOCOM 2009:603-611
4587 Joohwan Kim, Xiaojun Lin, Ness B. Shroff: Optimal Anycast Technique for Delay-Sensitive Energy-Constrained Asynchronous Sensor Networks. INFOCOM 2009:612-620
4586 Mohammad Z. Siam, Marwan Krunz, Ossama Younis: Energy-Efficient Clustering/Routing for Cooperative MIMO Operation in Sensor Networks. INFOCOM 2009:621-629
4585 Junchao Ma, Wei Lou, Yanwei Wu, Xiang-Yang Li, Guihai Chen: Energy Efficient TDMA Sleep Scheduling in Wireless Sensor Networks. INFOCOM 2009:630-638
4584 Rajesh Krishna Panta, Saurabh Bagchi: Hermes: Fast and Energy Efficient Incremental Code Updates for Wireless Sensor Networks. INFOCOM 2009:639-647
4583 Yaxuan Qi, Lianghong Xu, Baohua Yang, Yibo Xue, Jun Li: Packet Classification Algorithms: From Theory to Practice. INFOCOM 2009:648-656
4582 Konstantinos Pelechrinis, Guanhua Yan, Stephan Eidenbenz, Srikanth V. Krishnamurthy: Detecting Selfish Exploitation of Carrier Sensing in 80211 Networks. INFOCOM 2009:657-665
4581 Jie Yang, Yingying Chen, Wade Trappe, Jay Cheng: Determining the Number of Attackers and Localizing Multiple Adversaries in Wireless Spoofing Attacks. INFOCOM 2009:666-674
4580 Song Liu, Yingying Chen, Wade Trappe, Larry J. Greenstein: ALDO: An Anomaly Detection Framework for Dynamic Spectrum Access Networks. INFOCOM 2009:675-683
4579 Daniel Nechay, Yvan Pointurier, Mark Coates: Controlling False Alarm/Discovery Rates in Online Internet Traffic Flow Classification. INFOCOM 2009:684-692
4578 David R. Choffnes, Fabian E. Bustamante: On the Effectiveness of Measurement Reuse for Performance-Based Detouring. INFOCOM 2009:693-701
4577 Kuan-Ta Chen, Cheng-Chun Tu, Wei-Cheng Xiao: OneClick: A Framework for Measuring Network Quality of Experience. INFOCOM 2009:702-710
4576 Pierre Borgnat, Guillaume Dewaele, Kensuke Fukuda, Patrice Abry, Kenjiro Cho: Seven Years and One Day: Sketching the Evolution of Internet Traffic. INFOCOM 2009:711-719
4575 Duan-Shin Lee, Kai-Jie Hsu, Cheng-Shang Chang, Jay Cheng: Emulation and Approximation of a Flexible Delay Line by Parallel Non-Overtaking Delay Lines. INFOCOM 2009:720-728
4574 Josef Kanizo, David Hay, Isaac Keslassy: The Crosspoint-Queued Switch. INFOCOM 2009:729-737
4573 Cheng-Shang Chang, Jay Cheng, Duan-Shin Lee: SDL Constructions of FIFO, LIFO and Absolute Contractors. INFOCOM 2009:738-746
4572 Cheng-Shang Chang, Yu-Hao Hsu, Jay Cheng, Duan-Shin Lee: A Dynamic Frame Sizing Algorithm for CICQ Switches with 100% Throughput. INFOCOM 2009:747-755
4571 Weixiong Rao, Lei Chen, Ada Wai-Chee Fu, Hanhua Chen, Futai Zou: On Efficient Content Matching in Distributed Pub/Sub Systems. INFOCOM 2009:756-764
4570 Hitesh Ballani, Paul Francis: Fault Management Using the CONMan Abstraction. INFOCOM 2009:765-773
4569 Hung Q. Ngo, Thanh-Nhan Nguyen, Dahai Xu: Hardness and Approximation of the Survivable Multi-Level Fat Tree Problem. INFOCOM 2009:774-782
4568 N. M. Mosharaf Kabir Chowdhury, Muntasir Raihan Rahman, Raouf Boutaba: Virtual Network Embedding with Coordinated Node and Link Mapping. INFOCOM 2009:783-791
4567 Yuval Shavitt, Udi Weinsberg: Quantifying the Importance of Vantage Points Distribution in Internet Topology Measurements. INFOCOM 2009:792-800
4566 Brian Eriksson, Paul Barford, Robert D. Nowak: Estimating Hop Distance Between Arbitrary Host Pairs. INFOCOM 2009:801-809
4565 Jing Cao, Yu Jin, Aiyou Chen, Tian Bu, Zhi-Li Zhang: Identifying High Cardinality Internet Hosts. INFOCOM 2009:810-818
4564 Aiyou Chen, Li (Erran) Li, Jin Cao: Tracking Cardinality Distributions in Network Traffic. INFOCOM 2009:819-827
4563 Chi-Kin Chau, Prithwish Basu: Exact Analysis of Latency of Stateless Opportunistic Forwarding. INFOCOM 2009:828-836
4562 Josep M. Pujol, Alberto Lopez Toledo, Pablo Rodriguez: Fair Routing in Delay Tolerant Networks. INFOCOM 2009:837-845
4561 Samuel C. Nelson, Mehedi Bakht, Robin Kravets: Encounter-Based Routing in DTNs. INFOCOM 2009:846-854
4560 Kyunghan Lee, Seongik Hong, Seong Joon Kim, Injong Rhee, Song Chong: SLAW: A New Mobility Model for Human Walks. INFOCOM 2009:855-863
4559 Cameron Dale, Jiangchuan Liu: apt-p2p: A Peer-to-Peer Distribution System for Software Package Releases and Updates. INFOCOM 2009:864-872
4558 Ye Sun, Fangming Liu, Bo Li, Baochun Li, Xinyan Zhang: FS2You: Peer-Assisted Semi-Persistent Online Storage at a Large Scale. INFOCOM 2009:873-881
4557 Melih Onus, Andréa W. Richa: Minimum Maximum Degree Publish-Subscribe Overlay Network Design. INFOCOM 2009:882-890
4556 Chen Feng, Baochun Li, Bo Li: Understanding the Performance Gap Between Pull-Based Mesh Streaming Protocols and Fundamental Limits. INFOCOM 2009:891-899
4555 Sahin Cem Geyik, Boleslaw K. Szymanski: Event Recognition in Sensor Networks by Means of Grammatical Inference. INFOCOM 2009:900-908
4554 Rong Zheng, Amit Pendharkar: Obstacle Discovery in Distributed Active Sensor Networks. INFOCOM 2009:909-917
4553 Guanqun Yang, Daji Qiao: Barrier Information Coverage with Wireless Sensors. INFOCOM 2009:918-926
4552 Jaehoon Jeong, Yu Gu, Tian He, David Hung-Chang Du: VISA: Virtual Scanning Algorithm for Dynamic Protection of Road Networks. INFOCOM 2009:927-935
4551 Nalin Subramanian, Ka Yang, Wensheng Zhang, Daji Qiao: ElliPS: A Privacy Preserving Scheme for Sensor Data Storage and Query. INFOCOM 2009:936-944
4550 Jing Shi, Rui Zhang, Yanchao Zhang: Secure Range Queries in Tiered Sensor Networks. INFOCOM 2009:945-953
4549 Qian Wang, Kui Ren, Wenjing Lou, Yanchao Zhang: Dependable and Secure Sensor Data Storage with Dynamic Integrity Assurance. INFOCOM 2009:954-962
4548 Shucheng Yu, Kui Ren, Wenjing Lou: FDAC: Toward Fine-Grained Distributed Data Access Control in Wireless Sensor Networks. INFOCOM 2009:963-971
4547 Thomas Moscibroda, Stefan Schmid: On Mechanism Design without Payments for Throughput Maximization. INFOCOM 2009:972-980
4546 Yuan Wu, Danny H. K. Tsang: Distributed Power Allocation Algorithm for Spectrum Sharing Cognitive Radio Networks with QoS Guarantee. INFOCOM 2009:981-989
4545 Prashanth Hande, Mung Chiang, A. Robert Calderbank, Sundeep Rangan: Network Pricing and Rate Allocation with Content Provider Participation. INFOCOM 2009:990-998
4544 Xia Zhou, Haitao Zheng: TRUST: A General Framework for Truthful Double Spectrum Auctions. INFOCOM 2009:999-1007
4543 János Tapolcai, Bin Wu, Pin-Han Ho: On Monitoring and Failure Localization in Mesh All-Optical Networks. INFOCOM 2009:1008-1016
4542 Kyunghan Lee, Eytan Modiano: Cross-Layer Survivability in WDM-Based Networks. INFOCOM 2009:1017-1025
4541 Krishnaiyan Thulasiraman, Muhammad S. Javed, Guoliang Xue: Circuits/Cutsets Duality and a Unified Algorithmic Framework for Survivable Logical Topology Design in IP-over-WDM Optical Networks. INFOCOM 2009:1026-1034
4540 Hyang-Won Lee, Eytan Modiano: Diverse Routing in Networks with Probabilistic Failures. INFOCOM 2009:1035-1043
4539 Kamalika Chaudhuri, Constantinos Daskalakis, Robert D. Kleinberg, Henry Lin: Online Bipartite Perfect Matching With Augmentations. INFOCOM 2009:1044-1052
4538 Masato Uchida, Jim Kurose: An Information-Theoretic Characterization of Weighted alpha-Proportional Fairness. INFOCOM 2009:1053-1061
4537 Fei Li: Competitive Scheduling of Packets with Hard Deadlines in a Finite Capacity Queue. INFOCOM 2009:1062-1070
4536 Florin Ciucu, Jörg Liebeherr: A Case for Decomposition of FIFO Networks. INFOCOM 2009:1071-1079
4535 Malik Ahmad Yar Khan, Darryl Veitch: Isolating Physical PER for Smart Rate Selection in 80211. INFOCOM 2009:1080-1088
4534 Pablo Serrano, Michael Zink, Jim Kurose: Assessing the Fidelity of COTS 80211 Sniffers. INFOCOM 2009:1089-1097
4533 Michael Bredel, Markus Fidler: Understanding Fairness and its Impact on Quality of Service in IEEE 80211. INFOCOM 2009:1098-1106
4532 Janne Riihijärvi, Matthias Wellens, Petri Mähönen: Measuring Complexity and Predictability in Networks with Multiscale Entropy Analysis. INFOCOM 2009:1107-1115
4531 Pierre-Ugo Tournoux, Jeremie Leguay, Farid Benbadis, Vania Conan, Marcelo Dias de Amorim, John Whitbeck: The Accordion Phenomenon: Analysis, Characterization, and Impact on DTN Routing. INFOCOM 2009:1116-1124
4530 Utku Günay Acer, Alhussein A. Abouzeid, Shivkumar Kalyanaraman: An Evaluation of Weak State Mechanism Design for Indirection in Dynamic Networks. INFOCOM 2009:1125-1133
4529 Eitan Altman, Giovanni Neglia, Francesco De Pellegrini, Daniele Miorandi: Decentralized Stochastic Control of Delay Tolerant Networks. INFOCOM 2009:1134-1142
4528 Abdul Jabbar, Justin P. Rohrer, Andrew Oberthaler, Egemen K. Çetinkaya, Victor Frost, James P. G. Sterbenz: Performance Comparison of Weather Disruption-Tolerant Cross-Layer Routing Algorithms. INFOCOM 2009:1143-1151
4527 Xu Cheng, Jiangchuan Liu: NetTube: Exploring Social Networks for Peer-to-Peer Short Video Sharing. INFOCOM 2009:1152-1160
4526 Matteo Varvello, C. Diout, Ernst W. Biersack: P2P Second Life: Experimental Validation Using Kad. INFOCOM 2009:1161-1169
4525 Wai Hung Tang, H. W. Chan: MIX-Crowds, an Anonymity Scheme for File Retrieval Systems. INFOCOM 2009:1170-1178
4524 Te-Yuan Huang, Kuan-Ta Chen, Polly Huang: Tuning Skype's Redundancy Control Algorithm for User Satisfaction. INFOCOM 2009:1179-1187
4523 Liang Liu, Xi Zhang, Huadong Ma: Dynamic Node Collaboration for Mobile Target Tracking in Wireless Camera Sensor Networks. INFOCOM 2009:1188-1196
4522 Dengpan Zhou, Jie Gao: Opportunistic Processing and Query of Motion Trajectories in Wireless Sensor Networks. INFOCOM 2009:1197-1205
4521 Yong Yang, I-Hong Hou, Jennifer C. Hou, Mallikarjun Shankar, Nageswara S. V. Rao: Sensor Placement for Detecting Propagative Sources in Populated Environments. INFOCOM 2009:1206-1214
4520 Ziguo Zhong, Ting Zhu, Dan Wang, Tian He: Tracking with Unreliable Node Sequences. INFOCOM 2009:1215-1223
4519 Elias Kehdi, Baochun Li: Null Keys: Limiting Malicious Attacks Via Null Space Properties of Network Coding. INFOCOM 2009:1224-1232
4518 Qiyan Wang, Himanshu Khurana, Ying Huang, Klara Nahrstedt: Time Valid One-Time Signature for Time-Critical Multicast Data Authentication. INFOCOM 2009:1233-1241
4517 An Liu, Peng Ning, Chun Wang: Lightweight Remote Image Management for Secure Code Dissemination in Wireless Sensor Networks. INFOCOM 2009:1242-1250
4516 Rui Zhang, Yanchao Zhang, Kui Ren: DP2AC: Distributed Privacy-Preserving Access Control in Sensor Networks. INFOCOM 2009:1251-1259
4515 Sem C. Borst, Nidhi Hegde, Alexandre Proutiere: Mobility-Driven Scheduling in Wireless Networks. INFOCOM 2009:1260-1268
4514 Suk-Bok Lee, Sayantan Choudhury, Ahmad Khoshnevis, Shugong Xu, Songwu Lu: Downlink MIMO with Frequency-Domain Packet Scheduling for 3GPP LTE. INFOCOM 2009:1269-1277
4513 Matthew Andrews, Lisa Zhang: Multiserver Scheduling with Contiguity Constraints. INFOCOM 2009:1278-1286
4512 Alexander L. Stolyar, Harish Viswanathan: Self-Organizing Dynamic Fractional Frequency Reuse for Best-Effort Traffic through Distributed Inter-Cell Coordination. INFOCOM 2009:1287-1295
4511 Anat Bremler-Barr, David Hay, Danny Hendler, Ron M. Roth: PEDS: A Parallel Error Detection Scheme for TCAM Devices. INFOCOM 2009:1296-1304
4510 Anat Bremler-Barr, David Hay, Danny Hendler: Layered Interval Codes for TCAM-Based Classification. INFOCOM 2009:1305-1313
4509 Rick McGeer, Praveen Yalagandula: Minimizing Rulesets for TCAM Implementation. INFOCOM 2009:1314-1322
4508 Arun Vishwanath, Vijay Sivaraman, George N. Rouskas: Considerations for Sizing Buffers in Optical Packet Switched Networks. INFOCOM 2009:1323-1331
4507 Matthew Andrews, Michael Dinitz: Maximizing Capacity in Arbitrary Wireless Networks in the SINR Model: Complexity and Game Theory. INFOCOM 2009:1332-1340
4506 Ramakrishna Gummadi, Kyomin Jung, Devavrat Shah, Ramavarapu S. Sreenivas: Computing the Capacity Region of a Wireless Network. INFOCOM 2009:1341-1349
4505 Chee-Wei Tan, Mung Chiang, R. Srikant: Fast Algorithms and Performance Bounds for Sum Rate Maximization in Wireless Networks. INFOCOM 2009:1350-1358
4504 Asaf Baron, Ran Ginosar, Isaac Keslassy: The Capacity Allocation Paradox. INFOCOM 2009:1359-1367
4503 Shrinivasa Kini, Srinivasan Ramasubramanian, Amund Kvalbein, Audun Fosselie Hansen: Fast Recovery from Dual Link Failures in IP Networks. INFOCOM 2009:1368-1376
4502 Paul Barford, Nick G. Duffield, Amos Ron, Joel Sommers: Network Performance Anomaly Detection and Localization. INFOCOM 2009:1377-1385
4501 Hung Xuan Nguyen, Renata Teixeira, Patrick Thiran, Christophe Diot: Minimizing Probing Cost for Detecting Interface Failures: Algorithms and Scalability Analysis. INFOCOM 2009:1386-1394
4500 Darryl Veitch, Brice Augustin, Renata Teixeira, Timur Friedman: Failure Control in Multipath Route Tracing. INFOCOM 2009:1395-1403
4499 Bin Bin Chen, Mun Choon Chan: MobTorrent: A Framework for Mobile Internet Access from Vehicles. INFOCOM 2009:1404-1412
4498 Rongxing Lu, Xiaodong Lin, Haojin Zhu, Xuemin Shen: SPARK: A New VANET-Based Smart Parking Scheme for Large Parking Lots. INFOCOM 2009:1413-1421
4497 Stratis Ioannidis, Augustin Chaintreau, Laurent Massoulié: Optimal and Scalable Distribution of Content Updates over a Mobile Social Network. INFOCOM 2009:1422-1430
4496 Eitan Altaian, Philippe Nain, Jean-Claude Bermond: Distributed Storage Management of Evolving Files in Delay Tolerant Ad Hoc Networks. INFOCOM 2009:1431-1439
4495 Fabien Mathieu, Gheorghe Postelnicu, Julien Reynier: The Stable Configuration of Acyclic Preference-Based Systems. INFOCOM 2009:1440-1448
4494 Rubén Cuevas Rumín, Manuel Urueña, Albert Banchs: Routing Fairness in Chord: Analysis and Enhancement. INFOCOM 2009:1449-1457
4493 Daisuke Fukuchi, Christian Sommer, Yuichi Sei, Shinichi Honiden: Distributed Arrays: A P2P Data Structure for Efficient Logical Arrays. INFOCOM 2009:1458-1466
4492 Bo Zhang, T. S. Eugene Ng: Exploiting Internet Delay Space Properties for Selecting Distinct Network Locations. INFOCOM 2009:1467-1475
4491 Zhichao Zhu, Guohong Cao, Sencun Zhu, Supranamaya Ranjan, Antonio Nucci: A Social Network Based Patching Scheme for Worm Containment in Cellular Networks. INFOCOM 2009:1476-1484
4490 Jasmina Omic, Ariel Orda, Piet Van Mieghem: Protecting Against Network Infections: A Game Theoretic Perspective. INFOCOM 2009:1485-1493
4489 Marc Lelarge, Jean Bolot: Economic Incentives to Increase Security in the Internet: The Case for Insurance. INFOCOM 2009:1494-1502
4488 Gjergji Zyba, Geoffrey M. Voelker, Michael Liljenstam, András Méhes, Per Johansson: Defending Mobile Phones from Proximity Malware. INFOCOM 2009:1503-1511
4487 Wei Cheng, Xiuzhen Cheng, Taieb Znati, Xicheng Lu, Zexin Lu: The Complexity of Channel Scheduling in Multi-Radio Multi-Channel Wireless Networks. INFOCOM 2009:1512-1520
4486 Bo Han, V. S. Anil Kumar, Madhav V. Marathe, Srinivasan Parthasarathy, Aravind Srinivasan: Distributed Strategies for Channel Allocation and Scheduling in Software-Defined Radio Networks. INFOCOM 2009:1521-1529
4485 Liqun Fu, Soung Chang Liew, Jianwei Huang: Power Controlled Scheduling with Consecutive Transmission Constraints: Complexity Analysis and Algorithm Design. INFOCOM 2009:1530-1538
4484 Karthikeyan Sundaresan, Sampath Rangarajan: Efficient Algorithms for Leveraging Spatial Reuse in OFDMA Relay Networks. INFOCOM 2009:1539-1547
4483 Spyridon Antonakopoulos, Lisa Zhang: Approximation Algorithms for Grooming in Optical Network Design. INFOCOM 2009:1548-1556
4482 Konstantinos Manousakis, Kostas Christodoulopoulos, Emmanouel A. Varvarigos: Impairment-Aware Offline RWA for Transparent Optical Networks. INFOCOM 2009:1557-1565
4481 Sebastian Neumayer, Gil Zussman, Reuven Cohen, Eytan Modiano: Assessing the Vulnerability of the Fiber Infrastructure to Disasters. INFOCOM 2009:1566-1574
4480 Jun He, Maïté Brandt-Pearce, Suresh Subramaniam: Analysis of Blocking Probability for First-Fit RWA in Transmission Impaired Optical Networks. INFOCOM 2009:1575-1583
4479 Khaled Elmeleegy, Alan L. Cox: EtherProxy: Scaling Ethernet By Suppressing Broadcast Traffic. INFOCOM 2009:1584-1592
4478 Hao Han, Bo Sheng, Chiu Chiang Tan, Qun Li, Sanglu Lu: A Measurement Based Rogue AP Detection Scheme. INFOCOM 2009:1593-1601
4477 Bo Han, Lusheng Ji, Seungjoon Lee, Bobby Bhattacharjee, Robert R. Miller: All Bits Are Not Equal - A Study of IEEE 80211 Communication Bit Errors. INFOCOM 2009:1602-1610
4476 Eitan Altman, Ishai Menache, Alberto Suárez: Team and Noncooperative Solutions to Access Control with Priorities. INFOCOM 2009:1611-1619
4475 Amir Nahir, Ariel Orda, A. Freund: Topology Design and Control: A Game-Theoretic Perspective. INFOCOM 2009:1620-1628
4474 Eitan Altman, Anurag Kumar, Chandramani Kishore Singh, Rajesh Sundaresan: Spatial SINR Games Combining Base Station Placement and Mobile Association. INFOCOM 2009:1629-1637
4473 Xin Ai, Vikram Srinivasan, Chen-Khong Tham: Wi-Sh: A Simple, Robust Credit Based Wi-Fi Community Network. INFOCOM 2009:1638-1646
4472 Andrej Cvetkovski, Mark Crovella: Hyperbolic Embedding and Routing for Dynamic Graphs. INFOCOM 2009:1647-1655
4471 Stavros Toumpis, Savvas Gitzenis: Load Balancing in Wireless Sensor Networks using Kirchhoff's Voltage Law. INFOCOM 2009:1656-1664
4470 Zhenhua Feng, Yaling Yang: Joint Transport, Routing and Spectrum Sharing Optimization for Wireless Networks with Frequency-Agile Radios. INFOCOM 2009:1665-1673
4469 Lei Ying, Sanjay Shakkottai, Aneesh Reddy: On Combining Shortest-Path and Back-Pressure Routing Over Multihop Wireless Networks. INFOCOM 2009:1674-1682
4468 Chandrashekhar Thejaswi P. S., Junshan Zhang, Man-On Pun, H. Vincent Poor: Distributed Opportunistic Scheduling With Two-Level Channel Probing. INFOCOM 2009:1683-1691
4467 Bilal Sadiq, Seung Jun Baek, Gustavo de Veciana: Delay-Optimal Opportunistic Scheduling and Approximations: The Log Rule. INFOCOM 2009:1692-1700
4466 Peter M. van de Ven, Sem C. Borst, Seva Shneer: Instability of MaxWeight Scheduling Algorithms. INFOCOM 2009:1701-1709
4465 JiaLiang Zhang, Soung Chang Liew, Liqun Fu: On Fast Optimal STDMA Scheduling over Fading Wireless Channels. INFOCOM 2009:1710-1718
4464 Guang Tan, Marin Bertier, Anne-Marie Kermarrec: Visibility-Graph-Based Shortest-Path Geographic Routing in Sensor Networks. INFOCOM 2009:1719-1727
4463 Ming-Jer Tsai, Fang-Ru Wang, Hong-Yen Yang, Yuan-Po Cheng: VirtualFace: An Algorithm to Guarantee Packet Delivery of Virtual-Coordinate-Based Routing Protocols in Wireless Sensor Networks. INFOCOM 2009:1728-1736
4462 Roland Flury, Sriram V. Pemmaraju, Roger Wattenhofer: Greedy Routing with Bounded Stretch. INFOCOM 2009:1737-1745
4461 Guang Tan, Marin Bertier, Anne-Marie Kermarrec: Convex Partition of Sensor Networks and Its Use in Virtual Coordinate Geographic Routing. INFOCOM 2009:1746-1754
4460 Adam Bender, Rob Sherwood, Derek Monner, Nathan Goergen, Neil Spring, Bobby Bhattacharjee: Fighting Spam with the NeighborhoodWatch DHT. INFOCOM 2009:1755-1763
4459 Zhenhai Duan, Peng Chen, Fernando Sanchez, Yingfei Dong, Mary Stephenson, J. Barker: Detecting Spam Zombies by Monitoring Outgoing Messages. INFOCOM 2009:1764-1772
4458 Jun-Won Ho, Matthew K. Wright, Samir K. Das: Fast Detection of Replica Node Attacks in Mobile Sensor Networks Using Sequential Analysis. INFOCOM 2009:1773-1781
4457 Lei Yu, Jianzhong Li: Grouping-Based Resilient Statistical En-Route Filtering for Sensor Networks. INFOCOM 2009:1782-1790
4456 Andrew Hagedorn, Sachin Agarwal, David Starobinski, Ari Trachtenberg: Rateless Coding with Feedback. INFOCOM 2009:1791-1799
4455 Daniel Enrique Lucani, Milica Stojanovic, Muriel Médard: Random Linear Network Coding For Time Division Duplexing: When To Stop Talking And Start Listening. INFOCOM 2009:1800-1808
4454 Yunfeng Lin, Ben Liang, Baochun Li: Passive Loss Inference in Wireless Sensor Networks Based on Network Coding. INFOCOM 2009:1809-1817
4453 Muhammad Usman Ilyas, Moonseong Kim, Hayder Radha: Reducing Packet Losses in Networks of Commodity IEEE 802154 Sensor Motes Using Cooperative Communication and Diversity Combination. INFOCOM 2009:1818-1826
4452 Chih-Cheng Hsu, Kuang-Fu Lai, Cheng-Fu Chou, Kate Ching-Ju Lin: ST-MAC: Spatial-Temporal MAC Scheduling for Underwater Sensor Networks. INFOCOM 2009:1827-1835
4451 Petar Djukic, Prasant Mohapatra: Soft-TDMAC: A Software TDMA-Based MAC over Commodity 80211 Hardware. INFOCOM 2009:1836-1844
4450 Mo Sha, Guoliang Xing, Gang Zhou, Shucheng Liu, Xiaorui Wang: C-MAC: Model-Driven Concurrent Medium Access Control for Wireless Sensor Networks. INFOCOM 2009:1845-1853
4449 HyungJune Lee, Hyukjoon Kwon, Arik Motskin, Leonidas J. Guibas: Interference-Aware MAC Protocol for Wireless Networks by a Game-Theoretic Approach. INFOCOM 2009:1854-1862
4448 Cheng Wang, Xiang-Yang Li, Changjun Jiang, ShaoJie Tang, Yunhao Liu, Jizhong Zhao: Scaling Laws on Multicast Capacity of Large Scale Wireless Networks. INFOCOM 2009:1863-1871
4447 Olga Goussevskaia, Roger Wattenhofer, Magnús M. Halldórsson, Emo Welzl: Capacity of Arbitrary Wireless Networks. INFOCOM 2009:1872-1880
4446 Urs Niesen, Piyush Gupta, Devavrat Shah: The Multicast Capacity Region of Large Wireless Networks. INFOCOM 2009:1881-1889
4445 Giuseppa Alfano, Michele Garetto, Emilio Leonardi: Capacity Scaling of Wireless Networks with Inhomogeneous Node Density: Lower Bounds. INFOCOM 2009:1890-1898
4444 Eitan Altman, Francesco De Pellegrini: Forward Correction and Fountain codes in Delay Tolerant Networks. INFOCOM 2009:1899-1907
4443 Weiyao Xiao, David Starobinski: Extreme Value FEC for Wireless Data Broadcasting. INFOCOM 2009:1908-1916
4442 Reuven Cohen, Guy Grebla, Liran Katzir: Cross-Layer Hybrid FEC/ARQ Reliable Multicast with Adaptive Modulation and Coding in Broadband Wireless Networks. INFOCOM 2009:1917-1925
4441 Marco Levorato, Urbashi Mitra, Michele Zorzi: On Optimal Control of Wireless Networks with Multiuser Detection, Hybrid ARQ and Distortion Constraints. INFOCOM 2009:1926-1934
4440 Etienne Perron, Suhas N. Diggavi, Emre Telatar: On Cooperative Wireless Network Secrecy. INFOCOM 2009:1935-1943
4439 Toby Xu, Ying Cai: Location Cloaking for Safety Protection of Ad Hoc Networks. INFOCOM 2009:1944-1952
4438 Li Lu, Jinsong Han, Renyi Xiao, Yunhao Liu: ACTION: Breaking the Privacy Barrier for RFID Systems. INFOCOM 2009:1953-1961
4437 Jerry T. Chiang, Jason J. Haas, Yih-Chun Hu, P. R. Kumar, Jihyuk Choi: Fundamental Limits on Secure Clock Synchronization and Man-In-The-Middle Detection in Fixed Wireless Networks. INFOCOM 2009:1962-1970
4436 Yigal Bejerano, Pramod V. Koppol: Improving Zap Response Time for IPTV. INFOCOM 2009:1971-1979
4435 Tae Won Cho, Michael Rabinovich, K. K. Ramakrishnan, Divesh Srivastava, Yin Zhang: Enabling Content Dissemination Using Efficient and Scalable Multicast. INFOCOM 2009:1980-1988
4434 Varun Khare, Beichuan Zhang: Towards Economically Viable Infrastructure-Based Overlay Multicast Networks. INFOCOM 2009:1989-1997
4433 Bo Xing, Sharad Mehrotra, Nalini Venkatasubramanian: RADcast: Enabling Reliability Guarantees for Content Dissemination in Ad Hoc Networks. INFOCOM 2009:1998-2006
4432 Adam Wierman, Lachlan L. H. Andrew, Ao Tang: Power-Aware Speed Scaling in Processor Sharing Systems. INFOCOM 2009:2007-2015
4431 Lykomidis Mastroleon: Admissible Traces, Stability and Rate Management of Queueing / Switching Service Structures. INFOCOM 2009:2016-2024
4430 Maciej Kurant: Exploiting the Path Propagation Time Differences in Multipath Transmission with FEC. INFOCOM 2009:2025-2033
4429 Randeep Bhatia, Girija J. Narlikar, Ivica Rimac, Andre Beck: UNAP: User-Centric Network-Aware Push for Mobile Content Delivery. INFOCOM 2009:2034-2042
4428 Seung-Jae Han, Thyaga Nandagopal, Yigal Bejerano, Hyoung-Gyu Choi: Analysis of Spatial Unfairness in Wireless LANs. INFOCOM 2009:2043-2051
4427 Jing Shi, Ehsan Aryafar, Theodoros Salonidis, Edward W. Knightly: Synchronized CSMA Contention: Model, Implementation and Evaluation. INFOCOM 2009:2052-2060
4426 Joseph Naor, Danny Raz, Gabriel Scalosub: Toward Optimal Utilization of Shared Random Access Channels. INFOCOM 2009:2061-2069
4425 Yu Cheng, Xinhua Ling, Weihua Zhuang: A Protocol-Independent Approach for Analyzing the Optimal Operation Point of CSMA/CA Protocols. INFOCOM 2009:2070-2078
4424 Chris Milling, Sundar Subramanian, Sanjay Shakkottai, Randall Berry: Routing Over Multi-Hop Wireless Networks with Non-Ergodic Mobility. INFOCOM 2009:2079-2087
4423 Anand D. Sarwate, Alexandros G. Dimakis: The Impact of Mobility on Gossip Algorithms. INFOCOM 2009:2088-2096
4422 Ben McCarthy, Christopher Edwards, Martin Dunmore: Using NEMO to Support the Global Reachability of MANET Nodes. INFOCOM 2009:2097-2105
4421 Alessandro Mei, Julinda Stefa: SWIM: A Simple Model to Generate Small Mobile Worlds. INFOCOM 2009:2106-2113
4420 Walid Saad, Zhu Han, Mérouane Debbah, Are Hjørungnes, Tamer Basar: Coalitional Games for Distributed Collaborative Spectrum Sensing in Cognitive Radio Networks. INFOCOM 2009:2114-2122
4419 Alireza Aram, Chandramani Kishore Singh, Saswati Sarkar, Anurag Kumar: Cooperative Profit Sharing in Coalition Based Resource Allocation in Wireless Networks. INFOCOM 2009:2123-2131
4418 Tuncer C. Aysal, Kenneth E. Barner: On the Convergence of Perturbed Non-Stationary Consensus Algorithms. INFOCOM 2009:2132-2140
4417 Hong Xu, Baochun Li: XOR-Assisted Cooperative Diversity in OFDMA Wireless Networks: Optimization Framework and Approximation Algorithms. INFOCOM 2009:2141-2149
4416 Animashree Anandkumar, Meng Wang, Lang Tong, Ananthram Swami: Prize-Collecting Data Fusion for Cost-Performance Tradeoff in Distributed Inference. INFOCOM 2009:2150-2158
4415 Bo Yu, Jianzhong Li, Yingshu Li: Distributed Data Aggregation Scheduling in Wireless Sensor Networks. INFOCOM 2009:2159-2167
4414 Changlei Liu, Guohong Cao: Minimizing the Cost of Mine Selection Via Sensor Networks. INFOCOM 2009:2168-2176
4413 Lorenzo Keller, Mahdi Jafari Siavoshani, Christina Fragouli, Katerina J. Argyraki, Suhas N. Diggavi: Identity Aware Sensor Networks. INFOCOM 2009:2177-2185
4412 Adel El-Atawy, Ehab Al-Shaer: Building Covert Channels over the Packet Reordering Phenomenon. INFOCOM 2009:2186-2194
4411 Weijia Jia, Fung Po Tso, Zhen Ling, Xinwen Fu, Dong Xuan, Wei Yu: Blind Detection of Spread Spectrum Flow Watermarks. INFOCOM 2009:2195-2203
4410 Sarah H. Sellke, Chih-Chun Wang, Saurabh Bagchi, Ness B. Shroff: TCP/IP Timing Channels: Theory to Implementation. INFOCOM 2009:2204-2212
4409 Yanfei Fan, Yixin Jiang, Haojin Zhu, Xuemin Shen: An Efficient Privacy-Preserving Scheme against Traffic Analysis Attacks in Network Coding. INFOCOM 2009:2213-2221
4408 Donglin Hu, Shiwen Mao, Jeffrey H. Reed: On Video Multicast in Cognitive Radio Networks. INFOCOM 2009:2222-2230
4407 Cheng-Hsin Hsu, Mohamed Hefeeda: Time Slicing in Mobile TV Broadcast Networks with Arbitrary Channel Bit Rates. INFOCOM 2009:2231-2239
4406 Mhameed Aezladen, Reuven Cohen, Danny Raz: Locally vs Globally Optimized Flow-Based Content Distribution to Mobile Nodes. INFOCOM 2009:2240-2248
4405 Seth Gilbert, Rachid Guerraoui, Dariusz R. Kowalski, Calvin C. Newport: Interference-Resilient Information Exchange. INFOCOM 2009:2249-2257
4404 Shuyi Chen, Kaustubh R. Joshi, Matti A. Hiltunen, William H. Sanders, Richard D. Schlichting: Link Gradients: Predicting the Impact of Network Latency on Multitier Applications. INFOCOM 2009:2258-2266
4403 Ho-Lin Chen, Jason R. Marden, Adam Wierman: On the Impact of Heterogeneity and Back-End Scheduling in Load Balancing Designs. INFOCOM 2009:2267-2275
4402 Dan Li, Chuanxiong Guo, Haitao Wu, Kun Tan, Songwu Lu: FiConn: Using Backup Port for Server Interconnection in Data Centers. INFOCOM 2009:2276-2285
4401 Hongbo Jiang, Arun Iyengar, Erich M. Nahum, Wolfgang Segmuller, Asser N. Tantawi, Charles P. Wright: Load Balancing for SIP Server Clusters. INFOCOM 2009:2286-2294
4400 Senhua Huang, Xin Liu, Zhi Ding: Optimal Sensing-Transmission Structure for Dynamic Spectrum Access. INFOCOM 2009:2295-2303
4399 Juncheng Jia, J. Jun Jun Zhang, Qian Zhang: Cooperative Relay for Cognitive Radio Networks. INFOCOM 2009:2304-2312
4398 Wonsoo Kim, O. Khan, Kien T. Truong, Soon-Hyeok Choi, Robert Grant, Hyrum K. Wright, Ketan Mandke, Robert C. Daniels, Robert W. Heath Jr., Scott Nettles: An Experimental Evaluation of Rate Adaptation for Multi-Antenna Systems. INFOCOM 2009:2313-2321
4397 Haythem Bany Salameh, Marwan Krunz, Ossama Younis: Dynamic Spectrum Access Protocol Without Power Mask Constraints. INFOCOM 2009:2322-2330
4396 Koushik Kar, Xiang Luo, Saswati Sarkar: Delay Guarantees for Throughput-Optimal Wireless Link Scheduling. INFOCOM 2009:2331-2339
4395 Peng-Jun Wan, XiaoHua Xu, Lixin Wang, Xiaohua Jia, E. K. Park: Minimum-Latency Beaconing Schedule in Multihop Wireless Networks. INFOCOM 2009:2340-2346
4394 Lei Ying, Sanjay Shakkottai: Scheduling in Mobile Ad Hoc Networks with Topology and Channel-State Uncertainty. INFOCOM 2009:2347-2355
4393 Gagan Rajesh Gupta, Ness B. Shroff: Delay Analysis for Multi-Hop Wireless Networks. INFOCOM 2009:2356-2364
4392 Husheng Li, Lin Zhong, Kun Zheng: Drowsy Transmission: Physical Layer Energy Optimization for Transmitting Random Packet Traffic. INFOCOM 2009:2365-2373
4391 Mingming Lu, Jie Wu: Opportunistic Routing Algebra and its Applications. INFOCOM 2009:2374-2382
4390 Arik Motskin, Tim Roughgarden, Primoz Skraba, Leonidas J. Guibas: Lightweight Coloring and Desynchronization for Networks. INFOCOM 2009:2383-2391
4389 Zheng Yang, Yunhao Liu, Xiang-Yang Li: Beyond Trilateration: On the Localizability of Wireless Ad-Hoc Networks. INFOCOM 2009:2392-2400
4388 Yue Wang, Sol Lederer, Jie Gao: Connectivity-Based Sensor Network Localization with Incremental Delaunay Refinement Method. INFOCOM 2009:2401-2409
4387 Liang Zhang, Shigang Chen, Ying Jian, Yuguang Fang: Distributed Progressive Algorithm for Maximizing Lifetime Vector in Wireless Sensor Networks. INFOCOM 2009:2410-2418
4386 Mo Li, Yunhao Liu, Jiliang Wang, Zheng Yang: Sensor Network Navigation without Locations. INFOCOM 2009:2419-2427
4385 Feng Li, Jie Wu, Anand Srinivasan: Thwarting Blackhole Attacks in Disruption-Tolerant Networks using Encounter Tickets. INFOCOM 2009:2428-2436
4384 Adel El-Atawy, Ehab Al-Shaer, Tung Tran, Raouf Boutaba: Adaptive Early Packet Filtering for Defending Firewalls Against DoS Attacks. INFOCOM 2009:2437-2445
4383 Fabio Soldo, Athina Markopoulou, Katerina J. Argyraki: Optimal Filtering of Source Address Prefixes: Models and Algorithms. INFOCOM 2009:2446-2454
4382 Bo Zhao, Caixia Chi, Wei Gao, Sencun Zhu, Guohong Cao: A Chain Reaction DoS Attack on 3G Networks: Analysis and Defenses. INFOCOM 2009:2455-2463
4381 Natalia Castro Fernandes, Marcelo D. D. Moreira, Otto Carlos Muniz Bandeira Duarte: An Efficient Filter-based Addressing Protocol for Autoconfiguration of Mobile Ad Hoc Networks. INFOCOM 2009:2464-2472
4380 Dimitrios Koutsonikolas, Y. Charlie Hu, Chih-Chun Wang: Pacifier: High-Throughput, Reliable Multicast without ``Crying Babies'' in Wireless Mesh Networks. INFOCOM 2009:2473-2481
4379 Kaushik R. Chowdhury, Marco Di Felice, Ian F. Akyildiz: TP-CRAHN: a Transport Protocol for Cognitive Radio Ad-Hoc Networks. INFOCOM 2009:2482-2490
4378 Jiakang Lu, Kamin Whitehouse: Flash Flooding: Exploiting the Capture Effect for Rapid Flooding in Wireless Sensor Networks. INFOCOM 2009:2491-2499
4377 Josef Kanizo, David Hay, Isaac Keslassy: Optimal Fast Hashing. INFOCOM 2009:2500-2508
4376 Mohammad Behdadfar, Hossein Saidi, Hamid Alaei, Babak Samari: Scalar Prefix Search: A New Route Lookup Algorithm for Next Generation Internet. INFOCOM 2009:2509-2517
4375 Haoyu Song, Fang Hao, Murali S. Kodialam, T. V. Lakshman: IPv6 Lookups using Distributed and Load Balanced Bloom Filters for 100Gbps Core Router Line Cards. INFOCOM 2009:2518-2526
4374 Etienne Perron, Dinkar Vasudevan, Milan Vojnovic: Using Three States for Binary Consensus on Complete Graphs. INFOCOM 2009:2527-2535
4373 Murali S. Kodialam, T. V. Lakshman, Sudipta Sengupta: Capacity of Multi-Hop Wireless Networks with Incomplete Traffic Specification. INFOCOM 2009:2536-2540
4372 Shan-Hung Wu, Chung-Min Chen, Ming-Syan Chen: AAA: Asynchronous, Adaptive, and Asymmetric Power Management for Mobile Ad Hoc Networks. INFOCOM 2009:2541-2545
4371 Zhiqiang Li, F. Richard Yu, Minyi Huang: A Cooperative Spectrum Sensing Consensus Scheme in Cognitive Radios. INFOCOM 2009:2546-2550
4370 Lifeng Sang, Anish Arora: Capabilities of Low-Power Wireless Jammers. INFOCOM 2009:2551-2555
4369 Xiaoyuan Ta, Guoqiang Mao, Brian D. O. Anderson: On the Properties of Giant Component in Wireless Multi-Hop Networks. INFOCOM 2009:2556-2560
4368 Rahul Urgaonkar, Michael J. Neely: Delay-Limited Cooperative Communication with Reliability Constraints in Wireless Networks. INFOCOM 2009:2561-2565
4367 Ryo Sugihara, Rajesh K. Gupta: Optimizing Energy-Latency Trade-Off in Sensor Networks with Controlled Mobility. INFOCOM 2009:2566-2570
4366 Lei Pan, Hongyi Wu: Smart Trend-Traversal: A Low Delay and Energy Tag Arbitration Protocol for Large RFID Systems. INFOCOM 2009:2571-2575
4365 Amin Alamdar Yazdi, Sameh Sorour, Shahrokh Valaee, Ronny Yongho Kim: Optimum Network Coding for Delay Sensitive Applications in WiMAX Unicast. INFOCOM 2009:2576-2580
4364 René Serral-Gracià, Yann Labit, Jordi Domingo-Pascual, Philippe Owezarski: Towards an Efficient Service Level Agreement Assessment. INFOCOM 2009:2581-2585
4363 Nishanth Sastry, Karen R. Sollins, Jon Crowcroft: Delivery Properties of Human Social Networks. INFOCOM 2009:2586-2590
4362 Jiahua Wu, Baochun Li: Keep Cache Replacement Simple in Peer-Assisted VoD Systems. INFOCOM 2009:2591-2595
4361 Yongning Tang, Ehab Al-Shaer: Overlay Fault Diagnosis Based on Evidential Reasoning. INFOCOM 2009:2596-2600
4360 David T.-H. Kao, Ashutosh Sabharwal: Impact of Network Topology Knowledge on Fairness: A Geometric Approach. INFOCOM 2009:2601-2605
4359 Bin Wu, Pin-Han Ho, Kwan L. Yeung, János Tapolcai, Hussein T. Mouftah: CFP: Cooperative Fast Protection. INFOCOM 2009:2606-2610
4358 Suk-Bok Lee, Ioannis Pefkianakis, Adam Meyerson, Shugong Xu, Songwu Lu: Proportional Fair Frequency-Domain Packet Scheduling for 3GPP LTE Uplink. INFOCOM 2009:2611-2615
4357 Jin Teng, Changqing Xu, Weijia Jia, Dong Xuan: D-Scan: Enabling Fast and Smooth Handoffs in AP-Dense 80211 Wireless Networks. INFOCOM 2009:2616-2620
4356 Sriram Lakshmanan, Karthikeyan Sundaresan, Ravi Kokku, A. Khojestepour, Sampath Rangarajan: Towards Adaptive Beamforming in Indoor Wireless Networks: An Experimental Approach. INFOCOM 2009:2621-2625
4355 Thomas Bonald, Ali Ibrahim, James Roberts: Enhanced Spatial Reuse in Multi-Cell WLANs. INFOCOM 2009:2626-2630
4354 Elisha J. Rosensweig, Jim Kurose: Breadcrumbs: Efficient, Best-Effort Content Location in Cache Networks. INFOCOM 2009:2631-2635
4353 Eitan Altman, Ishai Menache, Asuman E. Ozdaglar: Noncooperative Load Balancing in the Continuum Limit of a Dense Network. INFOCOM 2009:2636-2640
4352 Reuven Cohen, Alexander Landau: Not All At Once! - A Generic Scheme for Estimating the Number of Affected Nodes While Avoiding Feedback Implosion. INFOCOM 2009:2641-2645
4351 Yigal Bejerano, Qunfeng Dong: Distributed Construction of Fault Resilient High Capacity Wireless Networks with Bounded Node Degree. INFOCOM 2009:2646-2650
4350 Juan F. Pérez, Benny Van Houdt: Dimensioning an OBS Switch with Partial Wavelength Conversion and Fiber Delay Lines via a Mean Field Model. INFOCOM 2009:2651-2655
4349 Xin Liu, Chunming Qiao, Ting Wang: Application-Specific, Agile and Private (ASAP) Platforms for Federated Computing Services over WDM Networks. INFOCOM 2009:2656-2660
4348 Ritesh Maheshwari, Jing Cao, Samir R. Das: Physical Interference Modeling for Transmission Scheduling on Commodity WiFi Hardware. INFOCOM 2009:2661-2665
4347 Juanjuan Yu, Yue He, Kai Wu, Marco Tacca, Andrea Fumagalli, Jean-Philippe Vasseur: A Queueing Model Framework of PCE-Based Inter-Area Path Computation. INFOCOM 2009:2666-2670
4346 Chun-cheng Chen, Chandra Chekuri, D. Klabjan: Topology Formation for Wireless Mesh Network Planning. INFOCOM 2009:2671-2675
4345 Mohamed A. Ismail, Walid Dabbous, Antoine Clerget: A Multi-Burst Sliding Encoding for Mobile Satellite TV Broadcasting. INFOCOM 2009:2676-2680
4344 Rajiv Gandhi, Yoo-Ah Kim, Seungjoon Lee, Jiho Ryu, Peng-Jun Wan: Approximation Algorithms for Data Broadcast in Wireless Networks. INFOCOM 2009:2681-2685
4343 Song Guo, Minyi Guo, Victor C. M. Leung: Exploring the Multicast Lifetime Capacity of WANETs with Directional Multibeam Antennas. INFOCOM 2009:2686-2690
4342 Nathalie Mitton, David Simplot-Ryl, Ivan Stojmenovic: Guaranteed Delivery for Geographical Anycasting in Wireless Multi-Sink Sensor and Sensor-Actor Networks. INFOCOM 2009:2691-2695
4341 Yigal Bejerano, Pramod V. Koppol: Optimal Construction of Redundant Multicast Trees in Directed Graphs. INFOCOM 2009:2696-2700
4340 Amir Hassan Rasti, Mojtaba Torkjazi, Reza Rejaie, Nick G. Duffield, Walter Willinger, Daniel Stutzbach: Respondent-Driven Sampling for Characterizing Unstructured Overlays. INFOCOM 2009:2701-2705
4339 Mohit Saxena, Ramana Rao Kompella: A Framework for Efficient Class-Based Scheduling. INFOCOM 2009:2706-2710
4338 Ashwin Lall, Mitsunori Ogihara, Jun Xu: An Efficient Algorithm for Measuring Medium- to Large-Sized Flows in Network Traffic. INFOCOM 2009:2711-2715
4337 Ionut Constandache, Shravan Gaonkar, Matt Sayler, Romit Roy Choudhury, Landon P. Cox: EnLoc: Energy-Efficient Localization for Mobile Phones. INFOCOM 2009:2716-2720
4336 Jin Cao, Aiyou Chen, Tian Bu, Arumugam Buvaneswari: Monitoring Time-Varying Network Streams Using State-Space Models. INFOCOM 2009:2721-2725
4335 Di Wu, Chao Liang, Yong Liu, Keith W. Ross: View-Upload Decoupling: A Redesign of Multi-Channel P2P Video Systems. INFOCOM 2009:2726-2730
4334 Chuan Wu, Baochun Li, Shuqiao Zhao: Diagnosing Network-Wide P2P Live Streaming Inefficiencies. INFOCOM 2009:2731-2735
4333 Khaldoon Shami, Damien Magoni, Hyunseok Chang, Wenjie Wang, Sugih Jamin: Impacts of Peer Characteristics on P2PTV Networks Scalability. INFOCOM 2009:2736-2740
4332 Chao Liang, Zhenghua Fu, Yong Liu, Chai Wah Wu: iPASS: Incentivized Peer-Assisted System for Asynchronous Streaming. INFOCOM 2009:2741-2745
4331 Sanja Petrovic, Patrick Brown: Large Scale Analysis of the eDonkey P2P File Sharing System. INFOCOM 2009:2746-2750
4330 Cong Liu, Jie Wu: Efficient Geometric Routing in Three Dimensional Ad Hoc Networks. INFOCOM 2009:2751-2755
4329 MohammadHossein Bateni, Alexandre Gerber, Mohammad Taghi Hajiaghayi, Subhabrata Sen: Multi-VPN Optimization for Scalable Routing via Relaying. INFOCOM 2009:2756-2760
4328 Ryoichi Kawahara, Eng Keong Lua, Masato Uchida, Satoshi Kamei, Hideaki Yoshino: On the Quality of Triangle Inequality Violation Aware Routing Overlay Architecture. INFOCOM 2009:2761-2765
4327 Rik Sarkar, Xianjin Zhu, Jie Gao: Spatial Distribution in Routing Table Design for Sensor Networks. INFOCOM 2009:2766-2770
4326 Gábor Enyedi, Péter Szilágyi, Gábor Rétvári, András Császár: IP Fast ReRoute: Lightweight Not-Via without Additional Addresses. INFOCOM 2009:2771-2775
4325 Yunhuai Liu, Lionel M. Ni: A Generalized Probabilistic Topology Control for Wireless Sensor Networks. INFOCOM 2009:2776-2780
4324 Changlei Liu, Guohong Cao: A Multi-Poller based Energy-Efficient Monitoring Scheme for Wireless Sensor Networks. INFOCOM 2009:2781-2785
4323 Riccardo Crepaldi, Mirko Montanari, Indranil Gupta, Robin Kravets: Using Failure Models for Controlling Data Availability in Wireless Sensor Networks. INFOCOM 2009:2786-2790
4322 Huadong Ma, Xi Zhang, Anlong Ming: A Coverage-Enhancing Method for 3D Directional Sensor Networks. INFOCOM 2009:2791-2795
4321 Yuanchen Zhu, Steven J. Gortler, Dylan Thurston: Sensor Network Localization Using Sensor Perturbation. INFOCOM 2009:2796-2800
4320 Chih-Chun Wang, Xiaojun Lin: Fast Resource Allocation for Network-Coded Traffic - A Coded-Feedback Approach. INFOCOM 2009:2801-2805
4319 Chi-Yao Hong, Ai-Chun Pang: Link Scheduling with QoS Guarantee for Wireless Relay Networks. INFOCOM 2009:2806-2810
4318 Pierre Coucheney, Corinne Touati, Bruno Gaujal: Fair and Efficient User-Network Association Algorithm for Multi-Technology Wireless Networks. INFOCOM 2009:2811-2815
4317 Pablo Belzarena, Andrés Ferragut, Fernando Paganini: Network Bandwidth Allocation via Distributed Auctions with Time Reservations. INFOCOM 2009:2816-2820
4316 Udi Ben-Porat, Anat Bremler-Barr, Hanoch Levy: On the Exploitation of CDF Based Wireless Scheduling. INFOCOM 2009:2821-2825
4315 Cédric Westphal, Guanhong Pei: Scalable Routing Via Greedy Embedding. INFOCOM 2009:2826-2830
4314 Zizhan Zheng, Prasun Sinha, Santosh Kumar: Alpha Coverage: Bounding the Interconnection Gap for Vehicular Internet Access. INFOCOM 2009:2831-2835
4313 Takayuki Osogami: A Fluid Limit for Cache Algorithms with General Request Processes. INFOCOM 2009:2836-2840
4312 Chuanxiong Guo, Yunxin Liu, Wenchao Shen, Helen J. Wang, Qing Yu, Yongguang Zhang: Mining the Web and the Internet for Accurate IP Address Geolocations. INFOCOM 2009:2841-2845
4311 Tao Shu, Sisi Liu, Marwan Krunz: Secure Data Collection in Wireless Sensor Networks Using Randomized Dispersive Routes. INFOCOM 2009:2846-2850
4310 Domenico Ficara, Stefano Giordano, Gregorio Procissi, Fabio Vitucci, Gianni Antichi, Andrea Di Pietro: Faster DFAs through Simple and Efficient Inverse Homomorphisms. INFOCOM 2009:2851-2855
4309 Mudhakar Srivatsa, Arun Iyengar, Ling Liu: Privacy in VoIP Networks: A k-Anonymity Approach. INFOCOM 2009:2856-2860
4308 Krishna P. N. Puttaswamy, Alessandra Sala, Ömer Egecioglu, Ben Y. Zhao: Rome: Performance and Anonymity using Route Meshes. INFOCOM 2009:2861-2865
4307 Daniela Brauckhoff, Kavé Salamatian, Martin May: Applying PCA for Traffic Anomaly Detection: Problems and Solutions. INFOCOM 2009:2866-2870
4306 Raghuraman Mudumbai, Sumit Singh, Upamanyu Madhow: Medium Access Control for 60 GHz Outdoor Mesh Networks with Highly Directional Links. INFOCOM 2009:2871-2875
4305 Li Li, Richard Alimi, Ramachandran Ramjee, Harish Viswanathan, Yang Richard Yang: muNet: Harnessing Multiuser Capacity in Wireless Mesh Networks. INFOCOM 2009:2876-2880
4304 Jun Zhang, Xiaohua Jia: Capacity Analysis of Wireless Mesh Networks with Omni or Directional Antennas. INFOCOM 2009:2881-2885
4303 Chun-Pong Luk, Wing Cheong Lau, On-Ching Yue: Opportunistic Routing with Directional Antennas in Wireless Mesh Networks. INFOCOM 2009:2886-2890
4302 Dhruv Gupta, Di Wu, Prasant Mohapatra, Chen-Nee Chuah: Experimental Comparison of Bandwidth Estimation Tools for Wireless Mesh Networks. INFOCOM 2009:2891-2895
4301 Paul Balister, Santosh Kumar: Random vs Deterministic Deployment of Sensors in the Presence of Failures and Placement Errors. INFOCOM 2009:2896-2900
4300 Hiroshi Saito, Shinsuke Shimogawa, Shigeo Shioda, Junko Harada: Shape Estimation Using Networked Binary Sensors. INFOCOM 2009:2901-2905
4299 Hui Kang, Jennifer L. Wong: A Localized Multi-Hop Desynchronization Algorithm for Wireless Sensor Networks. INFOCOM 2009:2906-2910
4298 Xianjin Zhu, Rik Sarkar, Jie Gao: Topological Data Processing for Distributed Sensor Networks with Morse-Smale Decomposition. INFOCOM 2009:2911-2915
4297 Hongbo Jiang, Wenping Liu, Dan Wang, Chen Tian, Xiang Bai, Xue Liu, Ying Wu, Wenyu Liu: CASE: Connectivity-Based Skeleton Extraction in Wireless Sensor Networks. INFOCOM 2009:2916-2920
4296 Tianxiong Ji, Eleftheria Athanasopoulou, R. Srikant: Optimal Scheduling Policies in Small Generalized Switches. INFOCOM 2009:2921-2925
4295 Qiao Li, Rohit Negi: Scheduling in Multi-Hop Wireless Networks with Priorities. INFOCOM 2009:2926-2930
4294 Debmalya Panigrahi, Bhaskaran Raman: TDMA Scheduling in Long-Distance WiFi Networks. INFOCOM 2009:2931-2935
4293 Loc Bui, R. Srikant, Alexander L. Stolyar: Novel Architectures and Algorithms for Delay Reduction in Back-Pressure Scheduling and Routing. INFOCOM 2009:2936-2940
4292 Jacomo Corbo, Shaili Jain, Michael Mitzenmacher, David C. Parkes: An Economically-Principled Generative Model of AS Graph Connectivity. INFOCOM 2009:2941-2945
4291 Yu Gu, Lee Breslau, Nick G. Duffield, Subhabrata Sen: On Passive One-Way Loss Measurements Using Sampled Flow Statistics. INFOCOM 2009:2946-2950
4290 Lydia (Yiyu) Chen, Natarajan Gautam: Server Frequency Control Using Markov Decision Processes. INFOCOM 2009:2951-2955
4289 Parthasarathy Ramanujam, Zongpeng Li, Lisa Higham: Shadow Prices vs Vickrey Prices in Multipath Routing. INFOCOM 2009:2956-2960
4288 Kurtis B. Kredo II, Petar Djukic, Prasant Mohapatra: STUMP: Exploiting Position Diversity in the Staggered TDMA Underwater MAC Protocol. INFOCOM 2009:2961-2965
4287 Sachin Shetty, Min Song, Chunsheng Xin, E. K. Park: A Learning-based Multiuser Opportunistic Spectrum Access Approach in Unslotted Primary Networks. INFOCOM 2009:2966-2970
4286 Paolo Minero, Massimo Franceschetti: Throughput of Slotted ALOHA with Encoding Rate Optimization and Multipacket Reception. INFOCOM 2009:2971-2975
4285 Tao Shu, Marwan Krunz: Coordinated Channel Access in Cognitive Radio Networks: A Multi-Level Spectrum Opportunity Perspective. INFOCOM 2009:2976-2980
4284 Dimitrios Koutsonikolas, Y. Charlie Hu, Chih-Chun Wang: An Empirical Study of Performance Benefits of Network Coding in Multihop Wireless Networks. INFOCOM 2009:2981-2985
4283 Dola Saha, Aveek Dutta, Dirk Grunwald, Douglas C. Sicker: PHY Aided MAC - A New Paradigm. INFOCOM 2009:2986-2990
4282 Min Ding, Xiuzhen Cheng: Robust Event Boundary Detection in Sensor Networks - A Mixture Model Based Approach. INFOCOM 2009:2991-2995
4281 Haiming Yang, Hsin-Yi Shen, Biplab Sikdar, Shivkumar Kalyanaraman: A Threshold Based MAC Protocol for Cooperative MIMO Transmissions. INFOCOM 2009:2996-3000
4280 Sundhar Srinivasan Ram, Venugopal V. Veeravalli, Angelia Nedic: Distributed Non-Autonomous Power Control through Distributed Convex Optimization. INFOCOM 2009:3001-3005
4279 Andrew R. Curtis, Alejandro López-Ortiz: Capacity Provisioning a Valiant Load-Balanced Network. INFOCOM 2009:3006-3010
4278 Aditya Ramamoorthy, Vwani P. Roychowdhury, Sumit K. Singh: Selfish Distributed Compression over Networks. INFOCOM 2009:3011-3015
4277 : INFOCOM 2008. 27th IEEE International Conference on Computer Communications, Joint Conference of the IEEE Computer and Communications Societies, 13-18 April 2008, Phoenix, AZ, USA INFOCOM 2008
4276 Yi Shi, Yiwei Thomas Hou: Theoretical Results on Base Station Movement Problem for Sensor Network. INFOCOM 2008:1-5
4275 Michael J. Neely: Delay Analysis for Maximal Scheduling in Wireless Networks with Bursty Traffic. INFOCOM 2008:6-10
4274 Zhenning Kong, Edmund M. Yeh: Connectivity and Latency in Large-Scale Wireless Networks with Unreliable Links. INFOCOM 2008:11-15
4273 Yi Xu, Wenye Wang: The Speed of Information Propagation in Large Wireless Networks. INFOCOM 2008:16-20
4272 Jin Cao, Aiyou Chen, Tian Bu: A Quasi-Likelihood Approach for Accurate Traffic Matrix Estimation in a High Speed Network. INFOCOM 2008:21-25
4271 Chengchen Hu, Sheng Wang, Jia Tian, Bin Liu, Yu Cheng, Yan Chen: Accurate and Efficient Traffic Monitoring Using Adaptive Non-Linear Sampling Method. INFOCOM 2008:26-30
4270 Derek Leonard, Dmitri Loguinov: Turbo King: Framework for Large-Scale Internet Delay Measurements. INFOCOM 2008:31-35
4269 Jian Ni, Haiyong Xie, Sekhar Tatikonda, Yang Richard Yang: Network Routing Topology Inference from End-to-End Measurements. INFOCOM 2008:36-40
4268 Xin Hu, Taejoon Park, Kang G. Shin: Attack-Tolerant Time-Synchronization in Wireless Sensor Networks. INFOCOM 2008:41-45
4267 Bo Sheng, Qun Li: Verifiable Privacy-Preserving Range Query in Two-Tiered Sensor Networks. INFOCOM 2008:46-50
4266 Min Shao, Yi Yang, Sencun Zhu, Guohong Cao: Towards Statistically Strong Source Anonymity for Sensor Networks. INFOCOM 2008:51-55
4265 Taiming Feng, Chuang Wang, Wensheng Zhang, Lu Ruan: Confidentiality Protection for Distributed Sensor Data Aggregation. INFOCOM 2008:56-60
4264 Dattatraya Y. Gokhale, Sayandeep Sen, Kameswari Chebrolu, Bhaskaran Raman: On the Feasibility of the Link Abstraction in (Rural) Mesh Networks. INFOCOM 2008:61-65
4263 Richard Alimi, Erran L. Li, Ramachandran Ramjee, Harish Viswanathan, Yang Richard Yang: iPack: in-Network Packet Mixing for High Throughput Wireless Mesh Networks. INFOCOM 2008:66-70
4262 Liang Dai, Yuan Xue, Bin Chang, Yanchuan Cao, Yi Cui: Integrating Traffic Estimation and Routing Optimization for Multi-Radio Multi-Channel Wireless Mesh Networks. INFOCOM 2008:71-75
4261 Joseph Camp, Vincenzo Mancuso, Omer Gurewitz, Edward W. Knightly: A Measurement Study of Multiplicative Overhead Effects in Wireless Networks. INFOCOM 2008:76-80
4260 Abdallah Khreishah, Chih-Chun Wang, Ness B. Shroff: Optimization Based Rate Control for Communication Networks with Inter-Session Network Coding. INFOCOM 2008:81-85
4259 Ashvin Lakshmikantha, R. Srikant, Carolyn L. Beck: Impact of File Arrivals and Departures on Buffer Sizing in Core Routers. INFOCOM 2008:86-90
4258 Ao Tang, Lachlan L. H. Andrew, Krister Jacobsson, Karl Henrik Johansson, Steven H. Low, Håkan Hjalmarsson: Window Flow Control: Macroscopic Properties from Microscopic Factors. INFOCOM 2008:91-95
4257 Ihsan Ayyub Qazi, Taieb Znati: On the Design of Load Factor based Congestion Control Protocols for Next-Generation Networks. INFOCOM 2008:96-100
4256 Sailesh Kumar, Jonathan S. Turner, Patrick Crowley: Peacock Hashing: Deterministic and Updatable Hashing for High Performance Networking. INFOCOM 2008:101-105
4255 Adam Kirsch, Michael Mitzenmacher: The Power of One Move: Hashing Schemes for Hardware. INFOCOM 2008:106-110
4254 Alex X. Liu, Chad R. Meiners, Yun Zhou: All-Match Based Complete Redundancy Removal for Packet Classifiers in TCAMs. INFOCOM 2008:111-115
4253 Matthew Andrews, Lisa Zhang: Satisfying Arbitrary Delay Requirements in Multihop Networks. INFOCOM 2008:116-120
4252 Vicky Sharma, Shivkumar Kalyanaraman, Koushik Kar, K. K. Ramakrishnan, Vijaynarayanan Subramanian: MPLOT: A Transport Protocol Exploiting Multipath Diversity Using Erasure Codes. INFOCOM 2008:121-125
4251 Hung Xuan Nguyen, Daniel R. Figueiredo, Matthias Grossglauser, Patrick Thiran: Balanced Relay Allocation on Heterogeneous Unstructured Overlays. INFOCOM 2008:126-130
4250 François Baccelli, Giovanna Carofiglio, Serguei Foss: Proxy Caching in Split TCP: Dynamics, Stability and Tail Asymptotics. INFOCOM 2008:131-135
4249 Willem de Bruijn, Herbert Bos: Beltway Buffers: Avoiding the OS Traffic Jam. INFOCOM 2008:136-140
4248 Georgios Smaragdakis, Azer Bestavros, Nikolaos Laoutaris, John W. Byers, Pietro Michiardi, Mema Roussopoulos: Swarming on Optimized Graphs for n-Way Broadcast. INFOCOM 2008:141-145
4247 Zhongmei Yao, Dmitri Loguinov: Link Lifetimes and Randomized Neighbor Selection in DHTs. INFOCOM 2008:146-150
4246 Xiaoying Zheng, Chunglae Cho, Ye Xia: Optimal Peer-to-Peer Technique for Massive Content Distribution. INFOCOM 2008:151-155
4245 Hao Yan, Utku Irmak, Torsten Suel: Algorithms for Low-Latency Remote File Synchronization. INFOCOM 2008:156-160
4244 Patrick Tague, David Slater, Jason Rogers, Radha Poovendran: Vulnerability of Network Traffic under Node Capture Attacks Using Circuit Theoretic Analysis. INFOCOM 2008:161-165
4243 Tian Song, Wei Zhang, Dongsheng Wang, Yibo Xue: A Memory Efficient Multiple Pattern Matching Architecture for Network Security. INFOCOM 2008:166-170
4242 Sherif M. Khattab, Sameh Gobriel, Rami G. Melhem, Daniel Mossé: Live Baiting for Service-Level DoS Attackers. INFOCOM 2008:171-175
4241 Alex X. Liu, Eric Torng, Chad R. Meiners: Firewall Compressor: An Algorithm for Minimizing Firewall Policies. INFOCOM 2008:176-180
4240 Dahai Xu, Elliot Anshelevich, Mung Chiang: On Survivable Access Network Design: Complexity and Algorithms. INFOCOM 2008:186-190
4239 Sheng Huang, Biswanath Mukherjee, Charles U. Martel: Survivable Multipath Provisioning with Differential Delay Constraint in Telecom Mesh Networks. INFOCOM 2008:191-195
4238 Massimo Tornatore, Diego Lucerna, Achille Pattavina: Improving Efficiency of Backup Reprovisioning in WDM Networks. INFOCOM 2008:196-200
4237 Leonard Grokop, David N. C. Tse: Spectrum Sharing Between Wireless Networks. INFOCOM 2008:201-205
4236 Michele Garetto, Paolo Giaccone, Emilio Leonardi: Capacity Scaling of Sparse Mobile Ad Hoc Networks. INFOCOM 2008:206-210
4235 Zheng Wang, Hamid R. Sadjadpour, J. J. Garcia-Luna-Aceves: A Unifying Perspective on the Capacity of Wireless Ad Hoc Networks. INFOCOM 2008:211-215
4234 See-Kee Ng, Winston Khoon Guan Seah: Game-Theoretic Model for Collaborative Protocols in Selfish, Tariff-Free, Multihop Wireless Networks. INFOCOM 2008:216-220
4233 Antonio Caruso, Francesco Paparella, Luiz Filipe M. Vieira, Melike Erol, Mario Gerla: The Meandering Current Mobility Model and its Impact on Underwater Mobile Sensor Networks. INFOCOM 2008:221-225
4232 Mehmet C. Vuran, Ian F. Akyildiz: Cross-Layer Packet Size Optimization for Wireless Terrestrial, Underwater, and Underground Sensor Networks. INFOCOM 2008:226-230
4231 Affan A. Syed, Wei Ye, John S. Heidemann: T-Lohi: A New Class of MAC Protocols for Underwater Acoustic Sensor Networks. INFOCOM 2008:231-235
4230 Wei Cheng, Amin Y. Teymorian, Liran Ma, Xiuzhen Cheng, Xicheng Lu, Zexin Lu: Underwater Localization in Sparse 3D Acoustic Sensor Networks. INFOCOM 2008:236-240
4229 Parvathinathan Venkitasubramaniam, Lang Tong: Throughput Anonymity Trade-off in Wireless Networks under Latency Constraints. INFOCOM 2008:241-245
4228 Chenxi Zhang, Rongxing Lu, Xiaodong Lin, Pin-Han Ho, Xuemin Shen: An Efficient Identity-Based Batch Verification Scheme for Vehicular Sensor Networks. INFOCOM 2008:246-250
4227 Chi Zhang, Yang Song, Yuguang Fang: Modeling Secure Connectivity of Self-Organized Wireless Ad Hoc Networks. INFOCOM 2008:251-255
4226 Mudhakar Srivatsa, Arun Iyengar, Jian Yin, Ling Liu: A Scalable Method for Access Control in Location-Based Broadcast Services. INFOCOM 2008:256-260
4225 Dario Bonfiglio, Marco Mellia, Michela Meo, Nicolo Ritacca, Dario Rossi: Tracking Down Skype Traffic. INFOCOM 2008:261-265
4224 Xiaoqiao Meng, Guofei Jiang, Hui Zhang, Haifeng Chen, Kenji Yoshihira: Automatic Profiling of Network Event Sequences: Algorithm and Applications. INFOCOM 2008:266-270
4223 Yan Li, Jun-Hong Cui, Dario Maggiorini, Michalis Faloutsos: Characterizing and Modelling Clustering Features in AS-Level Internet Topology. INFOCOM 2008:271-275
4222 Vijay Arya, Nick G. Duffield, Darryl Veitch: Temporal Delay Tomography. INFOCOM 2008:276-280
4221 Satyajayant Misra, Seung Don Hong, Guoliang Xue, Jian Tang: Constrained Relay Node Placement in Wireless Sensor Networks to Meet Connectivity and Survivability Requirements. INFOCOM 2008:281-285
4220 Jie Wu, Shuhui Yang, Mihaela Cardei: On Maintaining Sensor-Actor Connectivity in Wireless Sensor and Actor Networks. INFOCOM 2008:286-290
4219 Yigal Bejerano: Simple and Efficient k-Coverage Verification without Location Information. INFOCOM 2008:291-295
4218 Xiaole Bai, Ziqiu Yun, Dong Xuan, Ten-Hwang Lai, Weijia Jia: Deploying Four-Connectivity and Full-Coverage Wireless Sensor Networks. INFOCOM 2008:296-300
4217 Srikanth Jagabathula, Vishal Doshi, Devavrat Shah: Fair Scheduling through Packet Election. INFOCOM 2008:301-305
4216 Cheng-Shang Chang, Jay Cheng, Duan-Shin Lee, Chi-Feung Wu: Quasi-Output-Buffered Switches. INFOCOM 2008:306-310
4215 Domenico Ficara, Stefano Giordano, Gregorio Procissi, Fabio Vitucci: MultiLayer Compressed Counting Bloom Filters. INFOCOM 2008:311-315
4214 Wencheng Lu, Sartaj Sahni: Low Power TCAMs for Very Large Forwarding Tables. INFOCOM 2008:316-320
4213 Tian Lan, Xiaojun Lin, Mung Chiang, Ruby B. Lee: How Bad is Suboptimal Rate Allocation? INFOCOM 2008:321-325
4212 Kexin Ma, Ravi Mazumdar, Jun Luo: On the Performance of Primal/Dual Schemes for Congestion Control in Networks with Dynamic Flows. INFOCOM 2008:326-330
4211 Konstantin Miller, Tobias Harks: Utility Max-Min Fair Congestion Control with Time-Varying Delays. INFOCOM 2008:331-335
4210 Mihaela Enachescu, Mei Wang, Ashish Goel: Reducing Maximum Stretch in Compact Routing. INFOCOM 2008:336-340
4209 Mehdi Kalantari, Masoumeh Haghpanahi, Mark A. Shayman: A p-norm Flow Optimization Problem in Dense Wireless Sensor Networks. INFOCOM 2008:341-345
4208 Hanna Kalosha, Amiya Nayak, Stefan Rührup, Ivan Stojmenovic: Select-and-Protest-Based Beaconless Georouting with Guaranteed Delivery in Wireless Sensor Networks. INFOCOM 2008:346-350
4207 Chia-Hung Lin, Bing-Hong Liu, Hong-Yen Yang, Chi-Yen Kao, Ming-Jer Tsai: Virtual-Coordinate-Based Delivery-Guaranteed Routing Protocol in Wireless Sensor Networks with Unidirectional Links. INFOCOM 2008:351-355
4206 Yan Wu, Sonia Fahmy, Ness B. Shroff: On the Construction of a Maximum-Lifetime Data Gathering Tree in Sensor Networks: NP-Completeness and Approximation Algorithm. INFOCOM 2008:356-360
4205 Tao Cui, Lijun Chen, Tracey Ho: Energy Efficient Opportunistic Network Coding for Wireless Networks. INFOCOM 2008:361-365
4204 Raju Kumar, Heesook Choi, Jaesheung Shin, Tom La Porta: Channelization for Network Coding in Wireless Networks. INFOCOM 2008:366-370
4203 Jilin Le, John C. S. Lui, Dah-Ming Chiu: How Many Packets Can We Encode? - An Analysis of Practical Wireless Network Coding. INFOCOM 2008:371-375
4202 Alireza Keshavarz-Haddad, Rudolf H. Riedi: Bounds on the Benefit of Network Coding: Throughput and Energy Saving in Wireless Networks. INFOCOM 2008:376-384
4201 Jia Liu, Y. Thomas Hou: Weighted Proportional Fairness Capacity of Gaussian MIMO Broadcast Channels. INFOCOM 2008:385-393
4200 Ishai Menache, Nahum Shimkin: Decentralized Rate Regulation in Random Access Channels. INFOCOM 2008:394-402
4199 Ishai Menache, Nahum Shimkin: Efficient Rate-Constrained Nash Equilibrium in Collision Channels with State Information. INFOCOM 2008:403-411
4198 Ioannis Broustis, Aggelos Vlavianos, Prashant Krishnamurthy, Srikanth V. Krishnamurthy: CTU: Capturing Throughput Dependencies in UWB Networks. INFOCOM 2008:412-420
4197 Xiliang Zhong, Cheng-Zhong Xu: Online Energy Efficient Packet Scheduling with Delay Constraints in Wireless Networks. INFOCOM 2008:421-429
4196 Sungoh Kwon, Ness B. Shroff: Unified Energy-Efficient Routing for Multi-Hop Wireless Networks. INFOCOM 2008:430-438
4195 Deokwoo Jung, Andreas Savvides: An Energy Efficiency Evaluation for Sensor Nodes with Multiple Processors, Radios and Sensors. INFOCOM 2008:439-447
4194 Ron Banner, Ariel Orda: Multi-Objective Topology Control in Wireless Networks. INFOCOM 2008:448-456
4193 Joseph Chabarek, Joel Sommers, Paul Barford, Cristian Estan, David Tsiang, Stephen J. Wright: Power Awareness in Network Design and Routing. INFOCOM 2008:457-465
4192 Dahai Xu, Mung Chiang, Jennifer Rexford: Link-State Routing with Hop-by-Hop Forwarding Can Achieve Optimal Traffic Engineering. INFOCOM 2008:466-474
4191 Haim Zlatokrilov, Hanoch Levy: Area Avoidance Routing in Distance-Vector Networks. INFOCOM 2008:475-483
4190 Lei Ying, R. Srikant, Donald F. Towsley: Cluster-Based Back-Pressure Routing Algorithm. INFOCOM 2008:484-492
4189 Qinghai Gao, Junshan Zhang, Stephen V. Hanly: Cross-Layer Rate Control in Wireless Networks with Lossy Links: Leaky-Pipe Flow, Effective Network Utility Maximization and Hop-by-Hop Algorithms. INFOCOM 2008:493-501
4188 Balaji Rengarajan, Gustavo de Veciana: Architecture and Abstractions for Environment and Traffic Aware System-Level Coordination of Wireless Networks: The Downlink Case. INFOCOM 2008:502-510
4187 Reuven Cohen, Liran Katzir: Computational Analysis and Efficient Algorithms for Micro and Macro OFDMA Scheduling. INFOCOM 2008:511-519
4186 Ulas C. Kozat: On the Throughput Capacity of Opportunistic Multicasting with Erasure Codes. INFOCOM 2008:520-528
4185 Sanjeev Khanna, Santosh S. Venkatesh, Omid Fatemieh, Fariba Khan, Carl A. Gunter: Adaptive SelectiveVerification. INFOCOM 2008:529-537
4184 Xukai Zou, Yuan-Shun Dai, Elisa Bertino: A Practical and Flexible Key Management Mechanism For Trusted Collaborative Computing. INFOCOM 2008:538-546
4183 Toby Xu, Ying Cai: Exploring Historical Location Data for Anonymity Preservation in Location-Based Services. INFOCOM 2008:547-555
4182 Zhenyu Zhong, Lakshmish Ramaswamy, Kang Li: ALPACAS: A Large-Scale Privacy-Aware Collaborative Anti-Spam System. INFOCOM 2008:556-564
4181 Gang Zhou, Jian Lu, Chieh-Yih Wan, Mark D. Yarvis, John A. Stankovic: BodyQoS: Adaptive and Radio-Agnostic QoS for Body Sensor Networks. INFOCOM 2008:565-573
4180 Leijun Huang, Sanjeev Setia: CORD: Energy-Efficient Reliable Bulk Data Dissemination in Sensor Networks. INFOCOM 2008:574-582
4179 Jaehoon Jeong, Shuo Guo, Tian He, David Hung-Chang Du: APL: Autonomous Passive Localization for Wireless Sensors Deployed in Road Networks. INFOCOM 2008:583-591
4178 Yanmin Zhu, Lionel M. Ni: Probabilistic Approach to Provisioning Guaranteed QoS for Distributed Event Detection. INFOCOM 2008:592-600
4177 Mathilde Durvy, Olivier Dousse, Patrick Thiran: Border Effects, Fairness, and Phase Transition in Large Wireless Networks. INFOCOM 2008:601-609
4176 Simone Merlin, Nitin H. Vaidya, Michele Zorzi: Resource Allocation in Multi-Radio Multi-Channel Multi-Hop Wireless Networks. INFOCOM 2008:610-618
4175 Umut Akyol, Matthew Andrews, Piyush Gupta, John D. Hobby, Iraj Saniee, Alexander L. Stolyar: Joint Scheduling and Congestion Control in Mobile Ad-Hoc Networks. INFOCOM 2008:619-627
4174 Hongning Dai, Kam-Wing Ng, Raymond Chi-Wing Wong, Min-You Wu: On the Capacity of Multi-Channel Wireless Networks Using Directional Antennas. INFOCOM 2008:628-636
4173 Duan-Shin Lee, Cheng-Shang Chang, Jay Cheng, Horng-Sheng Yan: Queueing Analysis of Loss Systems with Variable Optical Delay Lines. INFOCOM 2008:637-645
4172 Byongkwon Moon: Emergency Handling in Ethernet Passive Optical Networks Using Priority-Based Dynamic Bandwidth Allocation. INFOCOM 2008:646-654
4171 Fernando Solano, Ruth van Caenegem, Didier Colle, José-Luis Marzo, Mario Pickavet, Ramón Fabregat, Piet Demeester: All-Optical Label Stacking: Easing the Trade-offs Between Routing and Architecture Cost in All-Optical Packet Switching. INFOCOM 2008:655-663
4170 Jay Cheng, Cheng-Shang Chang, Tsz-Hsuan Chao, Duan-Shin Lee, Ching-Ming Lien: On Constructions of Optical Queues with a Limited Number of Recirculations. INFOCOM 2008:664-672
4169 Eitan Altman, Konstantin Avrachenkov, Andrey Garnaev: Closed Form Solutions for Symmetric Water Filling Games. INFOCOM 2008:673-681
4168 Huseyin Mutlu, Murat Alanyali, David Starobinski: Spot Pricing of Secondary Spectrum Usage in Wireless Cellular Networks. INFOCOM 2008:682-690
4167 Alexander L. Stolyar, Harish Viswanathan: Self-Organizing Dynamic Fractional Frequency Reuse in OFDMA Systems. INFOCOM 2008:691-699
4166 David Amzallag, Reuven Bar-Yehuda, Danny Raz, Gabriel Scalosub: Cell Selection in 4G Cellular Networks. INFOCOM 2008:700-708
4165 Satyajeet Ahuja, Srinivasan Ramasubramanian, Marwan Krunz: SRLG Failure Localization in All-Optical Networks Using Monitoring Cycles and Paths. INFOCOM 2008:700-708
4164 Mohammad Nassiri, Martin Heusse, Andrzej Duda: A Novel Access Method for Supporting Absolute and Proportional Priorities in 80211 WLANs. INFOCOM 2008:709-717
4163 Anand Prabhu Subramanian, Pralhad Deshpande, Jie Gao, Samir R. Das: Drive-By Localization of Roadside WiFi Networks. INFOCOM 2008:718-725
4162 Sangho Shin, Henning Schulzrinne: Call Admission Control in IEEE 80211 WLANs Using QP-CAT. INFOCOM 2008:726-734
4161 Shravan K. Rayanchu, Arunesh Mishra, Dheeraj Agrawal, Sharad Saha, Suman Banerjee: Diagnosing Wireless Packet Losses in 80211: Separating Collision from Weak Signal. INFOCOM 2008:735-743
4160 Gentian Jakllari, Stephan Eidenbenz, Nicolas W. Hengartner, Srikanth V. Krishnamurthy, Michalis Faloutsos: Link Positions Matter: A Noncommutative Routing Metric for Wireless Mesh Network. INFOCOM 2008:744-752
4159 Hithesh Nama, Narayan B. Mandayam, Roy D. Yates: Network Formation Among Selfish Energy-Constrained Wireless Devices. INFOCOM 2008:753-761
4158 Ehsan Aryafar, Omer Gurewitz, Edward W. Knightly: Distance-1 Constrained Channel Assignment in Single Radio Wireless Mesh Networks. INFOCOM 2008:762-770
4157 Debmalya Panigrahi, Partha Dutta, Sharad Jaiswal, K. V. M. Naidu, Rajeev Rastogi: Minimum Cost Topology Construction for Rural Wireless Mesh Networks. INFOCOM 2008:771-779
4156 Animashree Anandkumar, Lang Tong, Ananthram Swami, Anthony Ephremides: Minimum Cost Data Aggregation with Localized Processing for Statistical Inference. INFOCOM 2008:780-788
4155 Sol Lederer, Yue Wang, Jie Gao: Connectivity-Based Localization of Large Scale Sensor Networks with Complex Shape. INFOCOM 2008:789-797
4154 Fenghui Zhang, Anxiao Jiang, Jianer Chen: Robust Planarization of Unlocalized Wireless Sensor Networks. INFOCOM 2008:798-806
4153 Joohwan Kim, Xiaojun Lin, Ness B. Shroff, Prasun Sinha: On Maximizing the Lifetime of Delay-Sensitive Wireless Sensor Networks with Anycast. INFOCOM 2008:807-815
4152 Kai Zeng, Wenjing Lou, Hongqiang Zhai: On End-to-End Throughput of Opportunistic Routing in Multirate and Multihop Wireless Networks. INFOCOM 2008:816-824
4151 Zhen Jiang, Junchao Ma, Wei Lou, Jie Wu: An Information Model for Geographic Greedy Forwarding in Wireless Ad-Hoc Sensor Networks. INFOCOM 2008:825-833
4150 Roland Flury, Roger Wattenhofer: Randomized 3D Geographic Routing. INFOCOM 2008:834-842
4149 Xin Wang, J. J. Garcia-Luna-Aceves: Embracing Interference in Ad Hoc Networks Using Joint Routing and Scheduling with Multiple Packet Reception. INFOCOM 2008:843-851
4148 Eun-Chan Park, Hwangnam Kim, Jae-Young Kim, Han Seok Kim: Dynamic Bandwidth Request-Allocation Algorithm for Real-Time Services in IEEE 80216 Broadband Wireless Access Networks. INFOCOM 2008:852-860
4147 Matthew Andrews, Lisa Zhang: Creating Templates to Achieve Low Delay in Multi-Carrier Frame-Based Wireless Data Systems. INFOCOM 2008:861-869
4146 Lili Cao, Haitao Zheng: Stable and Efficient Spectrum Access in Next Generation Dynamic Spectrum Networks. INFOCOM 2008:870-878
4145 Xiaolu Zhang, Wenhua Jiao, Meixia Tao: End-to-End Resource Allocation in OFDM Based Linear Multi-Hop Networks. INFOCOM 2008:879-887
4144 Patrick Maillé, Bruno Tuffin: Analysis of Price Competition in a Slotted Resource Allocation Game. INFOCOM 2008:888-896
4143 Douglas Comer, Maxim Martynov: Design and Analysis of Hybrid Packet Schedulers. INFOCOM 2008:897-905
4142 Chuanxiong Guo: Improved Smoothed Round Robin Schedulers for High-Speed Packet Networks. INFOCOM 2008:906-914
4141 Edson H. Watanabe, Daniel S. Menasché, Edmundo de Souza e Silva, Rosa Maria Meri Leão: Modeling Resource Sharing Dynamics of VoIP Users over a WLAN Using a Game-Theoretic Approach. INFOCOM 2008:915-923
4140 Injong Rhee, Minsu Shin, Seongik Hong, Kyunghan Lee, Song Chong: On the Levy-Walk Nature of Human Mobility. INFOCOM 2008:924-932
4139 Wenye Wang, Ming Zhao: Joint Effects of Radio Channels and Node Mobility on Link Dynamics in Wireless Networks. INFOCOM 2008:933-941
4138 Hongzi Zhu, Yanmin Zhu, Minglu Li, Lionel M. Ni: HERO: Online Real-Time Vehicle Tracking in Shanghai. INFOCOM 2008:942-950
4137 Xin Hu, Erran L. Li, Zhuoqing Morley Mao, Yang Richard Yang: Wide-Area IP Network Mobility. INFOCOM 2008:951-959
4136 Rik Sarkar, Xianjin Zhu, Jie Gao, Leonidas J. Guibas, Joseph S. B. Mitchell: Iso-Contour Queries and Gradient Descent with Guaranteed Delivery in Sensor Networks. INFOCOM 2008:960-967
4135 Xiaoming Lu, Matt Spear, Karl N. Levitt, Shyhtsun Felix Wu: iBubble: Multi-Keyword Routing Protocol for Heterogeneous Wireless Sensor Networks. INFOCOM 2008:968-976
4134 Lei Ying, Zhen Liu, Donald F. Towsley, Cathy H. Xia: Distributed Operator Placement and Data Caching in Large-Scale Sensor Networks. INFOCOM 2008:977-985
4133 Patrick Denantes, Florence Bénézit, Patrick Thiran, Martin Vetterli: Which Distributed Averaging Algorithm Should I Choose for my Sensor Network? INFOCOM 2008:986-994
4132 Ramakrishna Gummadi, Kyomin Jung, Devavrat Shah, Ramavarapu S. Sreenivas: Feasible Rate Allocation in Wireless Networks. INFOCOM 2008:995-1003
4131 Erran L. Li, Martin Pal, Yang Richard Yang: Proportional Fairness in Multi-Rate Wireless LANs. INFOCOM 2008:1004-1012
4130 Yan Gao, Jennifer C. Hou, Hoang Nguyen: Topology Control for Maintaining Network Connectivity and Maximizing Network Capacity under the Physical Model. INFOCOM 2008:1013-1021
4129 Cunqing Hua, Rong Zheng: Starvation Modeling and Identification in Dense 80211 Wireless Community Networks. INFOCOM 2008:1022-1030
4128 Bo Li, Susu Xie, Yang Qu, Gabriel Yik Keung, Chuang Lin, Jiangchuan Liu, Xinyan Zhang: Inside the New Coolstreaming: Principles, Measurements and Performance Implications. INFOCOM 2008:1031-1039
4127 Thanasis G. Papaioannou, George D. Stamoulis: Achieving Honest Ratings with Reputation-Based Fines in Electronic Markets. INFOCOM 2008:1040-1048
4126 Zhongmei Yao, Dmitri Loguinov: Understanding Disconnection and Stabilization of Chord. INFOCOM 2008:1049-1057
4125 Dongni Ren, Yui Tung Hillman Li, Shueng-Han Gary Chan: On Reducing Mesh Delay for Peer-to-Peer Live Streaming. INFOCOM 2008:1058-1066
4124 Fang Hao, Murali S. Kodialam, T. V. Lakshman: Incremental Bloom Filters. INFOCOM 2008:1067-1075
4123 Mehmet Hadi Gunes, Kamil Saraç: Resolving Anonymous Routers in Internet Topology Measurement Studies. INFOCOM 2008:1076-1084
4122 Pierre Fraigniaud, Emmanuelle Lebhar, Laurent Viennot: The Inframetric Model for the Internet. INFOCOM 2008:1085-1093
4121 Xiaoming Wang, Xiliang Liu, Dmitri Loguinov: Modeling the Evolution of Degree Correlation in Scale-Free Topology Generators. INFOCOM 2008:1094-1102
4120 Changhee Joo, Xiaojun Lin, Ness B. Shroff: Understanding the Capacity Region of the Greedy Maximal Scheduling Algorithm in Multi-Hop Wireless Networks. INFOCOM 2008:1103-1111
4119 Ming Li, Hua Zhu, Yang Xiao, Imrich Chlamtac, Balakrishnan Prabhakaran: Adaptive Frame Concatenation Mechanisms for QoS in Multi-Rate Wireless Ad Hoc Networks. INFOCOM 2008:1112-1120
4118 Supratim Deb, Karan Mangla, K. V. M. Naidu: Fast and Distributed Computation of Schedules in Wireless Networks. INFOCOM 2008:1121-1129
4117 Anand Srinivas, Eytan Modiano: Joint Node Placement and Assignment for Throughput Optimization in Mobile Backbone Networks. INFOCOM 2008:1130-1138
4116 Gil Zussman, Andrew Brzezinski, Eytan Modiano: Multihop Local Pooling for Distributed Throughput Maximization in Wireless Networks. INFOCOM 2008:1139-1147
4115 Deepti Chafekar, Dave Levin, V. S. Anil Kumar, Madhav V. Marathe, Srinivasan Parthasarathy, Aravind Srinivasan: Capacity of Asynchronous Random-Access Scheduling in Wireless Networks. INFOCOM 2008:1148-1156
4114 Kai Yang, Yihong Wu, Jianwei Huang, Xiaodong Wang, Sergio Verdú: Distributed Robust Optimization for Communication Networks. INFOCOM 2008:1157-1165
4113 Deepti Chafekar, V. S. Anil Kumar, Madhav V. Marathe, Srinivasan Parthasarathy, Aravind Srinivasan: Approximation Algorithms for Computing Capacity of Wireless Networks with SINR Constraints. INFOCOM 2008:1166-1174
4112 Xianjin Zhu, Rik Sarkar, Jie Gao, Joseph S. B. Mitchell: Light-Weight Contour Tracking in Wireless Sensor Networks. INFOCOM 2008:1175-1183
4111 Tian He, John A. Stankovic, Radu Stoleru, Yu Gu, Yafeng Wu: Essentia: Architecting Wireless Sensor Networks Asymmetrically. INFOCOM 2008:1184-1192
4110 Yafeng Wu, John A. Stankovic, Tian He, Shan Lin: Realistic and Efficient Multi-Channel Communications in Wireless Sensor Networks. INFOCOM 2008:1193-1201
4109 Bartlomiej Blaszczyszyn, Bozidar Radunovic: Using Transmit-Only Sensors to Reduce Deployment Cost of Wireless Sensor Networks. INFOCOM 2008:1202-1210
4108 Jerry T. Chiang, Yih-Chun Hu: Dynamic Jamming Mitigation for Wireless Broadcast Networks. INFOCOM 2008:1211-1219
4107 Liran Ma, Amin Y. Teymorian, Xiuzhen Cheng: A Hybrid Rogue Access Point Protection Framework for Commodity Wi-Fi Networks. INFOCOM 2008:1220-1228
4106 Rongxing Lu, Xiaodong Lin, Haojin Zhu, Pin-Han Ho, Xuemin Shen: ECPP: Efficient Conditional Privacy Preservation Protocol for Secure Vehicular Communications. INFOCOM 2008:1229-1237
4105 Maxim Raya, Panagiotis Papadimitratos, Virgil D. Gligor, Jean-Pierre Hubaux: On Data-Centric Trust Establishment in Ephemeral Ad Hoc Networks. INFOCOM 2008:1238-1246
4104 Joshua Robinson, Mustafa Uysal, Ram Swaminathan, Edward W. Knightly: Adding Capacity Points to a Wireless Mesh Network Using Local Search. INFOCOM 2008:1247-1255
4103 Minkyong Kim, Zhen Liu, Srinivasan Parthasarathy, Dimitrios E. Pendarakis, Hao Yang: Association Control in Mobile Wireless Networks. INFOCOM 2008:1256-1264
4102 Emrah Bayraktaroglu, Christopher King, Xin Liu, Guevara Noubir, Rajmohan Rajaraman, Bishal Thapa: On the Performance of IEEE 80211 under Jamming. INFOCOM 2008:1265-1273
4101 Muhammad Usman Ilyas, Hayder Radha: Measurement Based Analysis and Modeling of the Error Process in IEEE 802154 LR-WPANs. INFOCOM 2008:1274-1282
4100 Miao Zhao, Ming Ma, Yuanyuan Yang: Mobile Data Gathering with Space-Division Multiple Access in Wireless Sensor Networks. INFOCOM 2008:1283-1291
4099 Yi Shi, Y. Thomas Hou: A Distributed Optimization Algorithm for Multi-Hop Cognitive Radio Networks. INFOCOM 2008:1292-1300
4098 Rahul Urgaonkar, Michael J. Neely: Opportunistic Scheduling with Reliability Guarantees in Cognitive Radio Networks. INFOCOM 2008:1301-1309
4097 Mathias Kurth, Anatolij Zubow, Jens-Peter Redlich: Cooperative Opportunistic Routing Using Transmit Diversity in Wireless Mesh Networks. INFOCOM 2008:1310-1318
4096 Nikhil Bansal, Ranjita Bhagwan, Navendu Jain, Yoonho Park, Deepak S. Turaga, Chitra Venkatramani: Towards Optimal Resource Allocation in Partial-Fault Tolerant Applications. INFOCOM 2008:1319-1327
4095 Sundar Subramanian, Sanjay Shakkottai, Piyush Gupta: Optimal Geographic Routing for Wireless Networks with Near-Arbitrary Holes and Traffic. INFOCOM 2008:1328-1336
4094 Di Wang, Alhussein A. Abouzeid: Link State Routing Overhead in Mobile Ad Hoc Networks: A Rate-Distortion Formulation. INFOCOM 2008:1337-1345
4093 Fan Li, Yu Wang: Circular Sailing Routing for Wireless Networks. INFOCOM 2008:1346-1354
4092 Chuan Wu, Baochun Li, Shuqiao Zhao: Multi-Channel Live P2P Streaming: Refocusing on Servers. INFOCOM 2008:1355-1363
4091 Feng Wang, Jiangchuan Liu, Yongqiang Xiong: Stable Peers: Existence, Importance, and Application in Peer-to-Peer Live Video Streaming. INFOCOM 2008:1364-1372
4090 Shun-Yun Hu, Ting-Hao Huang, Shao-Chen Chang, Wei-Lun Sung, Jehn-Ruey Jiang, Bing-Yu Chen: FLoD: A Framework for Peer-to-Peer 3D Streaming. INFOCOM 2008:1373-1381
4089 Haodong Wang, Chiu Chiang Tan, Qun Li: Snoogle: A Search Engine for the Physical World. INFOCOM 2008:1382-1390
4088 Sheng Zhong, Murtuza Jadliwala, Shambhu J. Upadhyaya, Chunming Qiao: Towards a Theory of Robust Localization Against Malicious Beacon Nodes. INFOCOM 2008:1391-1399
4087 Premkumar Karumbu, Anurag Kumar: Optimal Sleep-Wake Scheduling for Quickest Intrusion Detection Using Wireless Sensor Networks. INFOCOM 2008:1400-1408
4086 Zhen Yu, Yawen Wei, Bhuvaneswari Ramkumar, Yong Guan: An Efficient Signature-Based Scheme for Securing Network Coding Against Pollution Attacks. INFOCOM 2008:1409-1417
4085 Wensheng Zhang, Nalin Subramanian, Guiling Wang: Lightweight and Compromise-Resilient Message Authentication in Sensor Networks. INFOCOM 2008:1418-1426
4084 Senhua Huang, Xin Liu, Zhi Ding: Opportunistic Spectrum Access in Cognitive Radio Networks. INFOCOM 2008:1427-1435
4083 Guner D. Celik, Gil Zussman, Wajahat F. Khan, Eytan Modiano: MAC for Networks with Multipacket Reception Capability and Spatially Distributed Nodes. INFOCOM 2008:1436-1444
4082 Zheng Zeng, Yong Yang, Jennifer C. Hou: How Physical Carrier Sense Affects System Throughput in IEEE 80211 Wireless Networks. INFOCOM 2008:1445-1453
4081 Dong Zheng, Min Cao, Junshan Zhang, P. R. Kumar: Channel Aware Distributed Scheduling for Exploiting Multi-Receiver Diversity and Multiuser Diversity in Ad-Hoc Networks: A Unified PHY/MAC Approach. INFOCOM 2008:1454-1462
4080 Yufang Xi, Edmund M. Yeh: Pricing, Competition, and Routing for Selfish and Strategic Nodes in Multi-Hop Relay Networks. INFOCOM 2008:1463-1471
4079 Rui Zhang-Shen, Nick McKeown: Guaranteeing Quality of Service to Peering Traffic. INFOCOM 2008:1472-1480
4078 Ravi S. Prasad, Marina Thottan, T. V. Lakshman: A Stateless and Light-Weight Bandwidth Management Mechanism for Elastic Traffic. INFOCOM 2008:1481-1489
4077 Gianluca Rizzo, Jean-Yves Le Boudec: Stability and Delay Bounds in Heterogeneous Networks of Aggregate Schedulers. INFOCOM 2008:1490-1498
4076 Shuhui Yang, Jie Wu, Mihaela Cardei: Efficient Broadcast in MANETs Using Network Coding and Directional Antennas. INFOCOM 2008:1499-1507
4075 Yunfeng Lin, Baochun Li, Ben Liang: Efficient Network Coded Data Transmissions in Disruption Tolerant Networks. INFOCOM 2008:1508-1516
4074 I-Hong Hou, Yu-En Tsai, Tarek F. Abdelzaher, Indranil Gupta: AdapCode: Adaptive Network Coding for Code Updates in Wireless Sensor Networks. INFOCOM 2008:1517-1525
4073 Wei Pu, Chong Luo, Shipeng Li, Chang Wen Chen: Continuous Network Coding in Wireless Relay Networks. INFOCOM 2008:1526-1534
4072 Nicholas B. Chang, Mingyan Liu: Competitive Analysis of Opportunistic Spectrum Access Strategies. INFOCOM 2008:1535-1542
4071 Fan Wu, Sheng Zhong, Chunming Qiao: Globally Optimal Channel Assignment for Non-Cooperative Wireless Networks. INFOCOM 2008:1543-1551
4070 Mohammad Hossein Manshaei, Julien Freudiger, Márk Félegyházi, Peter Marbach, Jean-Pierre Hubaux: On Wireless Social Community Networks. INFOCOM 2008:1552-1560
4069 Greger Wikstrand, Thomas Nilsson, Mark S. Dougherty: Prioritized Repeated Eliminations Multiple Access: A Novel Protocol for Wireless Networks. INFOCOM 2008:1561-1569
4068 Vivek Raghunathan, Vivek S. Borkar, Min Cao, P. R. Kumar: Index Policies for Real-Time Multicast Scheduling for Wireless Broadcast Systems. INFOCOM 2008:1570-1578
4067 Supratim Deb, Sharad Jaiswal, Kanthi Nagaraj: Real-Time Video Multicast in WiMAX Networks. INFOCOM 2008:1579-1587
4066 Zongpeng Li: Cross-Monotonic Multicast. INFOCOM 2008:1588-1596
4065 Knut-Helge Vik, Pål Halvorsen, Carsten Griwodz: Multicast Tree Diameter for Dynamic Distributed Interactive Applications. INFOCOM 2008:1597-1605
4064 Lap Kong Law, Srikanth V. Krishnamurthy, Michalis Faloutsos: Capacity of Hybrid Cellular-Ad Hoc Data Networks. INFOCOM 2008:1606-1614
4063 Yaling Yang, Jun Wang: Design Guidelines for Routing Metrics in Multihop Wireless Networks. INFOCOM 2008:1615-1623
4062 Qunfeng Dong, Yigal Bejerano: Building Robust Nomadic Wireless Mesh Networks Using Directional Antennas. INFOCOM 2008:1624-1632
4061 Jingpu Shi, Omer Gurewitz, Vincenzo Mancuso, Joseph Camp, Edward W. Knightly: Measurement and Modeling of the Origins of Starvation in Congestion Controlled Mesh Networks. INFOCOM 2008:1633-1641
4060 Roman Chertov, Sonia Fahmy, Ness B. Shroff: A Device-Independent Router Model. INFOCOM 2008:1642-1650
4059 Yu Gu, Lee Breslau, Nick G. Duffield, Subhabrata Sen: GRE Encapsulated Multicast Probing: A Scalable Technique for Measuring One-Way Loss. INFOCOM 2008:1651-1659
4058 Matthieu Latapy, Clémence Magnien: Complex Network Measurements: Estimating the Relevance of Observed Properties. INFOCOM 2008:1660-1668
4057 Jens B. Schmitt, Frank A. Zdarsky, Markus Fidler: Delay Bounds under Arbitrary Multiplexing: When Network Calculus Leaves You in the Lurch. INFOCOM 2008:1669-1677
4056 Milan Vojnovic, Varun Gupta, Thomas Karagiannis, Christos Gkantsidis: Sampling Strategies for Epidemic-Style Information Dissemination. INFOCOM 2008:1678-1686
4055 Jinyuan Sun, Chi Zhang, Yuguang Fang: A Security Architecture Achieving Anonymity and Traceability in Wireless Mesh Networks. INFOCOM 2008:1687-1695
4054 Parbati K. Manna, Shigang Chen, Sanjay Ranka: Exact Modeling of Propagation for Permutation-Scanning Worms. INFOCOM 2008:1696-1704
4053 Parminder Chhabra, Clayton Scott, Eric D. Kolaczyk, Mark Crovella: Distributed Spatial Anomaly Detection. INFOCOM 2008:1705-1713
4052 Stefano Castelli, Paolo Costa, Gian Pietro Picco: HyperCBR: Large-Scale Content-Based Routing in a Multidimensional Space. INFOCOM 2008:1714-1722
4051 Krishna P. N. Puttaswamy, Alessandra Sala, Ben Y. Zhao: Searching for Rare Objects Using Index Replication. INFOCOM 2008:1723-1731
4050 Sung-Ju Lee, Sujata Banerjee, Puneet Sharma, Praveen Yalagandula, Sujoy Basu: Bandwidth-Aware Routing in Overlay Networks. INFOCOM 2008:1732-1740
4049 Rita H. Wouhaybi, Puneet Sharma, Sujata Banerjee, Andrew T. Campbell: Minerva: Learning to Infer Network Path Properties. INFOCOM 2008:1741-1749
4048 Younggeun Cho, Chan-Soo Hwang, Fouad A. Tobagi: Design of Robust Random Access Protocols For Wireless Networks Using Game Theoretic Models. INFOCOM 2008:1750-1758
4047 Eitan Altaian, Yezekael Hayel: A Stochastic Evolutionary Game of Energy Management in a Distributed Aloha Network. INFOCOM 2008:1759-1767
4046 Yong Sheng, Keren Tan, Guanling Chen, David Kotz, Andrew Campbell: Detecting 80211 MAC Layer Spoofing Using Received Signal Strength. INFOCOM 2008:1768-1776
4045 Gardar Hauksson, Murat Alanyali: Wireless Medium Access via Adaptive Backoff: Delay and Loss Minimization. INFOCOM 2008:1777-1785
4044 Weirong Jiang, Qingbo Wang, Viktor K. Prasanna: Beyond TCAMs: An SRAM-Based Parallel Multi-Pipeline Architecture for Terabit IP Lookup. INFOCOM 2008:1786-1794
4043 Heeyeol Yu, Rabi N. Mahapatra: A Memory-Efficient Hashing by Multi-Predicate Bloom Filters for Packet Classification. INFOCOM 2008:1795-1803
4042 Viet Thang Nguyen, Miklós Telek: Time Blocking Analysis in Time-Driven Switching Networks. INFOCOM 2008:1804-1812
4041 Upendra Shevade, Ravi Kokku, Harrick M. Vin: Run-Time System for Scalable Network Services. INFOCOM 2008:1813-1821
4040 Qian Lv, George N. Rouskas: On Optimal Sizing of Tiered Network Services. INFOCOM 2008:1822-1830
4039 Marcelo Yannuzzi, Xavier Masip-Bruin, René Serral-Gracià, Eva Marín-Tordera, Alexander Sprintson, Ariel Orda: Maximum Coverage at Minimum Cost for Multi-Domain IP/MPLS Networks. INFOCOM 2008:1831-1839
4038 Peter B. Key, Laurent Massoulié, Dan-Cristian Tomozei: Non-Metric Coordinates for Predicting Network Proximity. INFOCOM 2008:1840-1848
4037 K. V. M. Naidu, Debmalya Panigrahi, Rajeev Rastogi: Detecting Anomalies Using End-to-End Path Measurements. INFOCOM 2008:1849-1857
4036 Hermann S. Lichte, Stefan Valentin, Holger Karl, Imad Aad, Luis Loyola, Jörg Widmer: Design and Evaluation of a Routing-Informed Cooperative MAC Protocol for Ad Hoc Networks. INFOCOM 2008:1858-1866
4035 Zygmunt J. Haas, Edward Y. Hua: Residual Link Lifetime Prediction with Limited Information Input in Mobile Ad Hoc Networks. INFOCOM 2008:1867-1875
4034 Ruiliang Chen, Jung-Min Park, Kaigui Bian: Robust Distributed Spectrum Sensing in Cognitive Radio Networks. INFOCOM 2008:1876-1884
4033 Fan Wang, Marwan Krunz, Shuguang Cui: Spectrum Sharing in Cognitive Radio Networks. INFOCOM 2008:1885-1893
4032 Young-June Choi, Kang G. Shin: Power-Adjusted Random Access to a Wireless Channel. INFOCOM 2008:1894-1902
4031 Pavan Nuggehalli, Mahasweta Sarkar, Kishor Kulkarni, Ramesh R. Rao: A Game-Theoretic Analysis of QoS in Wireless MAC. INFOCOM 2008:1903-1911
4030 Lin X. Cai, Lin Cai, Xuemin Shen, Jon W. Mark: Optimizing Distributed MAC Protocol for Multi-Hop Ultra-Wideband Wireless Networks. INFOCOM 2008:1912-1920
4029 Alexander W. Min, Kang G. Shin: Exploiting Multi-Channel Diversity in Spectrum-Agile Networks. INFOCOM 2008:1921-1929
4028 Xun Wang, Wei Yu, Xinwen Fu, Dong Xuan, Wei Zhao: iLOC: An invisible LOCalization Attack to Internet Threat Monitoring Systems. INFOCOM 2008:1930-1938
4027 Anirban Banerjee, Dhiman Barman, Michalis Faloutsos, Laxmi N. Bhuyan: Cyber-Fraud is One Typo Away. INFOCOM 2008:1939-1947
4026 Jean-Chrysostome Bolot, Marc Lelarge: A New Perspective on Internet Security using Insurance. INFOCOM 2008:1948-1956
4025 Mohammad Salim Ahmed, Ehab Al-Shaer, Latifur Khan: A Novel Quantitative Approach For Measuring Network Security. INFOCOM 2008:1957-1965
4024 Xin Liu, Wei Wei, Chunming Qiao, Ting Wang, Weisheng Hu, Wei Guo, Min-You Wu: Task Scheduling and Lightpath Establishment in Optical Grids. INFOCOM 2008:1966-1974
4023 Guangzhi Li, Angela L. Chiu, Robert D. Doverspike, Martin Birk, Don Husa, Nick Zanki: On Transient-Constrained Wavelength Assignment. INFOCOM 2008:1975-1983
4022 Quanyan Zhu, Lacra Pavel: Theory of Linear Games with Constraints and Its Application to Power Control of Optical Networks. INFOCOM 2008:1984-1992
4021 Xiaolin Wang, Yan Cai, Sheng Xiao, Weibo Gong: A Three-Stage Load-Balancing Switch. INFOCOM 2008:1993-2001
4020 Tony Tong Lee: The Kraft's Inequality of Scheduling for Packet-Switched Clos Networks. INFOCOM 2008:2002-2010
4019 Gabriel Paillard, Vlady Ravelomanana: Limit Theorems for Degree of Coverage and Lifetime in Large Sensor Networks. INFOCOM 2008:2011-2019
4018 Guanqun Yang, Vinod Shukla, Daji Qiao: A Novel On-Demand Framework for Collaborative Object Detection in Sensor Networks. INFOCOM 2008:2020-2028
4017 Huang Lee, Abtin Keshavarzian: Towards Energy-Optimal and Reliable Data Collection via Collision-Free Scheduling in Wireless Sensor Networks. INFOCOM 2008:2029-2037
4016 Tommaso Melodia, Ian F. Akyildiz: Cross-Layer Quality of Service Support for UWB Wireless Multimedia Sensor Networks. INFOCOM 2008:2038-2046
4015 Murat Demirbas, Onur Soysal, Muzammil Hussain: A Singlehop Collaborative Feedback Primitive for Wireless Sensor Networks. INFOCOM 2008:2047-2055
4014 Haithem Al-Mefleh, J. Morris Chang: A New ACK Policy To Mitigate the Effects of Coexisting IEEE 80211/80211e Devices. INFOCOM 2008:2056-2064
4013 Caleb T. Phillips, Suresh Singh: An Empirical Activity Model for WLAN Users. INFOCOM 2008:2065-2073
4012 Seong-il Hahm, Jongwon Lee, Chong-kwon Kim: Opportunistic Waiver of Data Reception for Exploiting Multiuser Diversity in the Uplink of IEEE 80211 WLAN. INFOCOM 2008:2074-2082
4011 Jiansong Zhang, Kun Tan, Jun Zhao, Haitao Wu, Yongguang Zhang: A Practical SNR-Guided Rate Adaptation. INFOCOM 2008:2083-2091
4010 Yigal Bejerano, Dongwook Lee, Prasun Sinha, Lisa Zhang: Approximation Algorithms for Scheduling Real-Time Multicast Flows in Wireless LANs. INFOCOM 2008:2092-2100
4009 Xuwen Yu, Surendar Chandra: Delay Tolerant Collaborations among Campus-Wide Wireless Users. INFOCOM 2008:2101-2109
4008 Quan Yuan, Jie Wu: DRIP: A Dynamic VoRonoi RegIons-Based Publish/Subscribe Protocol in Mobile Networks. INFOCOM 2008:2110-2118
4007 Saswati Sarkar, Eitan Altman, Rachid El Azouzi, Yezekael Hayel: Information Concealing Games. INFOCOM 2008:2119-2127
4006 Hui Song, Sencun Zhu, Guohong Cao: SVATS: A Sensor-Network-Based Vehicle Anti-Theft System. INFOCOM 2008:2128-2136
4005 Lifeng Sang, Anish Arora: Spatial Signatures for Lightweight Security in Wireless Sensor Networks. INFOCOM 2008:2137-2145
4004 Krister Jacobsson, Lachlan L. H. Andrew, Ao Tang, Karl Henrik Johansson, Håkan Hjalmarsson, Steven H. Low: ACK-Clocking Dynamics: Modelling the Interaction between Windows and the Network. INFOCOM 2008:2146-2152
4003 Kiran Misra, Shirish S. Karande, Hayder Radha: Maximal Recovery Network Coding under Topology Constraint. INFOCOM 2008:2153-2161
4002 Jin Jin, Baochun Li, Taegon Kong: Is Random Network Coding Helpful in WiMAX? INFOCOM 2008:2162-2170
4001 Majid Ghaderi, Donald F. Towsley, James F. Kurose: Reliability Gain of Network Coding in Lossy Wireless Networks. INFOCOM 2008:2171-2179
4000 Chia-Hui Tai, Jiang Zhu, Nandita Dukkipati: Making Large Scale Deployment of RCP Practical for Real Networks. INFOCOM 2008:2180-2188
3999 Ioannis Ch. Paschalidis, Wei Lai, Xiangdong Song: A Decomposition Method for Transmission Scheduling in Multi-Channel Wireless Sensor Networks. INFOCOM 2008:2189-2197
3998 Robert Zhong Zhou, Jun-Hong Cui, Amvrossios Bagtzoglou: Scalable Localization with Mobility Prediction for Underwater Sensor Networks. INFOCOM 2008:2198-2206
3997 Jing Wang, Yonghe Liu, Sajal K. Das: Asynchronous Sampling Benefits Wireless Sensor Networks. INFOCOM 2008:2207-2215
3996 Guanqun Yang, Bin Tong, Daji Qiao, Wensheng Zhang: Sensor-Aided Overlay Deployment and Relocation for Vast-Scale Sensor Networks. INFOCOM 2008:2216-2224
3995 Yang Yu, Loren J. Rittle: Utility-Driven Spatiotemporal Sampling Using Mobile Sensors. INFOCOM 2008:2225-2233
3994 Alessandro Mei, Julinda Stefa: Routing in Outer Space. INFOCOM 2008:2234-2242
3993 Tehuang Liu, Wanjiun Liao: Location-Dependent Network Performance and Design Strategies for Wireless Mesh Networks. INFOCOM 2008:2243-2251
3992 Bozidar Radunovic, Christos Gkantsidis, Peter B. Key, Pablo Rodriguez: An Optimization Framework for Opportunistic Multipath Routing in Wireless Mesh Networks. INFOCOM 2008:2252-2260
3991 Partha Dutta, Sharad Jaiswal, Debmalya Panigrahi, Rajeev Rastogi: A New Channel Assignment Mechanism for Rural Wireless Mesh Networks. INFOCOM 2008:2261-2269
3990 Mina Sartipi, Badri N. Vellambi, Nazanin Rahnavard, Faramarz Fekri: DSCM: An Energy-Efficient and Rate-Optimal Multicast Protocol for Multihop Wireless Networks Using Distributed Source Coding. INFOCOM 2008:2270-2278
3989 Andreas Hess, Sudipta Sengupta, Vijay P. Kumar: Joint Traffic Routing and Distribution of Security Services in High Speed Networks. INFOCOM 2008:2279-2287
3988 Yoon-Ho Choi, Moon-Young Jung, Seung-Woo Seo: L+1-MWM: A Fast Pattern Matching Algorithm for High-Speed Packet Filtering. INFOCOM 2008:2288-2296
3987 Udi Ben-Porat, Anat Bremler-Barr, Hanoch Levy: Evaluating the Vulnerability of Network Mechanisms to Sophisticated DDoS Attacks. INFOCOM 2008:2297-2305
3986 Zesheng Chen, Chuanyi Ji, Paul Barford: Spatial-Temporal Characteristics of Internet Malicious Sources. INFOCOM 2008:2306-2314
3985 Parbati K. Manna, Sanjay Ranka, Shigang Chen: DAWN: A Novel Strategy for Detecting ASCII Worms in Networks. INFOCOM 2008:2315-2323
3984 Reuven Cohen, Gabi Nakibly: Maximizing Restorable Throughput in MPLS Networks. INFOCOM 2008:2324-2332
3983 Feng Wang, Lixin Gao: A Backup Route Aware Routing Protocol - Fast Recovery from Transient Routing Failures. INFOCOM 2008:2333-2341
3982 Yihua He, Michalis Faloutsos, Srikanth V. Krishnamurthy, Marek Chrobak: Policy-Aware Topologies for Efficient Inter-Domain Routing Evaluations. INFOCOM 2008:2342-2350
3981 Ramin Khalili, James F. Kurose: A Distributed Minimum-Distortion Routing Algorithm with In-Network Data Processing. INFOCOM 2008:2351-2359
3980 Rui Zhang-Shen, Nick McKeown: Designing a Fault-Tolerant Network Using Valiant Load-Balancing. INFOCOM 2008:2360-2368
3979 Jin Zhang, Qian Zhang: Cooperative Routing in Multi-Source Multi-Destination Multi-Hop Wireless Networks. INFOCOM 2008:2369-2377
3978 Nikhil Singh, Ramavarapu S. Sreenivas: On a Non-Linear Optimization Approach for Proportional Fairness in Ad-Hoc Wireless Networks. INFOCOM 2008:2378-2386
3977 Song Luo, Jason H. Li, Kihong Park, Renato Levy: Exploiting Heavy-Tailed Statistics for Predictable QoS Routing in Ad Hoc Wireless Networks. INFOCOM 2008:2387-2395
3976 Sumit Singh, Upamanyu Madhow, Elizabeth M. Belding: Beyond Proportional Fairness: A Resource Biasing Framework for Shaping Throughput Profiles in Multihop Wireless Networks. INFOCOM 2008:2396-2404
3975 Qinghe Du, Xi Zhang: Resource Allocation for Downlink Statistical Multiuser QoS Provisionings in Cellular Wireless Networks. INFOCOM 2008:2405-2413
3974 Jung-Tsung Tsai: State-Dependent Proportional Fair Scheduling Algorithms for Wireless Forward Link Data Services. INFOCOM 2008:2414-2422
3973 Brent Ishibashi, Nizar Bouabdallah, Raouf Boutaba: QoS Performance Analysis of Cognitive Radio-Based Virtual Wireless Networks. INFOCOM 2008:2423-2431
3972 Domenico Giustiniano, Giuseppe Bianchi, Luca Scalia, Ilenia Tinnirello: An Explanation for Unexpected 80211 Outdoor Link-level Measurement Results. INFOCOM 2008:2432-2440
3971 Rupa Krishnan, Ashish Raniwala, Tzi-cker Chiueh: Design of a Channel Characteristics-Aware Routing Protocol. INFOCOM 2008:2441-2449
3970 Deke Guo, Yunhao Liu, Xiang-Yang Li: BAKE: A Balanced Kautz Tree Structure for Peer-to-Peer Networks. INFOCOM 2008:2450-2457
3969 Bin Chang, Yi Cui, Yuan Xue: Maximizing Resilient Throughput in Peer-to-Peer Network: A Generalized Flow Approach. INFOCOM 2008:2458-2466
3968 William Acosta, Surendar Chandra: Exploiting the Properties of Query Workload and File Name Distributions to Improve P2P Synopsis-Based Searches. INFOCOM 2008:2467-2475
3967 Yongning Tang, Ehab Al-Shaer: Towards Collaborative User-Level Overlay Fault Diagnosis. INFOCOM 2008:2476-2484
3966 Jun Bi, Jianping Wu, Wenmao Zhang: A Trust and Reputation based Anti-SPIM Method. INFOCOM 2008:2485-2493
3965 : INFOCOM 2007. 26th IEEE International Conference on Computer Communications, Joint Conference of the IEEE Computer and Communications Societies, 6-12 May 2007, Anchorage, Alaska, USA INFOCOM 2007
3964 Yiwei Thomas Hou, Yi Shi, Hanif D. Sherali: Optimal Spectrum Sharing for Multi-Hop Software Defined Radio Networks. INFOCOM 2007:1-9
3963 Marco Fiore, Claudio Casetti, Carla-Fabiana Chiasserini: Efficient Retrieval of User Contents in MANETs. INFOCOM 2007:10-18
3962 Changhee Joo, Ness B. Shroff: Performance of Random Access Scheduling Schemes in Multi-Hop Wireless Networks. INFOCOM 2007:19-27
3961 Petar Djukic, Shahrokh Valaee: Link Scheduling for Minimum Delay in Spatial Re-Use TDMA. INFOCOM 2007:28-36
3960 Eitan Altman, Konstantin Avrachenkov, Gregory Miller, Balakrishna J. Prabhu: Discrete Power Control: Cooperative and Non-Cooperative Optimization. INFOCOM 2007:37-45
3959 Dan Avidor, Sayandev Mukherjee, Furuzan Atay Onat: Transmit Power Distribution of Wireless Ad Hoc Networks with Topology Control. INFOCOM 2007:46-52
3958 Murali S. Kodialam, T. V. Lakshman: Achievable Rate Region for Wireless Systems with Time Varying Channels. INFOCOM 2007:53-61
3957 Jia Tang, Xi Zhang: QoS-Driven Power Allocation Over Parallel Fading Channels With Imperfect Channel Estimations in Wireless Networks. INFOCOM 2007:62-70
3956 Dahai Xu, Mung Chiang, Jennifer Rexford: DEFT: Distributed Exponentially-Weighted Flow Splitting. INFOCOM 2007:71-79
3955 Moshe Babaioff, John Chuang: On the Optimality and Interconnection of Valiant Load-Balancing Networks. INFOCOM 2007:80-88
3954 Pierre François, Mike Shand, Olivier Bonaventure: Disruption Free Topology Reconfiguration in OSPF Networks. INFOCOM 2007:89-97
3953 Amund Kvalbein, Tarik Cicic, Stein Gjessing: Post-Failure Routing Performance with Multiple Routing Configurations. INFOCOM 2007:98-106
3952 Ritesh Maheshwari, Jie Gao, Samir R. Das: Detecting Wormhole Attacks in Wireless Networks Using Connectivity Information. INFOCOM 2007:107-115
3951 Zesheng Chen, Chuanyi Ji: Measuring Network-Aware Worm Spreading Ability. INFOCOM 2007:116-124
3950 N. Sertac Artan, H. Jonathan Chao: TriBiCa: Trie Bitmap Content Analyzer for High-Speed Network Intrusion Detection. INFOCOM 2007:125-133
3949 Ling Huang, XuanLong Nguyen, Minos N. Garofalakis, Joseph M. Hellerstein, Michael I. Jordan, Anthony D. Joseph, Nina Taft: Communication-Efficient Online Detection of Network-Wide Anomalies. INFOCOM 2007:134-142
3948 Peter B. Key, Laurent Massoulié, Donald F. Towsley: Path Selection and Multipath Congestion Control. INFOCOM 2007:143-151
3947 Amit Mondal, Aleksandar Kuzmanovic: When TCP Friendliness Becomes Harmful. INFOCOM 2007:152-160
3946 Ao Tang, Krister Jacobsson, Lachlan L. H. Andrew, Steven H. Low: An Accurate Link Model and Its Application to Stability Analysis of FAST TCP. INFOCOM 2007:161-169
3945 Bartlomiej Blaszczyszyn, Mohamed Kadhem Karray: Performance Evaluation of Scalable Congestion Control Schemes for Elastic Traffic in Cellular Networks with Power Control. INFOCOM 2007:170-178
3944 Ornan Ori Gerstel, Galen H. Sasaki, Ashok Balasubramanian: Revenue Focused Protection for VOD in DWDM Rings. INFOCOM 2007:179-187
3943 Onur Turkcu, Suresh Subramaniam: Blocking in Reconfigurable Optical Networks. INFOCOM 2007:188-196
3942 Satya Ranjan Mohanty, Laxmi N. Bhuyan: Lexicographic Fairness in WDM Optical Cross-Connects. INFOCOM 2007:197-205
3941 Yan Pan, Lacra Pavel: Global Convergence of An Iterative Gradient Algorithm for The Nash Equilibrium in An Extended OSNR Game. INFOCOM 2007:206-212
3940 Michael J. Neely: Optimal Pricing in a Free Market Wireless Network. INFOCOM 2007:213-221
3939 Junshan Zhang, Dong Zheng, Mung Chiang: The Impact of Stochastic Noisy Feedback on Distributed Network Utility Maximization. INFOCOM 2007:222-230
3938 Zongpeng Li: Min-Cost Multicast of Selfish Information Flows. INFOCOM 2007:231-239
3937 Saugat Majumdar, Dhananjay Kulkarni, Chinya V. Ravishankar: Addressing Click Fraud in Content Delivery Systems. INFOCOM 2007:240-248
3936 Rong L. Zheng, Richard J. Barton: Toward Optimal Data Aggregation in Random Wireless Sensor Networks. INFOCOM 2007:249-257
3935 Reuven Cohen, Boris Kapchits: An Optimal Algorithm for Minimizing Energy Consumption while Limiting Maximum Delay in a Mesh Sensor Network. INFOCOM 2007:258-266
3934 Junhua Zhu, Shan Chen, Brahim Bensaou, Ka-Lok Hung: Tradeoff Between Lifetime and Rate Allocation in Wireless Sensor Networks: A Cross Layer Approach. INFOCOM 2007:267-275
3933 Michele Rossi, Nicola Bui, Michele Zorzi: Cost and Collision Minimizing Forwarding Schemes for Wireless Sensor Networks. INFOCOM 2007:276-284
3932 Young-Han Nam, Praveen Kumar Gopala, Hesham El Gamal: Resolving Collisions Via Incremental Redundancy: ARQ Diversity. INFOCOM 2007:285-293
3931 Yung Yi, Gustavo de Veciana, Sanjay Shakkottai: On Optimal MAC Scheduling With Physical Interference. INFOCOM 2007:294-302
3930 Karthikeyan Sundaresan, Raghupathy Sivakumar: Cooperating with Smartness: Using Heterogeneous Smart Antennas in Ad-Hoc Networks. INFOCOM 2007:303-311
3929 Anmol Sheth, Sergiu Nedevschi, Rabin K. Patra, Sonesh Surana, Eric A. Brewer, Lakshminarayanan Subramanian: Packet Loss Characterization in WiFi-Based Long Distance Networks. INFOCOM 2007:312-320
3928 Lihua Yuan, Krishna Kant, Prasant Mohapatra, Chen-Nee Chuah: A Proxy View of Quality of Domain Name Service. INFOCOM 2007:321-329
3927 Gireesh Shrimali, Aditya Akella, Almir Mutapcic: Cooperative Inter-Domain Traffic Engineering Using Nash Bargaining and Decomposition. INFOCOM 2007:330-338
3926 Ying Zhang, Zhuoqing Morley Mao, Jia Wang: A Framework for Measuring and Predicting the Impact of Routing Changes. INFOCOM 2007:339-347
3925 Lan Wang, Malleswari Saranu, Joel Gottlieb, Dan Pei: Understanding BGP Session Failures in a Large ISP. INFOCOM 2007:348-356
3924 Michele Garetto, Paolo Giaccone, Emilio Leonardi: On the Capacity of Ad Hoc Wireless Networks Under General Node Mobility. INFOCOM 2007:357-365
3923 Scott C.-H. Huang, Peng-Jun Wan, Chinh T. Vu, Yingshu Li, F. Frances Yao: Nearly Constant Approximation for Data Aggregation Scheduling in Wireless Sensor Networks. INFOCOM 2007:366-372
3922 Francesco De Pellegrini, Daniele Miorandi, Iacopo Carreras, Imrich Chlamtac: A Graph-Based Model for Disconnected Ad Hoc Networks. INFOCOM 2007:373-381
3921 Ayfer Özgür, Olivier Lévêque, David N. C. Tse: Hierarchical Cooperation Achieves Linear Capacity Scaling in Ad Hoc Networks. INFOCOM 2007:382-390
3920 Xiaoming Wang, Zhongmei Yao, Dmitri Loguinov: Residual-Based Measurement of Peer and Link Lifetimes in Gnutella Networks. INFOCOM 2007:391-399
3919 Ravi Prasad, Peter J. Winzer, Sem C. Borst, Marina Thottan: Queuing Delays in Randomized Load Balanced Networks. INFOCOM 2007:400-408
3918 Jian Ni, Sekhar Tatikonda: Performance Evaluation of Loss Networks via Factor Graphs and the Sum-Product Algorithm. INFOCOM 2007:409-417
3917 John Pongsajapan, Steven H. Low: Reverse Engineering TCP/IP-Like Networks Using Delay-Sensitive Utility Functions. INFOCOM 2007:418-426
3916 Arnaud Legrand, Corinne Touati: Non-Cooperative Scheduling of Multiple Bag-of-Task Applications. INFOCOM 2007:427-435
3915 Michael E. Kounavis, Alok Kumar, Raj Yavatkar: Sorting Packets by Packet Schedulers Using a Connected Trie Data Structure. INFOCOM 2007:436-444
3914 Mohsen Bayati, Balaji Prabhakar, Devavrat Shah, Mayank Sharma: Iterative Scheduling Algorithms. INFOCOM 2007:445-453
3913 Xiao Zhang, Satya Ranjan Mohanty, Laxmi N. Bhuyan: Adaptive Max-Min Fair Scheduling in Buffered Crossbar Switches Without Speedup. INFOCOM 2007:454-462
3912 Srinivasan Seetharaman, Volker Hilt, Markus Hofmann, Mostafa H. Ammar: Preemptive Strategies to Improve Routing Performance of Native and Overlay Layers. INFOCOM 2007:463-471
3911 Jin Liang, Xiaohui Gu, Klara Nahrstedt: Self-Configuring Information Management for Large-Scale Service Overlays. INFOCOM 2007:472-480
3910 Chuan Wu, Baochun Li: Strategies of Conflict in Coexisting Streaming Overlays. INFOCOM 2007:481-489
3909 Nikolaos Laoutaris, Georgios Smaragdakis, Azer Bestavros, John W. Byers: Implications of Selfish Neighbor Selection in Overlay Networks. INFOCOM 2007:490-498
3908 Atilla Eryilmaz, Asuman E. Ozdaglar, Eytan Modiano: Polynomial Complexity Algorithms for Full Utilization of Multi-Hop Wireless Networks. INFOCOM 2007:499-507
3907 Lifeng Lai, Hesham El Gamal: On Cooperation in Energy Limited Wireless Networks. INFOCOM 2007:508-516
3906 Nabhendra Bisnik, Alhussein A. Abouzeid: Capacity Deficit in Mobile Wireless Ad Hoc Networks Due to Geographic Routing Overheads. INFOCOM 2007:517-525
3905 Ying Li, Mung Chiang, A. Robert Calderbank, Suhas N. Diggavi: Optimal Rate-Reliability-Delay Tradeoff in Networks with Composite Links. INFOCOM 2007:526-534
3904 Vivek Mhatre, Konstantina Papagiannaki, François Baccelli: Interference Mitigation Through Power Control in High Density 80211 WLANs. INFOCOM 2007:535-543
3903 Beibei Wang, Zhu Han, K. J. Ray Liu: Distributed Relay Selection and Power Control for Multiuser Cooperative Communication Networks Using Buyer/Seller Game. INFOCOM 2007:544-552
3902 Randeep Bhatia, Abhishek Kashyap, Erran L. Li: The Power Balancing Problem in Energy Constrained Multi-Hop Wireless Networks. INFOCOM 2007:553-561
3901 Zhengrong Ji, Maneesh Varshney, Junlan Zhou, Rajive Bagrodia: Point-Casting Service in Wireless Networks. INFOCOM 2007:562-570
3900 Jianwei Huang, Chee-Wei Tan, Mung Chiang, Raphael Cendrillon: Statistical Multiplexing Over DSL Networks. INFOCOM 2007:571-579
3899 Giacomo Morabito: Increasing Capacity Through the Use of the Timing Channel in Power-Constrained Satellite Networks. INFOCOM 2007:580-588
3898 Youngkyu Choi, Sunghyun Choi: Service Charge and Energy-Aware Vertical Handoff in Integrated IEEE 80216e/80211 Networks. INFOCOM 2007:589-597
3897 Partha Dutta, Sharad Jaiswal, Rajeev Rastogi: Routing and Channel Allocation in Rural Wireless Mesh Networks. INFOCOM 2007:598-606
3896 Ruben Torres, Xin Sun, Aaron Walters, Cristina Nita-Rotaru, Sanjay G. Rao: Enabling Confidentiality of Data Delivery in an Overlay Broadcasting System. INFOCOM 2007:607-615
3895 Sidharth Jaggi, Michael Langberg, Sachin Katti, Tracey Ho, Dina Katabi, Muriel Médard: Resilient Network Coding in the Presence of Byzantine Adversaries. INFOCOM 2007:616-624
3894 Tarem Ahmed, Mark Coates, Anukool Lakhina: Multivariate Online Anomaly Detection Using Kernel Recursive Least Squares. INFOCOM 2007:625-633
3893 Young June Pyun, Young Hee Park, Xinyuan Wang, Douglas S. Reeves, Peng Ning: Tracing Traffic through Intermediate Hosts that Repacketize Flows. INFOCOM 2007:634-642
3892 Preetha Thulasiraman, Srinivasan Ramasubramanian, Marwan Krunz: Disjoint Multipath Routing to Two Distinct Drains in a Multi-Drain Sensor Network. INFOCOM 2007:643-651
3891 Petteri Mannersalo, Alireza Keshavarz-Haddad, Rudolf H. Riedi: Broadcast Flooding Revisited: Survivability and Latency. INFOCOM 2007:652-660
3890 An Nguyen, Nikola Milosavljevic, Qing Fang, Jie Gao, Leonidas J. Guibas: Landmark Selection and Greedy Landmark-Descent Routing for Sensor Networks. INFOCOM 2007:661-669
3889 Matt S. Nassr, Jangeun Jun, Stephan Eidenbenz, Anders A. Hansson, Angela M. Mielke: Scalable and Reliable Sensor Network Routing: Performance Study from Field Deployment. INFOCOM 2007:670-678
3888 Yi-Ting Chen, Cheng-Shang Chang, Jay Cheng, Duan-Shin Lee, C.-C. Huang: Feedforward SDL Constructions of Output-Buffered Multiplexers and Switches with Variable Length Bursts. INFOCOM 2007:679-687
3887 Cheng-Shang Chang, Tsz-Hsuan Chao, Jay Cheng, Duan-Shin Lee: Constructions of Fault Tolerant Linear Compressors and Linear Decompressors. INFOCOM 2007:688-696
3886 Nicholas J. A. Harvey, Mihai Patrascu, Yonggang Wen, Sergey Yekhanin, Vincent W. S. Chan: Non-Adaptive Fault Diagnosis for All-Optical Networks via Combinatorial Group Testing on Graphs. INFOCOM 2007:697-705
3885 Hadas Kogan, Isaac Keslassy: Optimal-Complexity Optical Router. INFOCOM 2007:706-714
3884 Vartika Bhandari, Nitin H. Vaidya: Reliable Broadcast in Wireless Networks with Probabilistic Failures. INFOCOM 2007:715-723
3883 Junning Liu, Dennis Goeckel, Donald F. Towsley: Bounds on the Gain of Network Coding and Broadcasting in Wireless Networks. INFOCOM 2007:724-732
3882 Scott C.-H. Huang, Peng-Jun Wan, Xiaohua Jia, Hongwei Du, Weiping Shang: Minimum-Latency Broadcast Scheduling in Wireless Ad Hoc Networks. INFOCOM 2007:733-739
3881 Zhenming Chen, Chunming Qiao, Jinhui Xu, Taekkyeun Lee: A Constant Approximation Algorithm for Interference Aware Broadcast in Wireless Networks. INFOCOM 2007:740-748
3880 Haitao Wu, Kun Tan, Yongguang Zhang, Qian Zhang: Proactive Scan: Fast Handoff with Smart Triggers for 80211 Wireless LAN. INFOCOM 2007:749-757
3879 Wei-jen Hsu, Thrasyvoulos Spyropoulos, Konstantinos Psounis, Ahmed Helmy: Modeling Time-Variant User Mobility in Wireless Mobile Networks. INFOCOM 2007:758-766
3878 Maneesh Varshney, Rajive Bagrodia: Performance Implication of Environmental Mobility in Wireless Networks. INFOCOM 2007:767-775
3877 Nilanjan Banerjee, Mark D. Corner, Brian Neil Levine: An Energy-Efficient Architecture for DTN Throwboxes. INFOCOM 2007:776-784
3876 Vartika Bhandari, Nitin H. Vaidya: Connectivity and Capacity of Multi-Channel Wireless Networks with Channel Switching Constraints. INFOCOM 2007:785-793
3875 T. Charles Clancy: Achievable Capacity Under the Interference Temperature Model. INFOCOM 2007:794-802
3874 Ting-Yu Lin, Jennifer C. Hou: Interplay of Spatial Reuse and SINR-Determined Data Rates in CSMA/CA-Based, Multi-Hop, Multi-Rate Wireless Networks. INFOCOM 2007:803-811
3873 Márk Félegyházi, Mario Cagalj, Diego Dufour, Jean-Pierre Hubaux: Border Games in Cellular Networks. INFOCOM 2007:812-820
3872 Deke Guo, Jie Wu, Honghui Chen, Xueshan Luo: Moore: An Extendable Peer-to-Peer Network Based on Incomplete Kautz Digraph with Constant Degree. INFOCOM 2007:821-829
3871 Yi Li, Yin Zhang, Lili Qiu, Simon S. Lam: SmartTunnel: Achieving Reliability in the Internet. INFOCOM 2007:830-838
3870 Yong Zhu, Constantinos Dovrolis, Mostafa H. Ammar: Combining Multihoming with Overlay Routing (or, How to Be a Better ISP without Owning a Network). INFOCOM 2007:839-847
3869 Nikolaos Laoutaris, Georgios Zervas, Azer Bestavros, George Kollios: The Cache Inference Problem and its Application to Content and Request Routing. INFOCOM 2007:848-856
3868 Mina Guirguis, Azer Bestavros, Ibrahim Matta, Yuting Zhang: Reduction of Quality (RoQ) Attacks on Dynamic Load Balancers: Vulnerability Assessment and Design Tradeoffs. INFOCOM 2007:857-865
3867 Adel El-Atawy, Taghrid Samak, Ehab Al-Shaer, Hong Li: Using Online Traffic Statistical Matching for Optimizing Packet Filtering Performance. INFOCOM 2007:866-874
3866 Yitao Duan, John F. Canny: Scalable Secure Bidirectional Group Communication. INFOCOM 2007:875-883
3865 George Theodorakopoulos, John S. Baras: Malicious Users in Unstructured Networks. INFOCOM 2007:884-891
3864 Predrag R. Jelenkovic, Jian Tan: Can Retransmissions of Superexponential Documents Cause Subexponential Delays? INFOCOM 2007:892-900
3863 Patrick Brown: Stability of Networks with Age-Based Scheduling. INFOCOM 2007:901-909
3862 Han Cai, Do Young Eun, Sangtae Ha, Injong Rhee, Lisong Xu: Stochastic Ordering for Internet Congestion Control and its Applications. INFOCOM 2007:910-918
3861 Rakesh Kumar, Yong Liu, Keith W. Ross: Stochastic Fluid Theory for P2P Streaming Systems. INFOCOM 2007:919-927
3860 Rajesh Krishna Panta, Issa M. Khalil, Saurabh Bagchi: Stream: Low Overhead Wireless Reprogramming for Sensor Networks. INFOCOM 2007:928-936
3859 Seokhoon Yoon, Chunming Qiao: A New Search Algorithm using Autonomous and Cooperative Multiple Sensor Nodes. INFOCOM 2007:937-945
3858 Roland Flury, Roger Wattenhofer: Routing, Anycast, and Multicast for Mesh and Sensor Networks. INFOCOM 2007:946-954
3857 David Starobinski, Weiyao Xiao, Xiangping Qin, Ari Trachtenberg: Near-Optimal Data Dissemination Policies for Multi-Channel, Single Radio Wireless Sensor Networks. INFOCOM 2007:955-963
3856 Chee-Wei Tan, Daniel Pérez Palomar, Mung Chiang: Exploiting Hidden Convexity For Flexible And Robust Resource Allocation In Cellular Networks. INFOCOM 2007:964-972
3855 Yingqun Yu, Georgios B. Giannakis: Joint Congestion Control and OFDMA Scheduling for Hybrid Wireline-Wireless Networks. INFOCOM 2007:973-981
3854 Hongseok Kim, Gustavo de Veciana: Losing Opportunism: Evaluating Service Integration in an Opportunistic Wireless System. INFOCOM 2007:982-990
3853 David Amzallag, Joseph Naor, Danny Raz: Algorithmic Aspects of Access Networks Design in B3G/4G Cellular Networks. INFOCOM 2007:991-999
3852 Sungoh Kwon, Ness B. Shroff: Paradox of Shortest Path Routing for Large Multi-Hop Wireless Networks. INFOCOM 2007:1001-1009
3851 Roberto Catanuto, Stavros Toumpis, Giacomo Morabito: Opti{c, m}al: Optical/Optimal Routing in Massively Dense Wireless Networks. INFOCOM 2007:1010-1018
3850 Sundar Subramanian, Sanjay Shakkottai, Piyush Gupta: On Optimal Geographic Routing in Wireless Networks with Holes and Non-Uniform Traffic. INFOCOM 2007:1019-1027
3849 Sudipta Sengupta, Shravan K. Rayanchu, Suman Banerjee: An Analysis of Wireless Network Coding for Unicast Sessions: The Case for Coding-Aware Routing. INFOCOM 2007:1028-1036
3848 Yu Gu, Donald F. Towsley, C. V. Hollot, Honggang Zhang: Congestion Control for Small Buffer High Speed Networks. INFOCOM 2007:1037-1045
3847 Andrea Baiocchi, Francesco Vacirca: TCP Fluid Modeling with a Variable Capacity Bottleneck Link. INFOCOM 2007:1046-1054
3846 Jaehyuk Choi, Kihong Park, Chongkwon Kim: Cross-Layer Analysis of Rate Adaptation, DCF and TCP in Multi-Rate WLANs. INFOCOM 2007:1055-1063
3845 Michela Becchi, Srihari Cadambi: Memory-Efficient Regular Expression Search Using State Merging. INFOCOM 2007:1064-1072
3844 Laurent Massoulié, Andrew Twigg, Christos Gkantsidis, Pablo Rodriguez: Randomized Decentralized Broadcasting Algorithms. INFOCOM 2007:1073-1081
3843 Mea Wang, Baochun Li: Lava: A Reality Check of Network Coding in Peer-to-Peer Live Streaming. INFOCOM 2007:1082-1090
3842 Zhan Zhang, Shigang Chen, MyungKeun Yoon: MARCH: A Distributed Incentive Scheme for Peer-to-Peer Networks. INFOCOM 2007:1091-1099
3841 Yonghe Yan, Adel El-Atawy, Ehab Al-Shaer: Ranking-Based Optimal Resource Allocation in Peer-to-Peer Networks. INFOCOM 2007:1100-1108
3840 Chuanxiong Guo: G-3: An O(1) Time Complexity Packet Scheduler That Provides Bounded End-to-End Delay. INFOCOM 2007:1109-1117
3839 Xiaojun Lin, Shahzada Rasool: A Distributed Joint Channel-Assignment, Scheduling and Routing Algorithm for Multi-Channel Ad-hoc Wireless Networks. INFOCOM 2007:1118-1126
3838 Jörg Liebeherr, Markus Fidler, Shahrokh Valaee: A Min-Plus System Interpretation of Bandwidth Estimation. INFOCOM 2007:1127-1135
3837 Wanshi Chen, Michael J. Neely, Wanshi Mitra: Energy Efficient Scheduling with Individual Packet Delay Constraints: Offline and Online Results. INFOCOM 2007:1136-1144
3836 Jay Kumar Sundararajan, Muriel Médard, MinJi Kim, Atilla Eryilmaz, Devavrat Shah, Ralf Koetter: Network Coding in a Multicast Switch. INFOCOM 2007:1145-1153
3835 Dan Li, Jianping Wu, Yong Cui, Jiangchuan Liu: QoS-Aware Streaming in Overlay Multicast Considering the Selfishness in Construction Action. INFOCOM 2007:1154-1162
3834 Lijun Chen, Tracey Ho, Steven H. Low, Mung Chiang, John C. Doyle: Optimization Based Rate Control for Multicast with Network Coding. INFOCOM 2007:1163-1171
3833 Hyungsuk Won, Han Cai, Do Young Eun, Katherine Guo, Arun N. Netravali, Injong Rhee, Krishan K. Sabnani: Multicast Scheduling in Cellular Data Networks. INFOCOM 2007:1172-1180
3832 Giuseppe Bianchi, Antonio Di Stefano, Costantino Giaconia, Luca Scalia, Giovanni Terrazzino, Ilenia Tinnirello: Experimental Assessment of the Backoff Behavior of Commercial IEEE 80211b Network Cards. INFOCOM 2007:1181-1189
3831 Chunyu Hu, Jennifer C. Hou: A Novel Approach to Contention Control in IEEE 80211e-Operated WLANs. INFOCOM 2007:1190-1198
3830 Huu Quynh Nguyen, François Baccelli, Daniel Kofman: A Stochastic Geometry Analysis of Dense IEEE 80211 Networks. INFOCOM 2007:1199-1207
3829 Shane B. Eisenman, Andrew T. Campbell: E-CSMA: Supporting Enhanced CSMA Performance in Experimental Sensor Networks Using Per-Neighbor Transmission Probability Thresholds. INFOCOM 2007:1208-1216
3828 Murali S. Kodialam, Thyaga Nandagopal, Wing Cheong Lau: Anonymous Tracking Using RFID Tags. INFOCOM 2007:1217-1225
3827 Erman Ayday, Farshid Delgosha, Faramarz Fekri: Location-Aware Security Services for Wireless Sensor Networks Using Network Coding. INFOCOM 2007:1226-1234
3826 Chong Wang, Hongyi Wu, Nian-Feng Tzeng: RFID-Based 3-D Positioning Schemes. INFOCOM 2007:1235-1243
3825 Stefan Funke, Nikola Milosavljevic: Guaranteed-Delivery Geographic Routing Under Uncertain Node Locations. INFOCOM 2007:1244-1252
3824 Haim Zlatokrilov, Hanoch Levy: Navigation in Distance Vector Spaces and Its Use for Node Avoidance Routing. INFOCOM 2007:1253-1261
3823 Petar Momcilovic: Scalability of Routing Tables in Wireless Networks. INFOCOM 2007:1262-1270
3822 Georgos Siganos, Michalis Faloutsos: Neighborhood Watch for Internet Routing: Can We Improve the Robustness of Internet Routing Today? INFOCOM 2007:1271-1279
3821 Matthew Andrews: Load Balancing in the Internet with Strict Delay Constraints. INFOCOM 2007:1280-1288
3820 Patrick P. C. Lee, Tian Bu, Thomas Y. C. Woo: On the Detection of Signaling DoS Attacks on 3G Wireless Networks. INFOCOM 2007:1289-1297
3819 Min Shao, Sencun Zhu, Wensheng Zhang, Guohong Cao: pDCS: Security and Privacy Support for Data-Centric Sensor Networks. INFOCOM 2007:1298-1306
3818 Mingyan Li, Iordanis Koutsopoulos, Radha Poovendran: Optimal Jamming Attacks and Network Defense Policies in Wireless Sensor Networks. INFOCOM 2007:1307-1315
3817 Deepayan Chakrabarti, Jure Leskovec, Christos Faloutsos, Samuel Madden, Carlos Guestrin, Michalis Faloutsos: Information Survival Threshold in Sensor and P2P Networks. INFOCOM 2007:1316-1324
3816 Chun-cheng Chen, Haiyun Luo, Eunsoo Seo, Nitin H. Vaidya, Xudong Wang: Rate-Adaptive Framing for Interfered Wireless Networks. INFOCOM 2007:1325-1333
3815 Rami Cohen, Danny Raz: Acyclic Type of Relationships Between Autonomous Systems. INFOCOM 2007:1334-1342
3814 Patrick P. C. Lee, Vishal Misra, Dan Rubenstein: Toward Optimal Network Fault Correction via End-to-End Inference. INFOCOM 2007:1343-1351
3813 Ravi Kokku, Aniruddha Bohra, Samrat Ganguly, Arun Venkataramani: A Multipath Background Network Architecture. INFOCOM 2007:1352-1360
3812 Chao-Lin Yu, Cheng-Shang Chang, Duan-Shin Lee: CR Switch: A Load-Balanced Switch with Contention and Reservation. INFOCOM 2007:1361-1369
3811 Ioannis Papaefstathiou, Vassilis Papaefstathiou: Memory-Efficient 5D Packet Classification At 40 Gbps. INFOCOM 2007:1370-1378
3810 Lei Shi, Yue Zhang, Jianming Yu, Bo Xu, Bin Liu, Jun Li: On the Extreme Parallelism Inside Next-Generation Network Processors. INFOCOM 2007:1379-1387
3809 Anat Bremler-Barr, Danny Hendler: Space-Efficient TCAM-Based Classification Using Gray Coding. INFOCOM 2007:1388-1396
3808 Lin Ma, Wei Tsang Ooi: Congestion Control in Distributed Media Streaming. INFOCOM 2007:1397-1405
3807 Guanfeng Liang, Ben Liang: Balancing Interruption Frequency and Buffering Penalties in VBR Video Streaming. INFOCOM 2007:1406-1414
3806 Nazanin Magharei, Reza Rejaie: PRIME: Peer-to-Peer Receiver-drIven MEsh-Based Streaming. INFOCOM 2007:1415-1423
3805 Nazanin Magharei, Reza Rejaie, Yang Guo: Mesh or Multiple-Tree: A Comparative Study of Live P2P Streaming Approaches. INFOCOM 2007:1424-1432
3804 Thomas Moscibroda, Yvonne Anne Oswald, Roger Wattenhofer: How Optimal are Wireless Scheduling Protocols? INFOCOM 2007:1433-1441
3803 Márk Félegyházi, Mario Cagalj, Shirin Saeedi Bidokhti, Jean-Pierre Hubaux: Non-Cooperative Multi-Radio Channel Allocation in Wireless Networks. INFOCOM 2007:1442-1450
3802 Bruno Kauffmann, François Baccelli, Augustin Chaintreau, Vivek Mhatre, Konstantina Papagiannaki, Christophe Diot: Measurement-Based Self Organization of Interfering 80211 Wireless Access Networks. INFOCOM 2007:1451-1459
3801 Cong Peng, Qian Zhang, Ming Zhao, Yan Yao: On the Performance Analysis of Network-Coded Cooperation in Wireless Networks. INFOCOM 2007:1460-1468
3800 Amir Hamed Mohsenian Rad, Vincent W. S. Wong: Joint Channel Allocation, Interface Assignment and MAC Design for Multi-Channel Wireless Mesh Networks. INFOCOM 2007:1469-1477
3799 Shu Du, Amit Kumar Saha, David B. Johnson: RMAC: A Routing-Enhanced Duty-Cycle MAC Protocol for Wireless Sensor Networks. INFOCOM 2007:1478-1486
3798 Hang Su, Xi Zhang: An Efficient Single-Transceiver CDMA-Based MAC Protocol for Wireless Networks. INFOCOM 2007:1487-1495
3797 Alvaro A. Cárdenas, Svetlana Radosavac, John S. Baras: Performance Comparison of Detection Schemes for MAC Layer Misbehavior. INFOCOM 2007:1496-1504
3796 Dahai Xu, Ying Li, Mung Chiang, A. Robert Calderbank: Optimal Provisioning of Elastic Service Availability. INFOCOM 2007:1505-1513
3795 Wee Lum Tan, Fung Lam, Wing Cheong Lau: An Empirical Study on 3G Network Capacity and Performance. INFOCOM 2007:1514-1522
3794 Robert D. Doverspike, Guangzhi Li, Konstantinos Oikonomou, K. K. Ramakrishnan, Dongmei Wang: IP Backbone Design for Multimedia Distribution: Architecture and Performance. INFOCOM 2007:1523-1531
3793 Si-Qing Zheng, Bing Yang, Mei Yang, Jianping Wang: Finding Minimum-Cost Paths with Minimum Sharability. INFOCOM 2007:1532-1540
3792 Devavrat Shah, Sanjay Shakkottai: Oblivious Routing with Mobile Fusion Centers over a Sensor Network. INFOCOM 2007:1541-1549
3791 Yanli Cai, Wei Lou, Minglu Li, X.-Y. Li: Target-Oriented Scheduling in Directional Sensor Networks. INFOCOM 2007:1550-1558
3790 Yu Chen, Eric Fleury: A Distributed Policy Scheduling for Wireless Sensor Networks. INFOCOM 2007:1559-1567
3789 Yan Wu, Sonia Fahmy, Ness B. Shroff: Energy Efficient Sleep/Wake Scheduling for Multi-Hop Sensor Networks: Non-Convexity and Approximation Algorithm. INFOCOM 2007:1568-1576
3788 George N. Rouskas, Nikhil Baradwaj: A Framework for Tiered Service in MPLS Networks. INFOCOM 2007:1577-1585
3787 Maaike Verloop, Sem C. Borst: Heavy-Traffic Delay Minimization in Bandwidth-Sharing Networks. INFOCOM 2007:1586-1594
3786 Nima Sarshar, Xiaolin Wu: Rate-Distortion Optimized Network Communication. INFOCOM 2007:1595-1603
3785 Gábor Rétvári, József Bíró, Tibor Cinkler: Fairness in Capacitated Networks: A Polyhedral Approach. INFOCOM 2007:1604-1612
3784 Chengchen Hu, Yi Tang, Xuefei Chen, Bin Liu: Per-Flow Queueing by Dynamic Queue Sharing. INFOCOM 2007:1613-1621
3783 Yang Xu, Bin Liu, Gao Xia, Dong Lin: Iteration-Shared Scheduling Algorithms Abolishing the Departure-Time-Compatible Graph in Switch-Memory-Switch Switches. INFOCOM 2007:1622-1630
3782 Abhinav Gupta, Xiaojun Lin, R. Srikant: Low-Complexity Distributed Scheduling Algorithms for Wireless Networks. INFOCOM 2007:1631-1639
3781 Koushik Kar, Xiang Luo, Saswati Sarkar: Throughput-Optimal Scheduling in Multichannel Access Point Networks Under Infrequent Channel Measurements. INFOCOM 2007:1640-1648
3780 Weiyi Zhang, Guoliang Xue, Satyajayant Misra: Fault-Tolerant Relay Node Placement in Wireless Sensor Networks: Problems and Algorithms. INFOCOM 2007:1649-1657
3779 Yunfeng Lin, Ben Liang, Baochun Li: Data Persistence in Large-Scale Sensor Networks with Decentralized Fountain Codes. INFOCOM 2007:1658-1666
3778 Xiaofeng Han, Xiang Cao, Errol L. Lloyd, Chien-Chung Shen: Fault-Tolerant Relay Node Placement in Heterogeneous Wireless Sensor Networks. INFOCOM 2007:1667-1675
3777 Zhenzhen Ye, Alhussein A. Abouzeid, Jing Ai: Optimal Policies for Distributed Data Aggregation in Wireless Sensor Networks. INFOCOM 2007:1676-1684
3776 Longbi Lin, Xiaojun Lin, Ness B. Shroff: Low-Complexity and Distributed Energy Minimization in Multi-Hop Wireless Networks. INFOCOM 2007:1685-1693
3775 Yi Shi, Yiwei Thomas Hou: Optimal Power Control for Multi-Hop Software Defined Radio Networks. INFOCOM 2007:1694-1702
3774 Alaa Muqattash, Marwan Krunz: Performance of Wireless CDMA Networks Under Optimal Link-Layer Adaptation. INFOCOM 2007:1703-1711
3773 Yingqi Xu, Wang-Chien Lee, Jianliang Xu: Analysis of A Loss-Resilient Proactive Data Transmission Protocol in Wireless Sensor Networks. INFOCOM 2007:1712-1720
3772 Joy Ghosh, Hung Q. Ngo, Seokhoon Yoon, Chunming Qiao: On a Routing Problem Within Probabilistic Graphs and its Application to Intermittently Connected Networks. INFOCOM 2007:1721-1729
3771 Dominique Tschopp, Suhas N. Diggavi, Matthias Grossglauser, Jörg Widmer: Robust Geo-Routing on Embeddings of Dynamic Wireless Networks. INFOCOM 2007:1730-1738
3770 Erran L. Li, Ramachandran Ramjee, Milind M. Buddhikot, Scott C. Miller: Network Coding-Based Broadcast in Mobile Ad-hoc Networks. INFOCOM 2007:1739-1747
3769 Alejandro Ribeiro, Georgios B. Giannakis, Zhi-Quan Luo, Nikos D. Sidiropoulos: Modelling and Optimization of Stochastic Routing for Wireless Multi-Hop Networks. INFOCOM 2007:1748-1756
3768 Shipra Agrawal, K. V. M. Naidu, Rajeev Rastogi: Diagnosing Link-Level Anomalies Using Passive Probes. INFOCOM 2007:1757-1765
3767 Yu Cheng, Vikram Ravindran, Alberto Leon-Garcia: Internet Traffic Characterization Using Packet-Pair Probing. INFOCOM 2007:1766-1774
3766 Lili Yang, George Michailidis: Sampled Based Estimation of Network Traffic Flow Characteristics. INFOCOM 2007:1775-1783
3765 Guohan Lu, Yan Chen, Stefan Birrer, Fabián E. Bustamante, C. Y. Cheung, Xing Li: End-to-End Inference of Router Packet Forwarding Priority. INFOCOM 2007:1784-1792
3764 Reuven Cohen, Gabi Nakibly: A Traffic Engineering Approach for Placement and Selection of Network Services. INFOCOM 2007:1793-1801
3763 Liqian Luo, Chengdu Huang, Tarek F. Abdelzaher, Jack A. Stankovic: EnviroStore: A Cooperative Storage System for Disconnected Operation in Sensor Networks. INFOCOM 2007:1802-1810
3762 Xiaoqiao Meng, Petros Zerfos, Vidyut Samanta, Starsky H. Y. Wong, Songwu Lu: Analysis of the Reliability of a Nationwide Short Message Service. INFOCOM 2007:1811-1819
3761 Alexander Sprintson, Marcelo Yannuzzi, Ariel Orda, Xavier Masip-Bruin: Reliable Routing with QoS Guarantees for Multi-Domain IP/MPLS Networks. INFOCOM 2007:1820-1828
3760 Renato M. de Moraes, Hamid R. Sadjadpour, J. J. Garcia-Luna-Aceves: Many-to-Many Communication: A New Approach for Collaboration in MANETs. INFOCOM 2007:1829-1837
3759 Xianjin Zhu, Rik Sarkar, Jie Gao: Shape Segmentation and Applications in Sensor Networks. INFOCOM 2007:1838-1846
3758 Cédric Westphal: Little Tom Thumb Went Straight Home: Asymptotic Behavior of a Routing Protocol in Ad-hoc Networks with a Mobile Access Point. INFOCOM 2007:1847-1856
3757 Alexandre de Baynast, Omer Gurewitz, Edward W. Knightly: Cooperative Strategies and Optimal Scheduling for Tree Networks. INFOCOM 2007:1857-1865
3756 Almut Burchard, Jörg Liebeherr, Florin Ciucu: On Q(H log H) Scaling of Network Delays. INFOCOM 2007:1866-1874
3755 Aiyou Chen, Jin Cao, Tian Bu: Network Tomography: Identifiability and Fourier Domain Estimation. INFOCOM 2007:1875-1883
3754 Sem C. Borst, Nidhi Hegde: Integration of Streaming and Elastic Traffic in Wireless Networks. INFOCOM 2007:1884-1892
3753 Tian Bu, Jin Cao, Aiyou Chen, Patrick P. C. Lee: A Fast and Compact Method for Unveiling Significant Patterns in High Speed Networks. INFOCOM 2007:1893-1901
3752 Robert Kleinberg: Geographic Routing Using Hyperbolic Space. INFOCOM 2007:1902-1909
3751 Amotz Bar-Noy, Yi Feng, Mordecai J. Golin: Paging Mobile Users Efficiently and Optimally. INFOCOM 2007:1910-1918
3750 Valery Naumov, Thomas R. Gross: Connectivity-Aware Routing (CAR) in Vehicular Ad-hoc Networks. INFOCOM 2007:1919-1927
3749 Qing Cao, Tarek F. Abdelzaher, Tian He, Robin Kravets: Cluster-Based Forwarding for Reliable End-to-End Delivery in Wireless Sensor Networks. INFOCOM 2007:1928-1936
3748 Fang Liu, Xiuzhen Cheng, Dechang Chen: Insider Attacker Detection in Wireless Sensor Networks. INFOCOM 2007:1937-1945
3747 Feng Li, Jie Wu: Mobility Reduces Uncertainty in MANETs. INFOCOM 2007:1946-1954
3746 Ying Jian, Shigang Chen, Zhan Zhang, Liang Zhang: Protecting Receiver-Location Privacy in Wireless Sensor Networks. INFOCOM 2007:1955-1963
3745 Yingying Chen, Wade Trappe, Richard P. Martin: Attack Detection in Wireless Localization. INFOCOM 2007:1964-1972
3744 Jussi Kangasharju, Keith W. Ross, David A. Turner: Optimizing File Availability in Peer-to-Peer Content Distribution. INFOCOM 2007:1973-1981
3743 Ye Xia, Alin Dobra, Seung Chul Han: Multiple-Choice Random Network for Server Load Balancing. INFOCOM 2007:1982-1990
3742 Minkyu Kim, Muriel Médard, Varun Aggarwal, Una-May O'Reilly, Wonsik Kim, Chang Wook Ahn, Michelle Effros: Evolutionary Approaches To Minimizing Network Coding Resources. INFOCOM 2007:1991-1999
3741 Alexandros G. Dimakis, Brighten Godfrey, Martin J. Wainwright, Kannan Ramchandran: Network Coding for Distributed Storage Systems. INFOCOM 2007:2000-2008
3740 H. Vlad Balan, Lars Eggert, Saverio Niccolini, Marcus Brunner: An Experimental Evaluation of Voice Quality Over the Datagram Congestion Control Protocol. INFOCOM 2007:2009-2017
3739 Sangho Shin, Henning Schulzrinne: Experimental Measurement of the Capacity for VoIP Traffic in IEEE 80211 WLANs. INFOCOM 2007:2018-2026
3738 Robert Birke, Marco Mellia, Michele Petracca, Dario Rossi: Understanding VoIP from Backbone Measurements. INFOCOM 2007:2027-2035
3737 Anand Kashyap, Samrat Ganguly, Samir R. Das, Suman Banerjee: VoIP on Wireless Meshes: Models, Algorithms and Evaluation. INFOCOM 2007:2036-2044
3736 Wenbo He, Xue Liu, Hoang Nguyen, Klara Nahrstedt, Tarek F. Abdelzaher: PDA: Privacy-Preserving Data Aggregation in Wireless Sensor Networks. INFOCOM 2007:2045-2053
3735 Joshua Robinson, Edward W. Knightly: A Performance Study of Deployment Factors in Wireless Mesh Networks. INFOCOM 2007:2054-2062
3734 Abdul Kader Kabbani, Theodoros Salonidis, Edward W. Knightly: Distributed Low-Complexity Maximum-Throughput Scheduling for Wireless Backhaul Networks. INFOCOM 2007:2063-2071
3733 Gaurav Sharma, Ness B. Shroff, Ravi R. Mazumdar: Joint Congestion Control and Distributed Scheduling for Throughput Guarantees in Wireless Networks. INFOCOM 2007:2072-2080
3732 Wai-Hong Tam, Yu-Chee Tseng: Joint Multi-Channel Link Layer and Multi-Path Routing Design for Wireless Mesh Networks. INFOCOM 2007:2081-2089
3731 George Athanasiou, Thanasis Korakis, Özgür Erçetin, Leandros Tassiulas: Dynamic Cross-Layer Association in 80211-Based Mesh Networks. INFOCOM 2007:2090-2098
3730 Stephan Bohacek, Peng Wang: Toward Tractable Computation of the Capacity of Multi-Hop Wireless Networks. INFOCOM 2007:2099-2107
3729 Claudio Cicconetti, Ian F. Akyildiz, Luciano Lenzini: Bandwidth Balancing in Multi-Channel IEEE 80216 Wireless Mesh Networks. INFOCOM 2007:2108-2116
3728 Hung Xuan Nguyen, Patrick Thiran: The Boolean Solution to the Congested IP Link Location Problem: Theory and Practice. INFOCOM 2007:2117-2125
3727 Zhongmei Yao, Xiaoming Wang, Derek Leonard, Dmitri Loguinov: On Node Isolation Under Churn in Unstructured P2P Networks with Heavy-Tailed Lifetimes. INFOCOM 2007:2126-2134
3726 Sujay Sanghavi, Bruce Hajek, Laurent Massoulié: Gossiping with Multiple Messages. INFOCOM 2007:2135-2143
3725 Nikolaos Laoutaris, Georgios Smaragdakis, Konstantinos Oikonomou, Ioannis Stavrakakis, Azer Bestavros: Distributed Placement of Service Facilities in Large-Scale Networks. INFOCOM 2007:2144-2152
3724 Rade Stanojevic: Small Active Counters. INFOCOM 2007:2153-2161
3723 Alok Shriram, Jasleen Kaur: Empirical Evaluation of Techniques for Measuring Available Bandwidth. INFOCOM 2007:2162-2170
3722 Yao Zhao, Yan Chen: A Suite of Schemes for User-Level Network Diagnosis without Infrastructure. INFOCOM 2007:2171-2179
3721 Ramana Rao Kompella, Jennifer Yates, Albert G. Greenberg, Alex C. Snoeren: Detection and Localization of Network Black Holes. INFOCOM 2007:2180-2188
3720 Honggang Zhang, Giovanni Neglia, Donald F. Towsley, Giuseppe Lo Presti: On Unstructured File Sharing Networks. INFOCOM 2007:2189-2197
3719 Guang Tan, Stephen A. Jarvis: Stochastic Analysis and Improvement of the Reliability of DHT-Based Multicast. INFOCOM 2007:2198-2206
3718 Chih-Chiang Wang, Khaled Harfoush: On the Stability-Scalability Tradeoff of DHT Deployment. INFOCOM 2007:2207-2215
3717 Giovanni Neglia, Giuseppe Reina, Honggang Zhang, Donald F. Towsley, Arun Venkataramani, John S. Danaher: Availability in BitTorrent Systems. INFOCOM 2007:2216-2224
3716 Jianer Chen, Anxiao Jiang, Iyad A. Kanj, Ge Xia, Fenghui Zhang: Separability and Topology Control of Quasi Unit Disk Graphs. INFOCOM 2007:2225-2233
3715 Ming-Jer Tsai, Hong-Yen Yang, Wen-Qian Huang: Axis-Based Virtual Coordinate Assignment Protocol and Delivery-Guaranteed Routing Protocol in Wireless Sensor Networks. INFOCOM 2007:2234-2242
3714 Fenghui Zhang, Hao Li, Anxiao Jiang, Jianer Chen, Ping Luo: Face Tracing Based Geographic Routing in Nonplanar Wireless Networks. INFOCOM 2007:2243-2251
3713 Thanos Stathopoulos, Martin Lukac, Dustin McIntire, John S. Heidemann, Deborah Estrin, William J. Kaiser: End-to-End Routing for Dual-Radio Sensor Networks. INFOCOM 2007:2252-2260
3712 Jay A. Patel, Haiyun Luo, Indranil Gupta: A Cross-Layer Architecture to Exploit Multi-Channel Diversity with a Single Transceiver. INFOCOM 2007:2261-2265
3711 Dong Zheng, Junshan Zhang: Joint Optimal Channel Probing and Transmission in Collocated Wireless Networks. INFOCOM 2007:2266-2270
3710 Nitthita Chirdchoo, Wee-Seng Soh, Kee Chaing Chua: Aloha-Based MAC Protocols with Collision Avoidance for Underwater Acoustic Networks. INFOCOM 2007:2271-2275
3709 Isabella Cerutti, Andrea Fumagalli, Puja Gupta: Delay Model of Single-Relay Cooperative ARQ Protocols in Slotted Radio Networks with Non-Instantaneous Feedback and Poisson Frame Arrivals. INFOCOM 2007:2276-2280
3708 Qunfeng Dong, Ashutosh Shukla, Vivek Shrivastava, Dheeraj Agrawal, Suman Banerjee, Koushik Kar: Load Balancing in Large-Scale RFID Systems. INFOCOM 2007:2281-2285
3707 Ling-Jyh Chen, Yung-Chih Chen, Tony Sun, Paruvelli Sreedevi, Kuan-Ta Chen, Chen-Hung Yu, Hao-Hua Chu: Finding Self-Similarities in Opportunistic People Networks. INFOCOM 2007:2286-2290
3706 Nawaporn Wisitpongphan, Fan Bai, Priyantha Mudalige, Ozan K. Tonguz: On the Routing Problem in Disconnected Vehicular Ad-hoc Networks. INFOCOM 2007:2291-2295
3705 X. Xiang, Z. Zhou, X. Wang: Self-Adaptive On Demand Geographic Routing Protocols for Mobile Ad-hoc Networks. INFOCOM 2007:2296-2300
3704 Xiaojing Xiang, Zehua Zhou, Xin Wang: Robust and Scalable Geographic Multicast Protocol for Mobile Ad-hoc Networks. INFOCOM 2007:2301-2305
3703 Akira Uchiyama, Sae Fujii, Kumiko Maeda, Takaaki Umedu, Hirozumi Yamaguchi, Teruo Higashino: Ad-hoc Localization in Urban District. INFOCOM 2007:2306-2310
3702 Manoj Pandey, Roger Pack, Lei Wang, Qiuyi Duan, Daniel Zappala: To Repair or Not To Repair: Helping Ad-hoc Routing Protocols to Distinguish Mobility from Congestion. INFOCOM 2007:2311-2315
3701 Ulas C. Kozat, Sean A. Ramprashad: Unequal Error Protection Rateless Codes for Scalable Information Delivery in Mobile Networks. INFOCOM 2007:2316-2320
3700 Peter Marbach: Distributed Scheduling and Active Queue Management in Wireless Networks. INFOCOM 2007:2321-2325
3699 Randeep Bhatia, Erran L. Li: Throughput Optimization of Wireless Mesh Networks with MIMO Links. INFOCOM 2007:2326-2330
3698 Yong Yang, Jennifer C. Hou, Lu-Chuan Kung: Modeling the Effect of Transmit Power and Physical Carrier Sense in Multi-Hop Wireless Networks. INFOCOM 2007:2331-2335
3697 Sumit Singh, Federico Ziliotto, Upamanyu Madhow, Elizabeth M. Belding, Mark J. W. Rodwell: Millimeter Wave WPAN: Cross-Layer Modeling and Multi-Hop Architecture. INFOCOM 2007:2336-2340
3696 Xiaowen Zhang, Hao Zhu: Two-Tier Load Balancing in OSPF Wireless Back-Hauls. INFOCOM 2007:2341-2345
3695 Atef Abdrabou, Weihua Zhuang: Service Time Approximation in IEEE 80211 Single-Hop Ad-hoc Networks. INFOCOM 2007:2346-2350
3694 Yanfeng Zhu, Qian Zhang, Zhisheng Niu, Jing Zhu: On Optimal Physical Carrier Sensing: Theoretical Analysis and Protocol Design. INFOCOM 2007:2351-2355
3693 Mathilde Durvy, Olivier Dousse, Patrick Thiran: Modeling the 80211 Protocol Under Different Capture and Sensing Capabilities. INFOCOM 2007:2356-2360
3692 Ashish Raniwala, Pradipta De, Srikant Sharma, Rupa Krishnan, Tzi-cker Chiueh: End-to-End Flow Fairness Over IEEE 80211-Based Wireless Mesh Networks. INFOCOM 2007:2361-2365
3691 Fanglu Guo, Tzi-cker Chiueh: Software TDMA for VoIP Applications Over IEEE80211 Wireless LAN. INFOCOM 2007:2366-2370
3690 Jaehoon Jeong, Taehyun Hwang, Tian He, David Hung-Chang Du: MCTA: Target Tracking Algorithm Based on Minimal Contour in Wireless Sensor Networks. INFOCOM 2007:2371-2375
3689 Mohamed Hefeeda, Majid Bagheri: Randomized k-Coverage Algorithms For Dense Sensor Networks. INFOCOM 2007:2376-2380
3688 Yunnan Wu, Saumitra M. Das, Ranveer Chandra: Routing with a Markovian Metric to Promote Local Mixing. INFOCOM 2007:2381-2385
3687 Dimitrios E. Pendarakis, Nisheeth Shrivastava, Zhen Liu, Ron F. Ambrosio: Information Aggregation and Optimized Actuation in Sensor Networks: Enabling Smart Electrical Grids. INFOCOM 2007:2386-2390
3686 Joengmin Hwang, Tian He, Yongdae Kim: Detecting Phantom Nodes in Wireless Sensor Networks. INFOCOM 2007:2391-2395
3685 Zhimin Yang, Eylem Ekici, Dong Xuan: A Localization-Based Anti-Sensor Network System. INFOCOM 2007:2396-2400
3684 Yanmin Zhu, Yunhao Liu, Lionel M. Ni, Z. Zhang: Low-Power Distributed Event Detection in Wireless Sensor Networks. INFOCOM 2007:2401-2405
3683 Alessandro Nordio, Carla-Fabiana Chiasserini, Emanuele Viterbo: Quality of Field Reconstruction in Sensor Networks. INFOCOM 2007:2406-2410
3682 Yibei Ling, Chung-Min Chen: Energy Saving via Power-Aware Buffering in Wireless Sensor Networks. INFOCOM 2007:2411-2415
3681 Antoine Gallais, François Ingelrest, Jean Carle, David Simplot-Ryl: Preserving Area Coverage in Sensor Networks with a Realistic Physical Layer. INFOCOM 2007:2416-2420
3680 Joengmin Hwang, Yu Gu, Tian He, Yongdae Kim: Realistic Sensing Area Modeling. INFOCOM 2007:2421-2425
3679 Zhenqiang Li, Dongqu Zheng, Yan Ma: Tree, Segment Table, and Route Bucket: A Multi-Stage Algorithm for IPv6 Routing Table Lookup. INFOCOM 2007:2426-2430
3678 Christine Maindorfer, Khaireel A. Mohamed, Thomas Ottmann, Amitava Datta: A New Output-Sensitive Algorithm to Detect and Resolve Conflicts in Internet Router Tables. INFOCOM 2007:2431-2435
3677 Vahid Tabatabaee, Abhishek Kashyap, Samrat Bhattacharjee, Richard J. La, Mark A. Shayman: Robust Routing with Unknown Traffic Matrices. INFOCOM 2007:2436-2440
3676 Sangmin Kim, Khaled Harfoush: The Causal Factors Behind Internet Power-Law Connectivity. INFOCOM 2007:2441-2445
3675 Joel Sommers, Paul Barford, Nick G. Duffield, Amos Ron: A Framework for Multi-Objective SLA Compliance Monitoring. INFOCOM 2007:2446-2450
3674 Maruti Gupta, Suresh Singh: Using Low-Power Modes for Energy Conservation in Ethernet LANs. INFOCOM 2007:2451-2455
3673 Jinjing Jiang, Raj Jain: Analysis of Backward Congestion Notification (BCN) for Ethernet In Datacenter Applications. INFOCOM 2007:2456-2460
3672 Ki Baek Kim: Analysis of Impact on Random Packet Losses in Congestion Control: Explicit Form. INFOCOM 2007:2461-2465
3671 Maxim Podlesny, Sergey Gorinsky: Multimodal Congestion Control for Low Stable-State Queuing. INFOCOM 2007:2466-2470
3670 Hao Wang, Bill Lin: Pipelined van Emde Boas Tree: Algorithms, Analysis, and Applications. INFOCOM 2007:2471-2475
3669 Jason Liu, Scott Mann, Nathanael Van Vorst, Keith Hellman: An Open and Scalable Emulation Infrastructure for Large-Scale Real-Time Network Simulations. INFOCOM 2007:2476-2480
3668 Noriaki Kamiyama, Tatsuya Mori, Ryoichi Kawahara: Simple and Adaptive Identification of Superspreaders by Flow Sampling. INFOCOM 2007:2481-2485
3667 Yvan Pointurier, Maïté Brandt-Pearce, Suresh Subramaniam: Analysis of Blocking Probability in Noise and Crosstalk Impaired All-Optical Networks. INFOCOM 2007:2486-2490
3666 Amin Firoozshahian, Vahideh H. Manshadi, Ashish Goel, Balaji Prabhakar: Efficient, Fully Local Algorithms for CIOQ Switches. INFOCOM 2007:2491-2495
3665 Jianming Liu, Tony-Tong Lee: Blocking and Delay Analysis of Optical Buffer with General Packet Length Distribution. INFOCOM 2007:2496-2500
3664 Hsien-Chen Chiu, Cheng-Shang Chang, Jay Cheng, Duan-Shin Lee: Using a Single Switch with O(M) Inputs/Outputs for the Construction of an Optical Priority Queue with O(M3) Buffer. INFOCOM 2007:2501-2505
3663 Hadas Kogan, Isaac Keslassy: Fundamental Complexity of Optical Systems. INFOCOM 2007:2506-2510
3662 Yuichi Ohsita, Takashi Miyamura, Shin'ichi Arakawa, Shingo Ata, Eiji Oki, Kohei Shiomoto, Masayuki Murata: Gradually Reconfiguring Virtual Network Topologies Based on Estimated Traffic Matrices. INFOCOM 2007:2511-2515
3661 Krishna K. Ramachandran, Biplab Sikdar: Modeling Malware Propagation in Networks of Smart Cell Phones with Spatial Dynamics. INFOCOM 2007:2516-2520
3660 Frederik Armknecht, Joao Girão, Alfredo Matos, Rui L. Aguiar: Who Said That? Privacy at Link Layer. INFOCOM 2007:2521-2525
3659 Vishnu Navda, Aniruddha Bohra, Samrat Ganguly, Dan Rubenstein: Using Channel Hopping to Increase 80211 Resilience to Jamming Attacks. INFOCOM 2007:2526-2530
3658 Zhenghong Wang, Jing Deng, Ruby B. Lee: Mutual Anonymous Communications: A New Covert Channel Based on Splitting Tree MAC. INFOCOM 2007:2531-2535
3657 Xin Liu, Guevara Noubir, Ravi Sundaram, San Tan: SPREAD: Foiling Smart Jammers Using Multi-Layer Agility. INFOCOM 2007:2536-2540
3656 Supranamaya Ranjan, Shaleen Shah, Antonio Nucci, Maurizio M. Munafò, Rene L. Cruz, S. Muthu Muthukrishnan: DoWitcher: Effective Worm Detection and Containment in the Internet Core. INFOCOM 2007:2541-2545
3655 Donald E. Smith: IP TV Bandwidth Demand: Multicast and Channel Surfing. INFOCOM 2007:2546-2550
3654 Mark C. M. Tsang, Cho-Li Wang, Ken C. K. Tsang, Francis C. M. Lau: A Receiver-Coordinated Approach for Throughput Aggregation in High Bandwidth Multicast. INFOCOM 2007:2551-2555
3653 György Dán, Viktória Fodor, Ilias Chatzidrossos: On the Performance of Multiple-Tree-Based Peer-to-Peer Live Streaming. INFOCOM 2007:2556-2560
3652 Liang Dai, Yi Cui, Yuan Xue: On Scalability of Proximity-Aware Peer-to-Peer Streaming. INFOCOM 2007:2561-2565
3651 Dongmei Wang, Guangzhi Li, Robert D. Doverspike: IGP Weight Setting in Multimedia IP Networks. INFOCOM 2007:2566-2570
3650 Siddhartha Annapureddy, Saikat Guha, Christos Gkantsidis, Dinan Gunawardena, Pablo Rodriguez: Exploring VoD in P2P Swarming Systems. INFOCOM 2007:2571-2575
3649 Esa Hyytiä, Tuomas Tirronen, Jorma T. Virtamo: Optimal Degree Distribution for LT Codes with Small Message Length. INFOCOM 2007:2576-2580
3648 Xing Jin, Qiuyan Xia, S.-H. Gary Chan: A Cost-Based Evaluation of End-to-End Network Measurements in Overlay Multicast. INFOCOM 2007:2581-2585
3647 Xiaohui Gu, Zhen Wen, Philip S. Yu: BridgeNet: An Adaptive Multi-Source Stream Dissemination Overlay Network. INFOCOM 2007:2586-2590
3646 Christos Gkantsidis, Gagan Goel, Milena Mihail, Amin Saberi: Towards Topology Aware Networks. INFOCOM 2007:2591-2595
3645 Hosam Rowaihy, William Enck, Patrick McDaniel, Tom La Porta: Limiting Sybil Attacks in Structured P2P Networks. INFOCOM 2007:2596-2600
3644 Himabindu Pucha, Sabyasachi Roy, Y. Charlie Hu: Take One Get One Free: Leveraging P2P Networks for Content Promotion. INFOCOM 2006
3643 Marcus Duelk, Martin Zirngibl: 100 Gigabit Ethernet - Applications, Features, Challenges. INFOCOM 2006
3642 Stratis Ioannidis, Peter Marbach: A Brownian Motion Model for Last Encounter Routing. INFOCOM 2006
3641 Arunesh Mishra, Vladimir Brik, Suman Banerjee, Aravind Srinivasan, William A. Arbaugh: A Client-Driven Approach for Channel Management in Wireless LANs. INFOCOM 2006
3640 Li Lao, Jun-Hong Cui, Mario Gerla, Dario Maggiorini: A Comparative Study of Multicast Protocols: Top, Bottom, or In the Middle? INFOCOM 2006
3639 Vasileios Pappas, Daniel Massey, Andreas Terzis, Lixia Zhang: A Comparative Study of the DNS Design with DHT-Based Alternatives. INFOCOM 2006
3638 Kun Tan, Jingmin Song, Qian Zhang, Murari Sridharan: A Compound TCP Approach for High-Speed and Long Distance Networks. INFOCOM 2006
3637 Y. Zhang, M. Ahmed: A Control Theoretic Analysis of XCP. INFOCOM 2006
3636 Zhen Yu, Yong Guan: A Dynamic En-Route Scheme for Filtering False Data Injection in Wireless Sensor Networks. INFOCOM 2006
3635 Yannis Drougas, Vana Kalogeraki: A Fair Resource Allocation Algorithm for Peer-to-Peer Overlays. INFOCOM 2006
3634 Samrat Ganguly, Sudeept Bhatnagar, Akhilesh Saxena, Rauf Izmailov, Suman Banerjee: A Fast Content-Based Data Distribution Infrastructure. INFOCOM 2006
3633 Gentian Jakllari, Srikanth V. Krishnamurthy, Michalis Faloutsos, Prashant V. Krishnamurthy, Özgür Erçetin: A Framework for Distributed Spatio-Temporal Communications in Mobile Ad Hoc Networks. INFOCOM 2006
3632 Hoon Chang, Vishal Misra, Dan Rubenstein: A General Model and Analysis of Physical Layer Capture in 80211 Networks. INFOCOM 2006
3631 Chun-Chia Chen, Duan-Shin Lee: A Joint Design of Distributed QoS Scheduling and Power Control for Wireless Networks. INFOCOM 2006
3630 Mohamed Ali Kâafar, Thierry Turletti, Walid Dabbous: A Locating-First Approach for Scalable Overlay Multicast. INFOCOM 2006
3629 Tamás Borsos, István Szabó, Jeroen Wieland, Pál Zarándy: A Measurement Based Solution for Service Quality Assurance in Operational GPRS Networks. INFOCOM 2006
3628 Christina Fragouli, Jörg Widmer, Jean-Yves Le Boudec: A Network Coding Approach to Energy Efficient Broadcasting: From Theory to Practice. INFOCOM 2006
3627 Sukrit Dasgupta, Jaudelice Cavalcante de Oliveira, Jean-Philippe Vasseur: A New Distributed Dynamic Bandwidth Reservation Mechanism to Improve Resource Utilization: Simulation and Analysis on Real Network and Traffic Scenarios. INFOCOM 2006
3626 D.-L. Pham, Shinji Sugawara, Tetsuya Miki: A New Scheduler for Real-Time Applications in Differentiated Services Networks. INFOCOM 2006
3625 Bengt Ahlgren, Jari Arkko, Lars Eggert, Jarno Rajahalme: A Node Identity Internetworking Architecture. INFOCOM 2006
3624 Ping Chung Ng, David J. Edwards, Soung Chang Liew: A Novel Dual Channel MAC Protocol for IEEE80211 Ad-Hoc Networks. INFOCOM 2006
3623 Mathilde Durvy, Patrick Thiran: A Packing Approach to Compare Slotted and Non-Slotted Medium Access Control. INFOCOM 2006
3622 Jianfeng Wang, Yuguang Fang, Dapeng Oliver Wu: A Power-Saving Multi-Radio Multi-Channel MAC Protocol for Wireless Local Area Networks. INFOCOM 2006
3621 Bradley Stephenson, Biplab Sikdar: A Quasi-Species Approach for Modeling the Dynamics of Polymorphic Worms. INFOCOM 2006
3620 Michela Meo, Fabio Milan: A Rational Model for Service Rate Allocation in Peer-to-Peer Networks. INFOCOM 2006
3619 Xiaotong Zhuang, Santosh Pande: A Scalable Priority Queue Architecture for High Speed Network Processing. INFOCOM 2006
3618 Tanveer Zia, Albert Y. Zomaya: A Secure Triple-Key Management Scheme for Wireless Sensor Networks. INFOCOM 2006
3617 Dhanant Subhadrabandhu, Saswati Sarkar, Farooq Anjum: A Statistical Framework for Intrusion Detection in Ad Hoc Networks. INFOCOM 2006
3616 B. John Oommen, Sudip Misra, Ole-Christoffer Granmo: A Stochastic Random-Races Algorithm for Routing in MPLS Traffic Engineering. INFOCOM 2006
3615 Yan Lindsay Sun, Zhu Han, Wei Yu, K. J. Ray Liu: A Trust Evaluation Framework in Distributed Networks: Vulnerability Analysis and Defense Against Attacks. INFOCOM 2006
3614 Murali S. Kodialam, T. V. Lakshman, James B. Orlin, Sudipta Sengupta: A Versatile Scheme for Routing Highly Variable Traffic in Service Overlays and IP Backbones. INFOCOM 2006
3613 Hwangnam Kim, Hyuk Lim, Jennifer C. Hou: Accelerating Simulation of Large-Scale IP Networks: A Network Invariant Preserving Approach. INFOCOM 2006
3612 Andrew Brzezinski, Eytan Modiano: Achieving 100% Throughput in Reconfigurable Optical Networks. INFOCOM 2006
3611 Rui Zhang-Shen, Murali S. Kodialam, T. V. Lakshman: Achieving Bounded Blocking in Circuit-Switched Networks. INFOCOM 2006
3610 Yaling Yang, Robin Kravets: Achieving Delay Guarantees in Ad Hoc Networks through Dynamic Contention Window Adaptation. INFOCOM 2006
3609 A. Kapoor, Aaron Falk, Theodore Faber, Y. Pryadkin: Achieving Faster Access to Satellite Link Bandwidth. INFOCOM 2006
3608 Tian He, Pascal Vicaire, Ting Yan, Qing Cao, Gang Zhou, Lin Gu, Liqian Luo, Radu Stoleru, John A. Stankovic, Tarek F. Abdelzaher: Achieving Long-Term Surveillance in VigilNet. INFOCOM 2006
3607 Liqian Luo, Tian He, Gang Zhou, Lin Gu, Tarek F. Abdelzaher, John A. Stankovic: Achieving Repeatability of Asynchronous Events in Wireless Sensor Networks with EnviroLog. INFOCOM 2006
3606 Marc Mosko, J. J. Garcia-Luna-Aceves: Ad Hoc Routing with Distributed Ordered Sequences. INFOCOM 2006
3605 Kyung-Ho Sohn, Jongkyung Kim, Tae Sung Kim, Young Yong Kim, Jongsoo Seo: Adaptive Admission Control Algorithm for Multiuser OFDMA Wireless Networks. INFOCOM 2006
3604 Jing Zhu, Benjamin Metzler, Xingang Guo, York Liu: Adaptive CSMA for Scalable Network Capacity in High-Density WLAN: A Hardware Prototyping Approach. INFOCOM 2006
3603 Hazem Hamed, Adel El-Atawy, Ehab Al-Shaer: Adaptive Statistical Optimization Techniques for Firewall Packet Filtering. INFOCOM 2006
3602 T. Daniel Wallace, Abdallah Shami: Advanced Lightpath Reservation in WDM Networks. INFOCOM 2006
3601 Yong Zhu, Mostafa H. Ammar: Algorithms for Assigning Substrate Network Resources to Virtual Network Components. INFOCOM 2006
3600 Daniel Pérez Palomar, Mung Chiang: Alternative Decompositions for Distributed Maximization of Network Utility: Framework and Applications. INFOCOM 2006
3599 Salman Baset, Henning Schulzrinne: An Analysis of the Skype Peer-to-Peer Internet Telephony Protocol. INFOCOM 2006
3598 Claudio Mazzariello, Francesco Oliviero: An Autonomic Intrusion Detection System Based on Behavioral Network Engineering. INFOCOM 2006
3597 C.-Y. Ho, Y.-C. Chan, Y.-C. Chen: An Efficient Mechanism of TCP-Vegas on Mobile IP Networks. INFOCOM 2006
3596 Quan Le Trung: An Implementation of BGP-GCR+ Routing Architecture for Large-Scale Mobile Ad-Hoc Networks. INFOCOM 2006
3595 Christopher Marty, Mohamed A. Ali: An Integrated Framework for Managing Best Effort Traffic in MPLS Networks. INFOCOM 2006
3594 Tae Sung Kim, Young Yong Kim: An Interfererence Minimization and Predictive Location Based Relaying for Ad-Hoc Cellular Systems. INFOCOM 2006
3593 Zhu Ji, Wei Yu, K. J. Ray Liu: An Optimal Dynamic Pricing Framework for Autonomous Mobile Ad Hoc Networks. INFOCOM 2006
3592 Sriram Ramabhadran, Joseph Pasquale: Analysis of Long-Running Replicated Systems. INFOCOM 2006
3591 Ashwin R. Bharambe, Cormac Herley, Venkata N. Padmanabhan: Analyzing and Improving a BitTorrent Networks Performance Mechanisms. INFOCOM 2006
3590 Thomas Moscibroda, Pascal von Rickenbach, Roger Wattenhofer: Analyzing the Energy-Latency Trade-Off During the Deployment of Sensor Networks. INFOCOM 2006
3589 Visvasuresh Victor Govindaswamy, Gergely V. Záruba, G. Balasekaran: Analyzing the Receiver Window Modification Scheme of TCP Queues. INFOCOM 2006
3588 Eunhye Kim, Sehun Kim: Anomaly Detection in Network Security Based on Nonparametric Techniques. INFOCOM 2006
3587 Xiaofei Liao, Hai Jin, Yunhao Liu, Lionel M. Ni, Dafu Deng: AnySee: Peer-to-Peer Live Streaming. INFOCOM 2006
3586 Ajay Kumar Todimala, Byrav Ramamurthy: Approximation Algorithms for Survivable Multicommodity Flow Problems with Applications to Network Design. INFOCOM 2006
3585 Paolo Giaccone, Emilio Leonardi: Asymptotic Performance Limits of Switches with Buffered Crossbars Supporting Multicast Traffic. INFOCOM 2006
3584 Jia Yuan Yu, Shie Mannor: Asymptotics of Efficiency Loss in Competitive Market Mechanisms. INFOCOM 2006
3583 Ruomei Gao, Constantinos Dovrolis, Ellen W. Zegura: Avoiding Oscillations Due to Intelligent Route Control Systems. INFOCOM 2006
3582 Sven Hessler: BPB: A Novel Approach for Obtaining Network Path Characteristics in Non-Cooperative Environments. INFOCOM 2006
3581 Laura Huei-jiun Ju, Izhak Rubin: Backbone Topology Synthesis for Multi-Radio Meshed Wireless LANs. INFOCOM 2006
3580 Mohammad Taghi Hajiaghayi, Li Li, Vahab S. Mirrokni, Marina Thottan: Bandwidth Sharing Network Design for Multi-Class Traffic. INFOCOM 2006
3579 Faisal Aslam, Saqib Raza, Zartash Afzal Uzmi, Young-Chon Kim: Bandwidth Sharing with Primary Paths for Protection Routing in an MPLS Network. INFOCOM 2006
3578 Aggelos Vlavianos, Marios Iliofotou, Michalis Faloutsos: BiToS: Enhancing BitTorrent for Supporting Streaming Applications. INFOCOM 2006
3577 Ron Banner, Ariel Orda: Bottleneck Routing Games in Communication Networks. INFOCOM 2006
3576 Sundar Subramanian, Sanjay Shakkottai, Ari Arapostathis: Broadcasting in Sensor Networks: The Role of Local Information. INFOCOM 2006
3575 Predrag R. Jelenkovic, Petar Momcilovic, Mark S. Squillante: Buffer Scalability of Wireless Networks. INFOCOM 2006
3574 Jongseok Kim, Seongkwan Kim, Sunghyun Choi, Daji Qiao: CARA: Collision-Aware Rate Adaptation for IEEE 80211 WLANs. INFOCOM 2006
3573 Honggang Zhang, James F. Kurose, Donald F. Towsley: Can an Overlay Compensate for a Careless Underlay? INFOCOM 2006
3572 Sem C. Borst, Alexandre Proutiére, Nidhi Hegde: Capacity of Wireless Data Networks with Intra- and Inter-Cell Mobility. INFOCOM 2006
3571 R. Raghuraman, Sridhar Iyer: Capacity-Constrained Design of Resilient Multi-Tier Wireless Mesh Networks. INFOCOM 2006
3570 Daniel Stutzbach, Reza Rejaie: Capturing Accurate Snapshots of the Gnutella Network. INFOCOM 2006
3569 Jörg Wallerich, Anja Feldmann: Capturing the Variability of Internet Flows Across Time. INFOCOM 2006
3568 Yigal Bejerano, Seung-Jae Han: Cell Breathing Techniques for Load Balancing in Wireless LANs. INFOCOM 2006
3567 Bhaskaran Raman: Channel Allocation in 80211-Based Mesh Networks. INFOCOM 2006
3566 Kyoungwon Suh, Daniel R. Figueiredo, James F. Kurose, Donald F. Towsley: Characterizing and Detecting Skype-Relayed Traffic. INFOCOM 2006
3565 Sanquan Song, Dennis Goeckel, Donald F. Towsley: Collaboration Improves the Connectivity of Wireless Networks. INFOCOM 2006
3564 Fang-Chun Kuo, Hannes Tschofenig, Fabian Meyer, Xiaoming Fu: Comparison Studies between Pre-Shared and Public Key Exchange Mechanisms for Transport Layer Security. INFOCOM 2006
3563 Matthew Andrews, Lisa Zhang: Complexity of Wavelength Assignment in Optical Network Optimization. INFOCOM 2006
3562 Michael A. Bishop, Sanjay G. Rao, Kunwadee Sripanidkulchai: Considering Priority in Overlay Multicast Protocols Under Heterogeneous Environments. INFOCOM 2006
3561 Syed A. Khayam, Hayder Radha: Constant-Complexity Models for Wireless Channels. INFOCOM 2006
3560 Z. Duan, X. Yuan, J. Chandrashekar: Constructing Inter-Domain Packet Filters to Control IP Spoofing Based on BGP Updates. INFOCOM 2006
3559 Fang Hao, Murali S. Kodialam, T. V. Lakshman, Vivek Vishnumurthy, Hui Zhang: Content Based Rate Estimation Using Lazy Membership Testing. INFOCOM 2006
3558 Silvia Farraposo, Philippe Owezarski, Edmundo Monteiro: Contribution of Anomalies Detection and Analysis on Traffic Engineering. INFOCOM 2006
3557 Nageswara S. V. Rao, Qishi Wu, Song Ding, Steven M. Carter, William R. Wing, Amitabha Banerjee, Dipak Ghosal, Biswanath Mukherjee: Control Plane for Advance Bandwidth Scheduling in Ultra High-Speed Networks. INFOCOM 2006
3556 Nicholas B. Chang, Mingyan Liu: Controlled Flooding Search with Delay Constraints. INFOCOM 2006
3555 Anwar Elwalid, Debasis Mitra, Qiong Wang: Cooperative Data-Optical InterNetworking: Distributed Multi-Layer Optimization. INFOCOM 2006
3554 Christos Gkantsidis, Pablo Rodriguez: Cooperative Security for Network Coding File Distribution. INFOCOM 2006
3553 Lijun Chen, Steven H. Low, Mung Chiang, John C. Doyle: Cross-Layer Congestion Control, Routing and Scheduling Design in Ad Hoc Wireless Networks. INFOCOM 2006
3552 Moritz Steiner, Ernst W. Biersack: DDC: A Dynamic and Distributed Clustering Algorithm for Networked Virtual Environments Based on P2P networks. INFOCOM 2006
3551 Supranamaya Ranjan, Ram Swaminathan, Mustafa Uysal, Edward W. Knightly: DDoS-Resilient Scheduling to Counter Application Layer Attacks Under Imperfect Detection. INFOCOM 2006
3550 Yu Wang, Hongyi Wu: DFT-MSN: The Delay/Fault-Tolerant Mobile Sensor Network for Pervasive Information Gathering. INFOCOM 2006
3549 Lei Shi, Bin Liu, Wenjie Li, Beibei Wu, Yunhao Liu: DS-PPS: A Practical Framework to Guarantee Differentiated QoS in Terabit Routers with Parallel Packet Switch. INFOCOM 2006
3548 Evangelia Kalyvianaki, Yu-En Lu: Daedalus: Statistical Aggregation for Large-Scale Dynamic Networks. INFOCOM 2006
3547 David J. Houck, Kin K. Leung, Peter Winkler: Data Synchronization Methods Based on ShuffleNet and Hypercube for Networked Information Systems. INFOCOM 2006
3546 Sergey Gorinsky, Nageswara S. V. Rao: Dedicated Channels as an Optimal Network Support for Effective Transfer of Massive Data. INFOCOM 2006
3545 Gaurav Sharma, Ravi Mazumdar, Ness B. Shroff: Delay and Capacity Trade-Offs in Mobile Ad Hoc Networks: A Global Perspective. INFOCOM 2006
3544 Vincent Lenders, Martin May, Bernhard Plattner: Density-Based vs Proximity-Based Anycast Routing for Mobile Networks. INFOCOM 2006
3543 Stephan Olariu, Ivan Stojmenovic: Design Guidelines for Maximizing Lifetime and Avoiding Energy Holes in Sensor Networks with Uniform Distribution and Uniform Reporting. INFOCOM 2006
3542 Viet Thang Nguyen, Renato Lo Cigno, Yoram Ofek: Design and Analysis of Tunable Laser-Based Fractional l Switching (FlS). INFOCOM 2006
3541 Naixue Xiong, Xavier Défago, Xiaohua Jia, Yan Yang, Yanxiang He: Design and Analysis of a Self-Tuning Proportional and Integral Controller for Active Queue Management Routers to Support TCP Flows. INFOCOM 2006
3540 Tian Bu, Aiyou Chen, Scott A. Vander Wiel, Thomas Y. C. Woo: Design and Evaluation of a Fast and Robust Worm Detection Algorithm. INFOCOM 2006
3539 Dong-Hee Kwon, Woo-Jae Kim, Yong-Sung Kim, Wan-Sun Im, Young-Joo Suh: Design and Implementation of an Efficient Multicast Support Scheme for FMIPv6. INFOCOM 2006
3538 Ramasuri Narayanam: Design of Incentive Compatible Protocols for Wireless Networks: A Game Theoretic Approach. INFOCOM 2006
3537 Van Nguyen, Charles U. Martel: Designing Low Cost Networks with Short Routes and Low Congestion. INFOCOM 2006
3536 Girija J. Narlikar, Gordon T. Wilfong, Lisa Zhang: Designing Multihop Wireless Backhaul Networks with Delay Guarantees. INFOCOM 2006
3535 Srinath Perur: Designing Sparse Wireless Multi-Hop Networks. INFOCOM 2006
3534 Yanxia Rong, Sang Kyu Lee, Hyeong-Ah Choi: Detecting Stations Cheating on Backoff Rules in 80211 Networks Using Sequential Analysis. INFOCOM 2006
3533 Michael Rabinovich, Sipat Triukose, Zhihua Wen, Limin Wang: DipZoom: The Internet Measurements Marketplace. INFOCOM 2006
3532 Chiranjeeb Buragohain, Divyakant Agrawal, Subhash Suri: Distributed Navigation Algorithms for Sensor Networks. INFOCOM 2006
3531 R. Fonseca, P. Sharma, S. Banerjee, S.-J. Lee, S. Basu: Distributed Querying of Internet Distance Information. INFOCOM 2006
3530 Prashanth Hande, Sundeep Rangan, Mung Chiang: Distributed Uplink Power Control for Optimal SIR Assignment in Cellular Data Networks. INFOCOM 2006
3529 Weibin Zhao, Henning Schulzrinne: DotSlash: Handling Web Hotspots at Dynamic Content Web Sites. INFOCOM 2006
3528 Minsu Shin, Song Chong, Injong Rhee: Dual-Resource TCP/AQM for Processing-Constrained Networks. INFOCOM 2006
3527 Ricardo Martínez, Raul Muñoz, Jaume Comellas, Gabriel Junyent: Dynamic GMPLS-Based Establishment of Bidirectional Connections in All-Optical Networks. INFOCOM 2006
3526 Lu Shen, Ajay Kumar Todimala, Byrav Ramamurthy, Xi Yang: Dynamic Lightpath Scheduling in Next-Generation WDM Optical Networks. INFOCOM 2006
3525 Jinliang Fan, Mostafa H. Ammar: Dynamic Topology Configuration in Service Overlay Networks: A Study of Reconfiguration Policies. INFOCOM 2006
3524 Atul Singh, Tsuen-Wan Ngan, Peter Druschel, Dan S. Wallach: Eclipse Attacks on Overlay Networks: Threats and Defenses. INFOCOM 2006
3523 Hai Jiang, Weihua Zhuang: Effective Packet Scheduling with Fairness Adaptation in Ultra Wideband Wireless Networks. INFOCOM 2006
3522 Qing Cao, Tian He, Lei Fang, Tarek F. Abdelzaher, John A. Stankovic, Sang Hyuk Son: Efficiency Centric Communication Model for Wireless Sensor Networks. INFOCOM 2006
3521 A. Dumitrescu: Efficient Distributed Admission Control for Core-Stateless Networks. INFOCOM 2006
3520 Guangzhi Li, Dongmei Wang, Robert D. Doverspike: Efficient Distributed MPLS P2MP Fast Reroute. INFOCOM 2006
3519 Hai Liu, Peng-Jun Wan, Xiaohua Jia, Xinxin Liu, F. Frances Yao: Efficient Flooding Scheme Based on 1-Hop Information in Mobile Ad Hoc Networks. INFOCOM 2006
3518 Ayalvadi J. Ganesh, Dinan Gunawardena, Peter B. Key, Laurent Massoulié, Jacob Scott: Efficient Quarantining of Scanning Worms: Optimal Detection and Coordination. INFOCOM 2006
3517 Fei Li, Marina Thottan: End-to-End Service Quality Measurement Using Source-Routed Probes. INFOCOM 2006
3516 Wanshi Chen, Urbashi Mitra: Energy Efficient Scheduling with Individual Packet Delay Constraints. INFOCOM 2006
3515 Sungoh Kwon, Ness B. Shroff: Energy-Efficient Interference-Based Routing for Multi-Hop Wireless Networks. INFOCOM 2006
3514 Saraswathi Krithivasan: Enhancing QoS for Delay-Tolerant Multimedia Applications: Resource Utilization and Scheduling from a Service Provider's Perspective. INFOCOM 2006
3513 Richard W. Thommes, Mark Coates: Epidemiological Modelling of Peer-to-Peer Viruses and Pollution. INFOCOM 2006
3512 Patrick Traynor, Heesook Choi, Guohong Cao, Sencun Zhu, Tom La Porta: Establishing Pair-Wise Keys in Heterogeneous Sensor Networks. INFOCOM 2006
3511 Jose Morales Barroso, Guillermo Ibanez Fernandez: Ethernet Fabric Routing (UETS/EFR) - A Hierarchical, Scalable and Secure Ultrahigh Speed Switching Architecture. INFOCOM 2006
3510 Jeremie Leguay, Timur Friedman, Vania Conan: Evaluating Mobility Pattern Space Routing for DTNs. INFOCOM 2006
3509 Konstantina Papagiannaki, Mark D. Yarvis, W. Steven Conner: Experimental Characterization of Home Wireless Networks and Design Implications. INFOCOM 2006
3508 Lei Guo, Xiaoning Ding, Haining Wang, Qun Li, Songqing Chen, Xiaodong Zhang: Exploiting Idle Communication Power to Improve Wireless Network Performance and Energy Efficiency. INFOCOM 2006
3507 Xueyan Tang, Jianliang Xu: Extending Network Lifetime for Precision-Constrained Data Aggregation in Wireless Sensor Networks. INFOCOM 2006
3506 Minkyong Kim, David Kotz, Songkuk Kim: Extracting a Mobility Model from Real User Traces. INFOCOM 2006
3505 Zifei Zhong, Srihari Nelakuditi, Yinzhe Yu, Sanghwan Lee, Junling Wang, Chen-Nee Chuah: Failure Inferencing Based Fast Rerouting for Handling Transient Link and Node Failures. INFOCOM 2006
3504 Amund Kvalbein, Audun Fosselie Hansen, Tarik Cicic, Stein Gjessing, Olav Lysne: Fast IP Network Recovery Using Multiple Routing Configurations. INFOCOM 2006
3503 Damiano Carra: Fast Stochastic Exploration of Tree-Based File Distribution Architectures. INFOCOM 2006
3502 Arunabha Sen, Bao Hong Shen, Ling Zhou, Bin Hao: Fault-Tolerance in Sensor Networks: A New Evaluation Metric. INFOCOM 2006
3501 Xiaodong Huang, Jianping Wang, Vinod Vokkarane, Jason P. Jue: Fault-Tolerant Wireless Access Network Design for Dual-Homed Users. INFOCOM 2006
3500 Minghua Chen, Avideh Zakhor: Flow Control Over Wireless Network and Application Layer Implementation. INFOCOM 2006
3499 Nathanael Thompson, Guanghui He, Haiyun Luo: Flow Scheduling for End-Host Multihoming. INFOCOM 2006
3498 Sharad Jaiswal, Gianluca Iannaccone, James F. Kurose, Donald F. Towsley: Formal Analysis of Passive Measurement Inference Techniques. INFOCOM 2006
3497 Håkon Lønsethagen, Anne-Grethe Kåråsen, Annikki Welin, Bela Berde, Abdelkader Hajjaoui: GMPLS Control Plane, Policy-Based Management, and Information Modeling. INFOCOM 2006
3496 Xi Yang, Chris Tracy, Jerry Sobieski, Tom Lehman: GMPLS-Based Dynamic Provisioning and Traffic Engineering of High-Capacity Ethernet Circuits in Hybrid Optical/Packet Networks. INFOCOM 2006
3495 Mohammad Alsaeed: General Purpose Fault Injector for CORBA Applications. INFOCOM 2006
3494 Tian Bu, L. Li, Ramachandran Ramjee: Generalized Proportional Fair Scheduling in Third Generation Wireless Data Networks. INFOCOM 2006
3493 HoRang Jang, Hyong S. Kim: Hierarchical Broadcast Ring Architecture for High-Speed Ethernet Networks. INFOCOM 2006
3492 Qing Liu, M. A. Kok, Nasir Ghani, V. M. Muthalaly, M. Wang: Hierarchical Inter-Domain Routing in Optical DWDM Networks. INFOCOM 2006
3491 Jan van Lunteren: High-Performance Pattern-Matching for Intrusion Detection. INFOCOM 2006
3490 Ladan Gharai, Colin Perkins: Holographic and 3D Teleconferencing and Visualization: Implications for Terabit Networked Applications. INFOCOM 2006
3489 Mythili Vutukuru, Paul Valiant, Swastik Kopparty, Hari Balakrishnan: How to Construct a Correct and Scalable iBGP Configuration. INFOCOM 2006
3488 Teng Fei, Shu Tao, Lixin Gao, Roch Guérin: How to Select a Good Alternate Path in Large Peer-to-Peer Systems? INFOCOM 2006
3487 Mohamad El Masri: IEEE 80211e: The Problem of the Virtual Collision Management Within EDCA. INFOCOM 2006
3486 : INFOCOM 2006. 25th IEEE International Conference on Computer Communications, Joint Conference of the IEEE Computer and Communications Societies, 23-29 April 2006, Barcelona, Catalunya, Spain INFOCOM 2006
3485 Xin Zhang, Bin Liu, Wei Li, Y. Xi, David Bermingham, Xiaojun Wang: IPv6-Oriented 4*OC768 Packet Classification with Deriving-Merging Partition and Field-Variable Encoding Algorithm. INFOCOM 2006
3484 Amogh Dhamdhere, Constantinos Dovrolis: ISP and Egress Path Selection for Multihomed Networks. INFOCOM 2006
3483 Alefiya Hussain, John S. Heidemann, Christos Papadopoulos: Identification of Repeated Denial of Service Attacks. INFOCOM 2006
3482 Wei Wei, Sharad Jaiswal, James F. Kurose, Donald F. Towsley: Identifying 80211 Traffic from Passive Measurements Using Iterative Bayesian Inference. INFOCOM 2006
3481 Noriaki Kamiyama: Identifying High-Rate Flows with Less Memory. INFOCOM 2006
3480 Augustin Chaintreau, Pan Hui, Jon Crowcroft, Christophe Diot, Richard Gass, James Scott: Impact of Human Mobility on the Design of Opportunistic Forwarding Algorithms. INFOCOM 2006
3479 Guillaume Urvoy-Keller, Pietro Michiardi: Impact of Inner Parameters and Overlay Structure on the Performance of BitTorrent. INFOCOM 2006
3478 Daniel A. Villela, Vishal Misra, Dan Rubenstein, Sambit Sahu: Impact of Load Sharing on Provisioning Services with Consistency Requirements. INFOCOM 2006
3477 Ahmad Al Hanbali, Arzad Alam Kherani, Robin Groenevelt, Philippe Nain, Eitan Altman: Impact of Mobility on the Performance of Relaying in Ad Hoc Networks. INFOCOM 2006
3476 Rongmei Zhang, Chunqiang Tang, Y. Charlie Hu, Sonia Fahmy, Xiaojun Lin: Impact of the Inaccuracy of Distance Prediction Algorithms on Internet Applications - an Analytical and Comparative Study. INFOCOM 2006
3475 Fu Lin: Improve the Quality of Wireless Internet Services by Using Agent. INFOCOM 2006
3474 Daniel Stutzbach, Reza Rejaie: Improving Lookup Performance Over a Widely-Deployed DHT. INFOCOM 2006
3473 Rong Zheng: Information Dissemination in Power-Constrained Wireless Networks. INFOCOM 2006
3472 Mengke Li, Byrav Ramamurthy: Integrated Intermediate Waveband and Wavelength Switching for Optical WDM Mesh Networks. INFOCOM 2006
3471 Vincenzo Liberatore: Integrated Play-Back, Sensing, and Networked Control. INFOCOM 2006
3470 Andreas Hess, Hans-Florian Geerdes, Roland Wessäly: Intelligent Distribution of Intrusion Prevention Services on Programmable Routers. INFOCOM 2006
3469 Basheer Al-Duwairi, G. Manimaran: Intentional Dropping: A Novel Scheme for SYN Flooding Mitigation. INFOCOM 2006
3468 Krishna N. Ramachandran, Elizabeth M. Belding-Royer, Kevin C. Almeroth, Milind M. Buddhikot: Interference-Aware Channel Assignment in Multi-Radio Wireless Mesh Networks. INFOCOM 2006
3467 Thomas Bocek, David Hausheer, Reinhard Riedl, Burkhard Stiller: Introducing CPU Time as a Scarce Resource in P2P Systems to Achieve Fair Use in a Distributed DNS. INFOCOM 2006
3466 Honghai Zhang, Jennifer C. Hou: Is Deterministic Deployment Worse than Random Deployment for Wireless Sensor Networks? INFOCOM 2006
3465 Yueping Zhang, Derek Leonard, Dmitri Loguinov: JetMax: Scalable Max-Min Congestion Control for High-Speed Heterogeneous Networks. INFOCOM 2006
3464 Loc Bui, Atilla Eryilmaz, R. Srikant, Xinzhou Wu: Joint Asynchronous Congestion Control and Distributed Scheduling for Multi-Hop Wireless Networks. INFOCOM 2006
3463 Kui Ren, Wenjing Lou, Yanchao Zhang: LEDS: Providing Location-Aware End-to-End Data Security in Wireless Sensor Networks. INFOCOM 2006
3462 Mohammad Malli, Chadi Barakat, Walid Dabbous: Landmark-Based End-to-End Bandwidth Inference. INFOCOM 2006
3461 Qing Fang, Jie Gao, Leonidas J. Guibas: Landmark-Based Information Storage and Retrieval in Sensor Networks. INFOCOM 2006
3460 Hongwei Zhang, Anish Arora, Prasun Sinha: Learn on the Fly: Data-Driven Link Estimation and Routing in Sensor Network Backbones. INFOCOM 2006
3459 Matthew J. Miller, Nitin H. Vaidya: Leveraging Channel Diversity for Key Establishment in Wireless Sensor Networks. INFOCOM 2006
3458 Teng Fei, Shu Tao, Lixin Gao, Roch Guérin, Zhi-Li Zhang: Light-Weight Overlay Path Selection in a Peer-to-Peer Environment. INFOCOM 2006
3457 Chen Wang, Li Xiao: Locating Sensors in Concave Areas. INFOCOM 2006
3456 Jessica Feng, Lewis Girod, Miodrag Potkonjak: Location Discovery Using Data-Driven Statistical Error Modeling. INFOCOM 2006
3455 Sandeep Bhadra, Sanjay Shakkottai: Looking at Large Networks: Coding vs Queueing. INFOCOM 2006
3454 Ashraf Al Daoud, Murat Alanyali: Loss-Cognizant Pricing in Feed-Forward Networks with Greedy Users. INFOCOM 2006
3453 Xin Li, Fang Bian, Hui Zhang, Christophe Diot, Ramesh Govindan, Wei Hong, Gianluca Iannaccone: MIND: A Distributed Multi-Dimensional Indexing System for Network Diagnosis. INFOCOM 2006
3452 Gang Zhou, Chengdu Huang, Ting Yan, Tian He, John A. Stankovic, Tarek F. Abdelzaher: MMSN: Multi-Frequency Media Access Control for Wireless Sensor Networks. INFOCOM 2006
3451 John Burgess, Brian Gallagher, David Jensen, Brian Neil Levine: MaxProp: Routing for Vehicle-Based Disruption-Tolerant Networks. INFOCOM 2006
3450 Murali S. Kodialam, T. V. Lakshman, Sudipta Sengupta: Maximum Throughput Routing of Traffic in the Hose Model. INFOCOM 2006
3449 Jian Tang, Guoliang Xue, Weiyi Zhang: Maximum Throughput and Fair Bandwidth Allocation in Multi-Channel Wireless Mesh Networks. INFOCOM 2006
3448 Samuli Aalto, Urtzi Ayesta: Mean Delay Analysis of Multi Level Processor Sharing Disciplines. INFOCOM 2006
3447 Tuna Güven, Richard J. La, Mark A. Shayman, Bobby Bhattacharjee: Measurement-Based Multipath Multicast. INFOCOM 2006
3446 Matthew Andrews, Jin Cao, Jim McGowan: Measuring Human Satisfaction in Data Networks. INFOCOM 2006
3445 Lisong Xu, Josh Helzer: Media Streaming via TFRC: An Analytical Study of the Impact of TFRC on User-Perceived Media Quality. INFOCOM 2006
3444 Pedro Miguel da Fonseca Marques Ferreira, João Orvalho, Fernando Boavida: Middleware for Embedded Sensors and Actuators in Mobile Pervasive Augmented Reality. INFOCOM 2006
3443 Li Xiao, Klara Nahrstedt: Minimum User-Perceived Interference Routing in Service Composition. INFOCOM 2006
3442 Sabyasachi Roy, Y. Charlie Hu, Dimitrios Peroulis, Xiang-Yang Li: Minimum-Energy Broadcast Using Practical Directional Antennas in All-Wireless Networks. INFOCOM 2006
3441 Nikolaos Laoutaris, Georgios Smaragdakis, Azer Bestavros, Ioannis Stavrakakis: Mistreatment in Distributed Caching Groups: Causes and Implications. INFOCOM 2006
3440 Rajiv Chakravorty, Suman Banerjee, Samrat Ganguly: MobiStream: Error-Resilient Video Streaming in Wireless WANs Using Virtual Channels. INFOCOM 2006
3439 David Johnson, Tim Stack, Russ Fish, Daniel Montrallo Flickinger, Leigh Stoller, Robert Ricci, Jay Lepreau: Mobile Emulab: A Robotic Wireless and Sensor Network Testbed. INFOCOM 2006
3438 Christoph Angerer, Thomas R. Gross: Model and Architecture of a Timing Service for Adaptive Policy-Based Management Systems. INFOCOM 2006
3437 Sarut Vanichpun, Armand M. Makowski: Modeling Locality of Reference via Notions of Positive Dependence - Some Mixed News. INFOCOM 2006
3436 Michele Garetto, Theodoros Salonidis, Edward W. Knightly: Modeling Per-Flow Throughput and Capturing Starvation in CSMA Multi-Hop Wireless Networks. INFOCOM 2006
3435 Marcelo M. Carvalho, J. J. Garcia-Luna-Aceves: Modeling Wireless Ad Hoc Networks with Directional Antennas. INFOCOM 2006
3434 Ye Tian, Di Wu, Kam-Wing Ng: Modeling, Analysis and Improvement for BitTorrent-Like File Sharing Networks. INFOCOM 2006
3433 Mario Baldi, Yoram Ofek: Multi-Terabit/s IP Switching with Guaranteed Service for Streaming Traffic. INFOCOM 2006
3432 Yinzhu Zhou, Gee-Swee Poo: Multicast Wavelength Assignment for Sparse Wavelength Conversion in WDM Networks. INFOCOM 2006
3431 Cheng-Shang Chang, Yi-Ting Chen, Jay Cheng, Duan-Shin Lee: Multistage Constructions of Linear Compressors, Non-Overtaking Delay Lines, and Flexible Delay Lines. INFOCOM 2006
3430 Omer Gurewitz, Israel Cidon, Moshe Sidi: Network Clock Frequency Synchronization. INFOCOM 2006
3429 Guoqiang Shu, David Lee: Network Protocol System Fingerprinting - A Formal Approach. INFOCOM 2006
3428 Jang-Won Lee, Mung Chiang, A. Robert Calderbank: Network Utility Maximization and Price-Based Distributed Algorithms for Rate-Reliability Tradeoff. INFOCOM 2006
3427 Pieter Audenaert, Sofie Verbrugge, L. Depre, Didier Colle, Ilse Lievens, Mario Pickavet, Piet Demeester, W. Derijnck, P. Van Hecke, J. Valcke, J. Torreele: Next Generation Optical Scientific Network. INFOCOM 2006
3426 Edward Bortnikov, Israel Cidon, Idit Keidar: Nomadic Service Points. INFOCOM 2006
3425 Achille Pattavina, Riccardo Zanzottera: Non-Blocking WDM Switches Based on Arrayed Waveguide Grating and Shared Wavelength Conversion. INFOCOM 2006
3424 Jun Luo, Hersh V. Shukla, Jean-Pierre Hubaux: Non-Interactive Location Surveying for Sensor Networks with Mobility-Differentiated ToA. INFOCOM 2006
3423 Khaled Elmeleegy, Alan L. Cox, T. S. Eugene Ng: On Count-to-Infinity Induced Forwarding Loops Ethernet Networks. INFOCOM 2006
3422 Vivek Vishnumurthy, Paul Francis: On Heterogeneous Overlay Construction and Random Node Selection in Unstructured P2P Networks. INFOCOM 2006
3421 Hicham Khalife: On Hybrid Collision Control for IEEE 80211 Ad-Hoc Networks. INFOCOM 2006
3420 Antonis Hadjiantonis, Mohamed A. Ali, Haidar Chamas, William Bjorkman, Stuart D. Elby, Nasir Ghani: On The Implementation of Traffic-Engineering in an All-Ethernet Global Multi-Service Infrastructure. INFOCOM 2006
3419 Guy Weichenberg, Vincent W. S. Chan, Muriel Médard: On the Capacity of Optical Networks: A Framework for Comparing Different Transport Architectures. INFOCOM 2006
3418 Srinivasan Seetharaman, Mostafa H. Ammar: On the Interaction Between Dynamic Routing in Native and Overlay Layers. INFOCOM 2006
3417 Amir H. Rasti, Daniel Stutzbach, Reza Rejaie: On the Long-term Evolution of the Two-Tier Gnutella Overlay. INFOCOM 2006
3416 Joanna Moulierac: On the Number of Aggregated Multicast Trees in a Domain. INFOCOM 2006
3415 Alaa Muqattash, Tao Shu, Marwan Krunz: On the Performance of Joint Rate/Power Control with Adaptive Modulation in Wireless CDMA Networks. INFOCOM 2006
3414 Kai-Wei Fan, Sha Liu, Prasun Sinha: On the Potential of Structure-Free Data Aggregation in Sensor Networks. INFOCOM 2006
3413 Kuan-Ta Chen, Polly Huang, Guo-Shiuan Wang, Chun-Ying Huang, Chin-Laung Lei: On the Sensitivity of Online Game Playing Time to Network QoS. INFOCOM 2006
3412 Tian Bu, Yong Liu, Donald F. Towsley: On the TCP-Friendliness of VoIP Traffic. INFOCOM 2006
3411 Reuven Cohen, Romeo Rizzi: On the Trade-Off Between Energy and Multicast Efficiency in 80216e-Like Mobile Networks. INFOCOM 2006
3410 Zvi Rosberg: Optical Networks with Average Packet Delay Cost Criterion. INFOCOM 2006
3409 Qingjiang Tian, Edward J. Coyle: Optimal Distributed Detection in Clustered Wireless Sensor Networks: The Weighted Median. INFOCOM 2006
3408 Michael J. Neely: Optimal Energy and Delay Tradeoffs for Multi-User Wireless Downlinks. INFOCOM 2006
3407 Abbas El Gamal, James P. Mammen: Optimal Hopping in Ad Hoc Wireless Networks. INFOCOM 2006
3406 Sudarshan Vasudevan, Chun Zhang, Dennis Goeckel, Donald F. Towsley: Optimal Power Allocation in Wireless Networks with Transmitter-Receiver Power Tradeoffs. INFOCOM 2006
3405 François Baccelli, Nicholas Bambos, Carri W. Chan: Optimal Power, Throughput and Routing for Wireless Link Arrays. INFOCOM 2006
3404 Devavrat Shah, Damon Wischik: Optimal Scheduling Algorithms for Input-Queued Switches. INFOCOM 2006
3403 Yuxi Li, Janelle J. Harms, Robert Holte: Optimal Traffic-Oblivious Energy-Aware Routing for Multihop Wireless Networks. INFOCOM 2006
3402 Lei Miao, Christos G. Cassandras: Optimal Transmission Scheduling for Energy-Efficient Wireless Networks. INFOCOM 2006
3401 Marc Heissenbüttel, Torsten Braun, Markus Wälchli, Thomas Bernoulli: Optimized Stateless Broadcasting in Wireless Multi-Hop Networks. INFOCOM 2006
3400 Feng Xie, Gang Feng, Xun Yang: Optimizing Caching Policy for Loss Recovery in Reliable Multicast. INFOCOM 2006
3399 Matthew Andrews, Aleksandrs Slivkins: Oscillations with TCP-Like Flow Control in Networks of Queues. INFOCOM 2006
3398 Xiaoming Fu, Henning Schulzrinne, Hannes Tschofenig, Christian Dickmann, Dieter Hogrefe: Overhead and Performance Study of the General Internet Signaling Transport (GIST) Protocol. INFOCOM 2006
3397 Fabio Pianese, Joaquín Keller, Ernst W. Biersack: PULSE, a Flexible P2P Live Streaming System. INFOCOM 2006
3396 Olufunmilola Awoniyi, Fouad A. Tobagi: Packet Error Rate in OFDM-Based Wireless LANs Operating in Frequency Selective Channels. INFOCOM 2006
3395 Vijay Sivaraman, Hossam A. ElGindy, David Moreland, Diethelm Ostry: Packet Pacing in Short Buffer Optical Packet Switched Networks. INFOCOM 2006
3394 Errin W. Fulp: Parallel Firewall Designs for High-Speed Networks. INFOCOM 2006
3393 Eitan Altman, Dhiman Barman, Bruno Tuffin, Milan Vojnovic: Parallel TCP Sockets: Simple Model, Throughput and Validation. INFOCOM 2006
3392 Meeyoung Cha, Wanpracha Art Chaovalitwongse, Zihui Ge, Jennifer Yates, Sue B. Moon: Path Protection Routing with SRLG Constraints to Support IPTV in WDM Mesh Networks. INFOCOM 2006
3391 Yijie Han, Richard J. La, Hongqiang Zhang: Path Selection in Mobile Ad-Hoc Networks and Distribution of Path Duration. INFOCOM 2006
3390 Gaurav Sharma, Ayalvadi J. Ganesh, Peter B. Key: Performance Analysis of Contention Based Medium Access Control Protocols. INFOCOM 2006
3389 Yong Yang, Rocky Dunlap, Mike Rexroad, Brian F. Cooper: Performance of Full Text Search in Structured and Unstructured Peer-to-Peer Systems. INFOCOM 2006
3388 Dragos Niculescu, Samrat Ganguly, Kyungtae Kim, Rauf Izmailov: Performance of VoIP in a 80211 Wireless Mesh Network. INFOCOM 2006
3387 Hongqiang Zhai, Yuguang Fang: Physical Carrier Sensing and Spatial Reuse in Multirate and Multihop Wireless Ad Hoc Networks. INFOCOM 2006
3386 Meeyoung Cha, Sue B. Moon, Chong-Dae Park, Aman Shaikh: Placing Relay Nodes for Intra-Domain Path Diversity. INFOCOM 2006
3385 Govinda Rajan, Antonio J. Elizondo Armengol, Pieter Nooren, Andreas Foglar: Policy Based QoS Architecture in MUSE. INFOCOM 2006
3384 Xi Yang, Tom Lehman, Chris Tracy, Jerry Sobieski, Shujia Gong, Payam Torab, Bijan Jabbari: Policy-Based Resource Management and Service Provisioning in GMPLS Networks. INFOCOM 2006
3383 Belkacem Daheb, Guy Pujolle, Wissam Fawaz, Ken Chen: Policy-Based Service Provisioning Architecture for Hybrid Photonic Networks. INFOCOM 2006
3382 Huan Liu, Benjamin K. Chen, Fouad A. Tobagi: Power-Law Tradeoffs Between Optical and Electronic Switching. INFOCOM 2006
3381 Murali S. Kodialam, T. V. Lakshman, James B. Orlin, Sudipta Sengupta: Preconfiguring IP-Over-Optical Networks to Handle Router Failures and Unpredictable Traffic. INFOCOM 2006
3380 Libo Song, Udayan Deshpande, Ulas C. Kozat, David Kotz, Ravi Jain: Predictability of WLAN Mobility and Its Effects on Bandwidth Provisioning. INFOCOM 2006
3379 Ming Yang, Jifeng Ru, X. Rong Li, Huimin Chen, Anwer Bashi: Predicting Internet End-to-End Delay: A Multiple-Model Approach. INFOCOM 2006
3378 Daron Acemoglu, Asuman E. Ozdaglar: Price Competition in Communication Networks. INFOCOM 2006
3377 Saurabh Tewari, Leonard Kleinrock: Proportional Replication in Peer-to-Peer Networks. INFOCOM 2006
3376 Chunyu Hu, Hwangnam Kim, Jennifer C. Hou, Dennis Chi, Sai Shankar Nandagopalan: Provisioning Quality Controlled Medium Access in UltraWideBand-Operated WPANs. INFOCOM 2006
3375 Stefano Mussino, Mario Riva: QoS, Properties and Views to Achieve Dynamic Adaptivity. INFOCOM 2006
3374 Nandita Dukkipati, Nick McKeown, Alexander G. Fraser: RCP-AC: Congestion Control to Make Flows Complete Quickly in Any Environment. INFOCOM 2006
3373 Jin Liang, Klara Nahrstedt: RandPeer: Membership Management for QoS Sensitive Peer-to-Peer Applications. INFOCOM 2006
3372 Abhishek Kashyap, Samir Khuller, Mark A. Shayman: Relay Placement for Higher Order Connectivity in Wireless Sensor Networks. INFOCOM 2006
3371 Kang Jin Yoon, Young Yong Kim: Relayed Multicast Scheme in IEEE 80211 Wireless LAN Systems. INFOCOM 2006
3370 Mike Afergan, Rahul Sami: Repeated-Game Modeling of Multicast Overlays. INFOCOM 2006
3369 Jingyu Zhou, Caijie Zhang, Tao Yang, Lingkun Chu: Request-Aware Scheduling for Busy Internet Services. INFOCOM 2006
3368 Franco Callegati, Javier Aracil, Lena Wosinska, Nicola Andriolli, Davide Careglio, Alessio Giorgetti, J. Fdez-Palacios, C. Gauger, Miroslaw Klinkowski, Óscar González de Dios, Guoqiang Hu, Ezhan Karasan, Francesco Matera, Harald Øverby, Carla Raffaelli, Luca Rea, Namik Sengezer, Massimo Tornatore, Kyriakos Vlachos: Research on Optical Core Networks in the e-Photon/ONe Network of Excellence. INFOCOM 2006
3367 Yijie Han, Armand M. Makowski: Resequencing Delays Under Multipath Routing - Asymptotics in a Simple Queueing Model. INFOCOM 2006
3366 Charlie Bishara Kawwas, Mohammad Reza Soleymani: Resilient Packet Ring Performance Enhancements. INFOCOM 2006
3365 Changho Suh, Jeonghoon Mo: Resource Allocation for Multicast Services in Multicarrier Wireless Communications. INFOCOM 2006
3364 Ovidiu Valentin Drugan, Thomas Plagemann, Ellen Munthe-Kaas: Resource Aware Middleware Services Over MANETs. INFOCOM 2006
3363 István Csabai, Péter Hága, Peter Matray, Gábor Simon, József Steger, Gábor Vattay: Results of Large-Scale Queueing Delay Tomography Performed in the ETOMIC Infrastructure. INFOCOM 2006
3362 Robert T. Schweller, Zhichun Li, Yan Chen, Yan Gao, Ashish Gupta, Yin Zhang, Peter A. Dinda, Ming-Yang Kao, Gokhan Memik: Reverse Hashing for High-Speed Network Monitoring: Algorithms, Evaluation, and Applications. INFOCOM 2006
3361 Mihaela Enachescu, Yashar Ganjali, Ashish Goel, Nick McKeown, Tim Roughgarden: Routers with Very Small Buffers. INFOCOM 2006
3360 Martin Karsten: SI-WF2Q: WF2Q Approximation with Small Constant Execution Overhead. INFOCOM 2006
3359 Hua Yang, Fengji Ye, Biplab Sikdar: SIMPLE: Using Swarm Intelligence Methodology to Design Data Acquisition Protocol in Sensor Networks with Mobile Sinks. INFOCOM 2006
3358 Daniel Stutzbach, Reza Rejaie, Nick G. Duffield, Subhabrata Sen, Walter Willinger: Sampling Techniques for Large, Dynamic Graphs. INFOCOM 2006
3357 Min Sik Kim, Taekhyun Kim, YongJune Shin, Simon S. Lam, Edward J. Powers: Scalable Clustering of Internet Paths by Shared Congestion. INFOCOM 2006
3356 Xinzhou Wu, R. Srikant: Scheduling Efficiency of Distributed Greedy Scheduling Algorithms in Wireless Networks. INFOCOM 2006
3355 Nikolaos Chrysos, Manolis Katevenis: Scheduling in Non-Blocking Buffered Three-Stage Switching Fabrics. INFOCOM 2006
3354 Srdjan Capkun, Mario Cagalj, Mani B. Srivastava: Secure Localization with Hidden and Mobile Base Stations. INFOCOM 2006
3353 Rajani Muraleedharan, Lisa Ann Osadciw: Security: Cross Layer Protocol in Wireless Sensor Network. INFOCOM 2006
3352 Julien Ridoux, Antonio Nucci, Darryl Veitch: Seeing the Difference in IP Traffic: Wireless Versus Wireline. INFOCOM 2006
3351 Chun-cheng Chen, Eunsoo Seo, Hwangnam Kim, Haiyun Luo: Self-Learning Collision Avoidance for Wireless Networks. INFOCOM 2006
3350 Haim Zlatokrilov, Hanoch Levy: Session Privacy Enhancement by Traffic Dispersion. INFOCOM 2006
3349 Kok-Kiong Yap, Wai-Leong Yeow, Mehul Motani, Chen-Khong Tham: Simple Directional Antennas: Improving Performance in Wireless Multihop Networks. INFOCOM 2006
3348 Noriaki Kamiyama, Tatsuya Mori: Simple and Accurate Identification of High-Rate Flows by Packet Sampling. INFOCOM 2006
3347 Abhishek Kumar, Jun Xu: Sketch Guided Sampling - Using On-Line Estimates of Flow Size for Adaptive Data Collection. INFOCOM 2006
3346 Farinaz Koushanfar, Nina Taft, Miodrag Potkonjak: Sleeping Coordination for Comprehensive Sensing Using Isotonic Regression and Domatic Partitions. INFOCOM 2006
3345 Jayanthkumar Kannan, Beverly Yang, Scott Shenker, Puneet Sharma, Sujata Banerjee, Sujoy Basu, Sung-Ju Lee: SmartSeer: Using a DHT to Process Continuous Queries Over Peer-to-Peer Networks. INFOCOM 2006
3344 Kamran Sayrafian-Pour, Dominik Kaspar: Source-Assisted Direction Estimation Inside Buildings. INFOCOM 2006
3343 Prasanna Chaporkar, Saswati Sarkar: Stable Scheduling Policies for Maximizing Throughput in Generalized Constrained Queueing Systems. INFOCOM 2006
3342 James Noonan, Philip Perry, Seán Murphy, John Murphy: Stall and Path Monitoring Issues in SCTP. INFOCOM 2006
3341 Elias C. Efstathiou, Pantelis A. Frangoudis, George C. Polyzos: Stimulating Participation in Wireless Community Networks. INFOCOM 2006
3340 Jonathan Turner: Strong Performance Guarantees for Asynchronous Crossbar Schedulers. INFOCOM 2006
3339 Michael J. Neely: Super-Fast Delay Tradeoffs for Utility Optimal Fair Scheduling in Wireless Networks. INFOCOM 2006
3338 Li Zhou, Jinfeng Ni, Chinya V. Ravishankar: Supporting Secure Communication and Data Collection in Mobile Sensor Networks. INFOCOM 2006
3337 Andrea Baiocchi, Saverio Mascolo, Francesco Vacirca: TCP Internal Buffers Optimization for Fast Long-Distance Links. INFOCOM 2006
3336 Roman Dunaytsev, Yevgeni Koucheryavy, Jarmo Harju: TCP NewReno Throughput in the Presence of Correlated Losses: The Slow-but-Steady Variant. INFOCOM 2006
3335 E. Rodriguez-Colina, L. B. James, Richard V. Penty, Ian H. White, K. A. Williams, A. W. Moore: TCP Sending Rate Control at Terabits Per Second. INFOCOM 2006
3334 Arzad Alam Kherani, Rudesindo Núñez-Queija: TCP as an Implementation of Age-Based Scheduling: Fairness and Performance. INFOCOM 2006
3333 Junlan Zhou, Zhengrong Ji, Rajive Bagrodia: TWINE: A Hybrid Emulation Testbed for Wireless Networks and Applications. INFOCOM 2006
3332 Ahsan Habib, Nicolas Christin, John Chuang: Taking Advantage of Multihoming with Session Layer Striping. INFOCOM 2006
3331 Yigal Bejerano: Taking the Skeletons Out of the Closets: A Simple and Efficient Topology Discovery Scheme for Large Ethernet LANs. INFOCOM 2006
3330 Srinivas Shakkottai, Eitan Altman, Anurag Kumar: The Case for Non-Cooperative Multihoming of Users to Access Points in IEEE 80211 WLANs. INFOCOM 2006
3329 Thomas Moscibroda, Roger Wattenhofer: The Complexity of Connectivity in Wireless Networks. INFOCOM 2006
3328 Bill Lin, Isaac Keslassy: The Concurrent Matching Switch Architecture. INFOCOM 2006
3327 K.-T. Chen, P. Huang, C.-Y. Huang, C.-L. Lei: The Impact of Network Variabilities on TCP Clocking Schemes. INFOCOM 2006
3326 Jian Liang, Naoum Naoumov, Keith W. Ross: The Index Poisoning Attack in P2P File Sharing Systems. INFOCOM 2006
3325 Rami Cohen, Danny Raz: The Internet Dark Matter - on the Missing Links in the AS Connectivity Map. INFOCOM 2006
3324 Deke Guo, Jie Wu, Honghui Chen, Xueshan Luo: Theory and Network Applications of Dynamic Bloom Filters. INFOCOM 2006
3323 Farshid Delgosha, Faramarz Fekri: Threshold Key-Establishment in Distributed Sensor Networks Using a Multivariate Scheme. INFOCOM 2006
3322 Qunfeng Dong, Suman Banerjee, Benyuan Liu: Throughput Optimization and Fair Bandwidth Allocation in Multi-Hop Wireless LANs. INFOCOM 2006
3321 Bo Wang, Junshan Zhang: Throughput Scaling of Wideband Sensory Relay Networks: Cooperative Relaying, Power Allocation and Achievable Rates. INFOCOM 2006
3320 Affan A. Syed, John S. Heidemann: Time Synchronization for High Latency Acoustic Networks. INFOCOM 2006
3319 Carl J. Nuzman, Indra Widjaja: Time-Domain Wavelength Interleaved Networking with Wavelength Reuse. INFOCOM 2006
3318 Hyunseok Chang, Sugih Jamin, Walter Willinger: To Peer or Not to Peer: Modeling the Evolution of the Internet's AS-Level Topology. INFOCOM 2006
3317 Stefan Schmid, Lars Eggert, Marcus Brunner, Jürgen Quittek: Towards Autonomous Network Domains. INFOCOM 2006
3316 Kamesh Medepalli, Fouad A. Tobagi: Towards Performance Modeling of IEEE 80211 Based Wireless Networks: A Unified Framework and Its Applications. INFOCOM 2006
3315 Chunming Qiao, Wei Wei, Xin Liu: Towards a Polymorphous, Agile and Transparent Optical Network (PATON) Based on Polymorphous Optical Burst Switching (POBS). INFOCOM 2006
3314 Chi-Kin Chau, Richard J. Gibbens, Timothy G. Griffin: Towards a Unified Theory of Policy-Based Routing. INFOCOM 2006
3313 Piet Van Mieghem, Lieven Vandenberghe: Trade-Off Curves for QoS Routing. INFOCOM 2006
3312 Mark Claypool, Robert E. Kinicki, A. Kumar: Traffic Sensitive Active Queue Management. INFOCOM 2006
3311 Tao Jiang, John S. Baras: Trust Evaluation in Anarchy: A Case Study on Autonomous Networks. INFOCOM 2006
3310 Cheng-Jia Lai, Richard R. Muntz: Tunnel Vector: A New Routing Algorithm with Scalability. INFOCOM 2006
3309 Mohammadreza Yazdani, Wojciech Fraczak, Feliks J. Welfeld, Ioannis Lambadaris: Two Level State Machine Architecture for Content Inspection Engines. INFOCOM 2006
3308 Péter Hága, Krisztián Diriczi, Gábor Vattay, István Csabai: Understanding Packet Pair Separation Beyond the Fluid Model: The Key Role of Traffic Granularity. INFOCOM 2006
3307 Hung Xuan Nguyen, Patrick Thiran: Using End-to-End Data to Infer Lossy Links in Sensor Networks. INFOCOM 2006
3306 Michael Afergan: Using Repeated Games to Design Incentive-Based Routing Systems. INFOCOM 2006
3305 Tobias Harks, Tobias Poschwatta: Utility Fair Congestion Control for Real-Time Traffic. INFOCOM 2006
3304 Jang-Won Lee, Mung Chiang, A. Robert Calderbank: Utility-Optimal Medium Access Control: Reverse and Forward Engineering. INFOCOM 2006
3303 Jing Zhao, Guohong Cao: VADD: Vehicle-Assisted Data Delivery in Vehicular Ad Hoc Networks. INFOCOM 2006
3302 Ryuji Wakikawa, Yasuhiro Ohara, Jun Murai: Virtual Mobility Control Domain for Enhancements of Mobility Protocols. INFOCOM 2006
3301 Xiaoming Wang, Dmitri Loguinov: Wealth-Based Evolution Model for the Internet AS-Level Topology. INFOCOM 2006
3300 Márk Félegyházi, Jean-Pierre Hubaux: Wireless Operators in a Shared Spectrum. INFOCOM 2006
3299 Hyuk Lim, Lu-Chuan Kung, Jennifer C. Hou, Haiyun Luo: Zero-Configuration, Robust Indoor Localization: Theory and Experimentation. INFOCOM 2006
3298 Ariffin Datuk Yahaya, Tatsuya Suda: iREX: Inter-Domain Resource Exchange Architecture. INFOCOM 2006
3297 : INFOCOM 2005. 24th Annual Joint Conference of the IEEE Computer and Communications Societies, 13-17 March 2005, Miami, FL, USA INFOCOM 2005
3296 Taieb Znati: Message from the general chair. INFOCOM 2005
3295 Edward W. Knightly, Kia Makki: Message from the technical program co-chairs. INFOCOM 2005
3294 : Reviewers List. INFOCOM 2005
3293 : Reviewers List. INFOCOM 2005
3292 : Reviewers List. INFOCOM 2005
3291 Godfrey Tan, John V. Guttag: The 80211 MAC protocol leads to inefficient equilibria. INFOCOM 2005:1-11
3290 Hao Zhu, Guohong Cao: rDCF: a relay-enabled medium access control protocol for wireless ad hoc networks. INFOCOM 2005:12-22
3289 Xin Wang, Koushik Kar: Throughput modelling and fairness issues in CSMA/CA based ad-hoc networks. INFOCOM 2005:23-34
3288 Yaling Yang, Jun Wang, Robin Kravets: Distributed optimal contention window control for elastic traffic in wireless LANs. INFOCOM 2005:35-46
3287 Tianmin Ren, Richard J. La: Downlink beamforming algorithms with inter-cell interference in cellular networks. INFOCOM 2005:47-57
3286 François Baccelli, Bartlomiej Blaszczyszyn, Mohamed Kadhem Karray: Blocking rates in large CDMA networks via a spatial Erlang formula. INFOCOM 2005:58-67
3285 Tian Bu, Mun Choon Chan, Ramachandran Ramjee: Designing wireless radio access networks for third generation cellular networks. INFOCOM 2005:68-78
3284 Zvi Rosberg: Asymptotically optimal transmission power and rate control for CDMA channels with multiple user classes. INFOCOM 2005:79-89
3283 John G. Dorsey, Daniel P. Siewiorek: Exchange power management for mobile ad hoc networks. INFOCOM 2005:90-101
3282 Arash Behzad, Izhak Rubin: Impact of power control on the performance of ad hoc wireless networks. INFOCOM 2005:102-113
3281 Rahul Mangharam, Ragunathan Rajkumar, Sofie Pollin, Francky Catthoor, Bruno Bougard, Liesbet Van der Perre, Ingrid Moerman: Optimal fixed and scalable energy management for wireless networks. INFOCOM 2005:114-125
3280 Seung Jun Baek, Gustavo de Veciana: Spatial energy balancing in large-scale wireless multihop networks. INFOCOM 2005:126-137
3279 Hyuk Lim, Jennifer C. Hou: Localization for anisotropic sensor networks. INFOCOM 2005:138-149
3278 Antonio Caruso, Stefano Chessa, Swades De, A. Urpi: GPS free coordinate assignment and routing in wireless sensor networks. INFOCOM 2005:150-160
3277 Lei Fang, Wenliang Du, Peng Ning: A beacon-less location discovery scheme for wireless sensor networks. INFOCOM 2005:161-171
3276 Nissanka Bodhi Priyantha, Hari Balakrishnan, Erik D. Demaine, Seth J. Teller: Mobile-assisted localization in wireless sensor networks. INFOCOM 2005:172-183
3275 Sanjay Shakkottai, R. Srikant: Economics of network pricing with multiple ISPs. INFOCOM 2005:184-194
3274 Linhai He, Jean C. Walrand: Pricing differentiated Internet services. INFOCOM 2005:195-204
3273 Linhai He, Jean C. Walrand: Pricing and revenue sharing strategies for Internet service providers. INFOCOM 2005:205-216
3272 Matthew Andrews: Maximizing profit in overloaded networks. INFOCOM 2005:217-224
3271 Jinyang Li, Jeremy Stribling, Robert Morris, M. Frans Kaashoek, Thomer M. Gil: A performance vs cost framework for evaluating DHT design tradeoffs under churn. INFOCOM 2005:225-236
3270 Pierre François, Olivier Bonaventure: Avoiding transient loops during IGP convergence in IP networks. INFOCOM 2005:237-247
3269 Ramakrishna Gummadi, Ramesh Govindan: Practical routing-layer support for scalable multihoming. INFOCOM 2005:248-259
3268 Gábor Rétvári, József Bíró, Tibor Cinkler, Tamás Henk: A precomputation scheme for minimum interference routing: the least-critical-path-first algorithm. INFOCOM 2005:260-268
3267 David E. Taylor, Jonathan S. Turner: Scalable packet classification using distributed crossproducing of field labels. INFOCOM 2005:269-280
3266 Xiliang Liu, Kaliappa Nadar Ravindran, Dmitri Loguinov: What signals do packet-pair dispersions carry? INFOCOM 2005:281-292
3265 Kai Zheng, Hao Che, Zhijun Wang, Bin Liu: TCAM-based distributed parallel packet classification algorithm with range-matching solution. INFOCOM 2005:293-303
3264 Filippo Geraci, Marco Pellegrini, Paolo Pisati, Luigi Rizzo: Packet classification via improved space decomposition techniques. INFOCOM 2005:304-312
3263 David Kiyoshi Goldenberg, Arvind Krishnamurthy, W. C. Maness, Yang Richard Yang, Anthony Young, A. Stephen Morse, A. Savvides: Network localization in partially localizable networks. INFOCOM 2005:313-326
3262 Anxiao Jiang, Jehoshua Bruck: Monotone percolation and the topology control of wireless networks. INFOCOM 2005:327-338
3261 Qing Fang, Jie Gao, Leonidas J. Guibas, V. de Silva, Li Zhang: GLIDER: gradient landmark-based distributed routing for sensor networks. INFOCOM 2005:339-350
3260 Kyoungwon Suh, Yang Guo, James F. Kurose, Donald F. Towsley: Locating network monitors: complexity, heuristics, and coverage. INFOCOM 2005:351-361
3259 François Baccelli, Ki Baek Kim, Danny De Vleeschauwer: Analysis of the competition between wired, DSL and wireless users in an access network. INFOCOM 2005:362-373
3258 Alberto Blanc, Yi-Kai Liu, Amin Vahdat: Designing incentives for peer-to-peer routing. INFOCOM 2005:374-385
3257 Alex Zemlianov, Gustavo de Veciana: Cooperation and decision-making in a wireless multi-provider setting. INFOCOM 2005:386-397
3256 Brendan Burns, Oliver Brock, Brian Neil Levine: MV routing and capacity building in disruption tolerant networks. INFOCOM 2005:398-408
3255 Matthew Andrews, Lisa Zhang: Bounds on fiber minimization in optical networks with fixed fiber capacity. INFOCOM 2005:409-419
3254 Zhenghao Zhang, Yuanyuan Yang: A novel analytical model for electronic and optical switches with shared buffer. INFOCOM 2005:420-431
3253 Andrew Brzezinski, Eytan Modiano: Dynamic reconfiguration and routing algorithms for IP-over-WDM networks with stochastic traffic. INFOCOM 2005:432-443
3252 Chunpeng Xiao, Benny Bing, Gee-Kung Chang: An efficient reservation MAC protocol with preallocation for high-speed WDM passive optical networks. INFOCOM 2005:444-454
3251 Honghai Zhang, Jennifer C. Hou: Capacity of wireless ad-hoc networks under ultra wide band with power constraint. INFOCOM 2005:455-465
3250 Honghai Zhang, Jennifer C. Hou: On the critical total power for asymptotic k-connectivity in wireless networks. INFOCOM 2005:466-476
3249 Aravind Velayutham, Karthikeyan Sundaresan, Raghupathy Sivakumar: Non-pipelined relay improves throughput performance of wireless ad-hoc networks. INFOCOM 2005:477-490
3248 Daniele Miorandi, Eitan Altman: Coverage and connectivity of ad hoc networks presence of channel randomness. INFOCOM 2005:491-502
3247 Wensheng Zhang, Guohong Cao: Group rekeying for filtering false data in sensor networks: a predistribution and local collaboration-based approach. INFOCOM 2005:503-514
3246 Scott C.-H. Huang, Ding-Zhu Du: New constructions on broadcast encryption key pre-distribution schemes. INFOCOM 2005:515-523
3245 Haowen Chan, Adrian Perrig: PIKE: peer intermediaries for key establishment in sensor networks. INFOCOM 2005:524-535
3244 Anat Bremler-Barr, Hanoch Levy: Spoofing prevention method. INFOCOM 2005:536-547
3243 Murtaza Zafer, Eytan Modiano: A calculus approach to minimum energy transmission policies with quality of service guarantees. INFOCOM 2005:548-559
3242 Sara Alouf, Eitan Altman, Jérôme Galtier, Jean-François Lalande, Corinne Touati: Quasi-optimal bandwidth allocation for multi-spot MFTDMA satellites. INFOCOM 2005:560-571
3241 Michael J. Neely: Energy optimal control for time varying wireless networks. INFOCOM 2005:572-583
3240 Yunnan Wu, Qian Zhang, Wenwu Zhu, Sun-Yuan Kung: Bounding the power rate function of wireless ad hoc networks. INFOCOM 2005:584-595
3239 Brighten Godfrey, Ion Stoica: Heterogeneity and load balance in distributed hash tables. INFOCOM 2005:596-606
3238 Chun Zhang, Yong Liu, Weibo Gong, James F. Kurose, R. Moll, Donald F. Towsley: On optimal routing with multiple traffic matrices. INFOCOM 2005:607-618
3237 Aaron D. Jaggard, Vijay Ramachandran: Relating two formal models of path-vector routing. INFOCOM 2005:619-630
3236 Baruch Awerbuch, David Holmer, Herbert Rubens, Robert D. Kleinberg: Provably competitive adaptive routing. INFOCOM 2005:631-641
3235 A. S. Krishnakumar, P. Krishnan: On the accuracy of signal strength-based estimation techniques. INFOCOM 2005:642-650
3234 Tamer Nadeem, Lusheng Ji, Ashok K. Agrawala, Jonathan R. Agre: Location enhancement to IEEE 80211 DCF. INFOCOM 2005:651-663
3233 Cristian Tuduce, Thomas R. Gross: A mobility model based on WLAN traces and its validation. INFOCOM 2005:664-674
3232 Ishwar Ramani, Stefan Savage: SyncScan: practical fast handoff for 80211 infrastructure networks. INFOCOM 2005:675-684
3231 Neil Barakat, Edward H. Sargent: Dual-header optical burst switching: a new architecture for WDM burst-switched networks. INFOCOM 2005:685-693
3230 Zhenghao Zhang, Yuanyuan Yang: On-line optimal wavelength assignment in WDM networks with shared wavelength converter pool. INFOCOM 2005:694-705
3229 Michael Scheutzow, Patrick Seeling, Martin Maier, Martin Reisslein: Multicast capacity of packet-switched ring WDM networks. INFOCOM 2005:706-717
3228 Huan Liu, Fouad A. Tobagi: Traffic grooming in WDM SONET UPSR rings with multiple line speeds. INFOCOM 2005:718-729
3227 Xin Yu, Zvi M. Kedem: A distributed adaptive cache update algorithm for the dynamic source routing protocol. INFOCOM 2005:730-739
3226 Shiwen Mao, Yiwei Thomas Hou, Xiaolin Cheng, Hanif D. Sherali, Scott F. Midkiff: Multipath routing for multiple description video in wireless ad hoc networks. INFOCOM 2005:740-750
3225 Jian Tang, Guoliang Xue, Christopher Chandler, Weiyi Zhang: Interference-aware routing in multihop wireless networks using directional antennas. INFOCOM 2005:751-760
3224 Yiwei Thomas Hou, Yi Shi, Hanif D. Sherali, Jeffrey E. Wieselthier: Online lifetime-centric multicast routing for ad hoc networks with directional antennas. INFOCOM 2005:761-772
3223 Jian Ni, Danny H. K. Tsang, Sekhar Tatikonda, Brahim Bensaou: Threshold and reservation based call admission control policies for multiservice resource-sharing systems. INFOCOM 2005:773-783
3222 Konstantin Avrachenkov, Urtzi Ayesta, Patrick Brown, R. Núñez Queija: Discriminatory processor sharing revisited. INFOCOM 2005:784-795
3221 Lingkun Chu, Kai Shen, Hong Tang, Tao Yang, Jingyu Zhou: Dependency isolation for thread-based multi-tier Internet services. INFOCOM 2005:796-806
3220 Jiani Guo, Jingnan Yao, Laxmi N. Bhuyan: An efficient packet scheduling algorithm in network processors. INFOCOM 2005:807-818
3219 Emilio Leonardi, Marco Mellia, Marco Ajmone Marsan, Fabio Neri: Joint optimal scheduling and routing for maximum network throughput. INFOCOM 2005:819-830
3218 X. Yuan, Z. Duan: FRR: a proportional and worst-case fair round robin scheduler. INFOCOM 2005:831-842
3217 Deng Pan, Yuanyuan Yang: Credit based fair scheduling for packet switched networks. INFOCOM 2005:843-854
3216 Joseph Naor, Adi Rosén, Gabriel Scalosub: Online time-constrained scheduling in linear networks. INFOCOM 2005:855-865
3215 Fred Stann, John S. Heidemann: BARD: Bayesian-assisted resource discovery in sensor networks. INFOCOM 2005:866-877
3214 Mark D. Yarvis, Nandakishore Kushalnagar, Harkirat Singh, Anand Rangarajan, York Liu, Suresh Singh: Exploiting heterogeneity in sensor networks. INFOCOM 2005:878-890
3213 Gang Zhou, Tian He, John A. Stankovic, Tarek F. Abdelzaher: RID: radio interference detection in wireless sensor networks. INFOCOM 2005:891-901
3212 Min Ding, Dechang Chen, Kai Xing, Xiuzhen Cheng: Localized fault-tolerant event boundary detection in sensor networks. INFOCOM 2005:902-913
3211 Mingyu Chen, Jinsong Zhang, Manohar N. Murthi, Kamal Premaratne: TCP congestion avoidance: a network calculus interpretation and performance improvements. INFOCOM 2005:914-925
3210 S. Ebrahimi-Taghizadeh, Ahmed Helmy, Sandeep K. S. Gupta: TCP vs TCP: a systematic study of adverse impact of short-lived TCP flows on long-lived TCP flows. INFOCOM 2005:926-937
3209 Jiantao Wang, David X. Wei, Steven H. Low: Modelling and stability of FAST TCP. INFOCOM 2005:938-948
3208 Eli Brosh, G. Lubetzky-Sharon, Yuval Shavitt: Spatial-temporal analysis of passive TCP measurements. INFOCOM 2005:949-959
3207 Cheng-Shang Chang, Duan-Shin Lee, Chao-Lin Yu: Generalization of the Pollaczek-Khinchin formula for throughput analysis of input-buffered switches. INFOCOM 2005:960-970
3206 Paolo Giaccone, Emilio Leonardi, Devavrat Shah: On the maximal throughput of networks with finite buffers and its application to buffered crossbars. INFOCOM 2005:971-980
3205 Shang-Tse Chuang, Sundar Iyer, Nick McKeown: Practical algorithms for performance guarantees in buffered crossbars. INFOCOM 2005:981-991
3204 Stefanos Kaxiras, Georgios Keramidas: IPStash: a set-associative memory approach for efficient IP-lookup. INFOCOM 2005:992-1001
3203 Shao Liu, Tamer Basar, R. Srikant: Pitfalls in the fluid modeling of RTT variations in window-based congestion control. INFOCOM 2005:1002-1012
3202 Qishi Wu, Nageswara S. V. Rao: A class of reliable UDP-based transport protocols based on stochastic approximation. INFOCOM 2005:1013-1024
3201 Steven H. Low, Lachlan L. H. Andrew, Bartek P. Wydrowski: Understanding XCP: equilibrium and fairness. INFOCOM 2005:1025-1036
3200 Y. Zhang, T. R. Henderson: An implementation and experimental study of the explicit control protocol (XCP). INFOCOM 2005:1037-1048
3199 Pankaj Risbood, Swarup Acharya, Bhawna Gupta: The BEST challenge for next-generation Ethernet services. INFOCOM 2005:1049-1059
3198 Wei Wei, Bing Wang, Chun Zhang, James F. Kurose, Donald F. Towsley: Classification of access network types: Ethernet wireless LAN, ADSL, cable modem or dialup? INFOCOM 2005:1060-1071
3197 Amogh Dhamdhere, Hao Jiang, Constantinos Dovrolis: Buffer sizing for congested Internet links. INFOCOM 2005:1072-1083
3196 Jean-Loup Guillaume, Matthieu Latapy: Relevance of massively distributed explorations of the Internet topology: simulation results. INFOCOM 2005:1084-1094
3195 L. Pavel: Power control for OSNR optimization in optical networks: a distributed algorithm via a central cost approach. INFOCOM 2005:1095-1105
3194 Maciej Kurant, Patrick Thiran: On survivable routing of mesh topologies in IP-over-WDM networks. INFOCOM 2005:1106-1116
3193 Anurag Srivastava, Swarup Acharya, Mansoor Alicherry, Bhawna Gupta, Pankaj Risbood: Differential delay aware routing for Ethernet over SONET/SDH. INFOCOM 2005:1117-1127
3192 Hung Q. Ngo, Dazhen Pan, Yuanyuan Yang: Optical switching networks with minimum number of limited range wavelength converters. INFOCOM 2005:1128-1138
3191 Abhishek Sharma, Azer Bestavros, Ibrahim Matta: dPAM: a distributed prefetching protocol for scalable asynchronous multicast in P2P systems. INFOCOM 2005:1139-1150
3190 Ming Zhong, Kai Shen, Joel I. Seiferas: Non-uniform random membership management in peer-to-peer networks. INFOCOM 2005:1151-1161
3189 Abhishek Kumar, Jun Xu, Ellen W. Zegura: Efficient and scalable query routing for unstructured peer-to-peer networks. INFOCOM 2005:1162-1173
3188 Jian Liang, Rakesh Kumar, Y. Xi, Keith W. Ross: Pollution in P2P file sharing systems. INFOCOM 2005:1174-1185
3187 Zohar Naor: On-line search for mobile users. INFOCOM 2005:1186-1195
3186 Yun Mao, Björn Knutsson, Honghui Lu, Jonathan M. Smith: DHARMA: distributed home agent for robust mobile access. INFOCOM 2005:1196-1206
3185 Jie Li, Atushi Kubota, Hisao Kameda: Location management for PCS networks with consideration of mobility patterns. INFOCOM 2005:1207-1216
3184 David Madigan, E. Einahrawy, R. P. Martin, Wen-Hua Ju, P. Krishnan, A. S. Krishnakumar: Bayesian indoor positioning systems. INFOCOM 2005:1217-1227
3183 Saumitra M. Das, Himabindu Pucha, Y. Charlie Hu: Performance comparison of scalable location services for geographic ad hoc routing. INFOCOM 2005:1228-1239
3182 Nianjun Zhou, Alhussein A. Abouzeid: Routing in ad hoc networks: a theoretical framework with practical implications. INFOCOM 2005:1240-1251
3181 Wei Yu, Yan Sun, K. J. Ray Liu: HADOF: defense against routing disruptions in mobile ad hoc networks. INFOCOM 2005:1252-1261
3180 Xiaojun Lin, Ness B. Shroff, R. Srikant: Asymptotically optimal power-aware routing for multihop wireless networks with renewable energy sources. INFOCOM 2005:1262-1272
3179 Sándor Rácz, Tamás Jakabfy, J. Farkas, Csaba Antal: Connection admission control for flow level QoS in bufferless models. INFOCOM 2005:1273-1282
3178 Wenye Wang, Xinbing Wang, Arne A. Nilsson: A new admission control scheme under energy and QoS constraints for wireless networks. INFOCOM 2005:1283-1294
3177 Eitan Altman: On stochastic recursive equations and infinite server queues. INFOCOM 2005:1295-1302
3176 Sami Ayyorgun, Sarut Vanichpun, Wu-chun Feng: Q-Composer and CpR: a probabilistic synthesizer and regulator of traffic (a probabilistic control of buffer occupancy). INFOCOM 2005:1303-1315
3175 Eitan Altman, Konstantin Avrachenkov, Arzad Alam Kherani, B. J. Prabhu: Performance analysis and stochastic stability of congestion control protocols. INFOCOM 2005:1316-1327
3174 Boris Miller, Konstantin Avrachenkov, Karen Stepanyan, Gregory Miller: Flow control as stochastic optimal control problem with incomplete information. INFOCOM 2005:1328-1337
3173 Ao Tang, Jiantao Wang, Steven H. Low, Mung Chiang: Network equilibrium of heterogeneous congestion control protocols. INFOCOM 2005:1338-1349
3172 Eitan Altman, Konstantin Avrachenkov, B. J. Prabhu: Fairness in MIMD congestion control algorithms. INFOCOM 2005:1350-1361
3171 Mina Guirguis, Azer Bestavros, Ibrahim Matta, Yuting Zhang: Reduction of quality (RoQ) attacks on Internet end-systems. INFOCOM 2005:1362-1372
3170 Qiming Li, Ee-Chien Chang, Mun Choon Chan: On the effectiveness of DDoS attacks on statistical filtering. INFOCOM 2005:1373-1383
3169 Yong Tang, Shigang Chen: Defending against Internet worms: a signature-based approach. INFOCOM 2005:1384-1394
3168 Abraham Yaar, Adrian Perrig, Dawn Xiaodong Song: FIT: fast Internet traceback. INFOCOM 2005:1395-1406
3167 Wenrui Zhao, Mostafa H. Ammar, Ellen W. Zegura: Controlling the mobility of multiple data transport ferries in a delay-tolerant network. INFOCOM 2005:1407-1418
3166 Jonathan Ledlie, Margo I. Seltzer: Distributed, secure load balancing with skew, heterogeneity and churn. INFOCOM 2005:1419-1430
3165 Weifeng Chen, L. Clarke, James F. Kurose, Donald F. Towsley: Optimizing cost-sensitive trust-negotiation protocols. INFOCOM 2005:1431-1442
3164 Yossi Matias, R. Refua: Delayed-dictionary compression for packet networks. INFOCOM 2005:1443-1454
3163 Ayalvadi J. Ganesh, Laurent Massoulié, Donald F. Towsley: The effect of network topology on the spread of epidemics. INFOCOM 2005:1455-1466
3162 Satish Raghunath, Shivkumar Kalyanaraman, K. K. Ramakrishnan: Trade-offs in resource management for virtual private networks. INFOCOM 2005:1467-1477
3161 Wei Liang, Wenye Wang: A quantitative study of authentication and QoS in wireless IP networks. INFOCOM 2005:1478-1489
3160 Hsinping Wang, Tsungnan Lin: On efficiency in searching networks. INFOCOM 2005:1490-1501
3159 Xin Chen, Shansi Ren, Haining Wang, Xiaodong Zhang: SCOPE: scalable consistency maintenance in structured P2P systems. INFOCOM 2005:1502-1513
3158 Rongmei Zhang, Y. Charlie Hu: Assisted peer-to-peer search with partial indexing. INFOCOM 2005:1514-1525
3157 Christos Gkantsidis, Milena Mihail, Amin Saberi: Hybrid search schemes for unstructured peer-to-peer networks. INFOCOM 2005:1526-1537
3156 Micah Adler, Rakesh Kumar, Keith W. Ross, Dan Rubenstein, Torsten Suel, David D. Yao: Optimal peer selection for P2P downloading and streaming. INFOCOM 2005:1538-1549
3155 Anurag Kumar, Eitan Altman, Daniele Miorandi, Munish Goyal: New insights from a fixed point analysis of single cell IEEE 80211 WLANs. INFOCOM 2005:1550-1561
3154 Arunchandar Vasan, Ramachandran Ramjee, Thomas Y. C. Woo: ECHOS - enhanced capacity 80211 hotspots. INFOCOM 2005:1562-1572
3153 Daji Qiao, Kang G. Shin: Smart power-saving mode for IEEE 80211 wireless LANs. INFOCOM 2005:1573-1583
3152 Chun-Ting Chou, S. N. Shankar, Kang G. Shin: Achieving per-stream QoS with distributed airtime allocation and admission control in IEEE 80211e wireless LANs. INFOCOM 2005:1584-1595
3151 Weizhao Wang, Xiang-Yang Li, Zheng Sun, Yu Wang: Design multicast protocols for non-cooperative networks. INFOCOM 2005:1596-1607
3150 Desmond S. Lun, Niranjan Ratnakar, Ralf Koetter, Muriel Médard, Ebad Ahmed, Hyunjoo Lee: Achieving minimum-cost multicast: a decentralized approach based on network coding. INFOCOM 2005:1607-1617
3149 Zongpeng Li, Baochun Li: Efficient and distributed computation of maximum multicast rates. INFOCOM 2005:1618-1628
3148 François Baccelli, Augustin Chaintreau, Zhen Liu, Anton Riabov: The one-to-many TCP overlay: a scalable and reliable multicast architecture. INFOCOM 2005:1629-1640
3147 M. Sundstron, Lars-Åke Larzon: High-performance longest prefix matching supporting high-speed incremental updates and guaranteed compression. INFOCOM 2005:1641-1652
3146 Stephen P. Boyd, Arpita Ghosh, Balaji Prabhakar, Devavrat Shah: Gossip algorithms: design, analysis and applications. INFOCOM 2005:1653-1664
3145 Utku Irmak, Svilen Mihaylov, Torsten Suel: Improved single-round protocols for remote file synchronization. INFOCOM 2005:1665-1676
3144 Dongsheng Li, Xicheng Lu, Jie Wu: FISSIONE: a scalable constant degree and low congestion DHT scheme based on Kautz graphs. INFOCOM 2005:1677-1688
3143 Ningning Hu, Li Li, Zhuoqing Morley Mao, Peter Steenkiste, Jia Wang: A measurement study of Internet bottlenecks. INFOCOM 2005:1689-1700
3142 David B. Chua, Eric D. Kolaczyk, Mark Crovella: Efficient monitoring of end-to-end network properties. INFOCOM 2005:1701-1711
3141 Isaac Keslassy, Cheng-Shang Chang, Nick McKeown, Duan-Shin Lee: Optimal load-balancing. INFOCOM 2005:1712-1722
3140 Michael J. Neely, Eytan Modiano, Chih-Ping Li: Fairness and optimal stochastic control for heterogeneous networks. INFOCOM 2005:1723-1734
3139 Jun Luo, Jean-Pierre Hubaux: Joint mobility and routing for lifetime elongation in wireless sensor networks. INFOCOM 2005:1735-1746
3138 Chiranjeeb Buragohain, Divyakant Agrawal, Subhash Suri: Power aware routing for sensor databases. INFOCOM 2005:1747-1757
3137 Yu He, Cauligi S. Raghavendra: XVR: X visiting-pattern routing for sensor networks. INFOCOM 2005:1758-1769
3136 D. Ferrara, Laura Galluccio, Alessandro Leonardi, Giacomo Morabito, Sergio Palazzo: MACRO: an integrated MAC/routing protocol for geographic forwarding in wireless sensor networks. INFOCOM 2005:1770-1781
3135 Arindam Kumar Das, Robert J. Marks II, Payman Arabshahi, Andrew Gray: Power controlled minimum frame length scheduling in TDMA wireless networks with sectored antennas. INFOCOM 2005:1782-1793
3134 Atilla Eryilmaz, R. Srikant: Fair resource allocation in wireless networks using queue-length-based scheduling and congestion control. INFOCOM 2005:1794-1803
3133 Xiaojun Lin, Ness B. Shroff: The impact of imperfect scheduling on cross-layer rate control in wireless networks. INFOCOM 2005:1804-1814
3132 Piyush Gupta, Yogesh Sankarasubramaniam, Alexander L. Stolyar: Random-access scheduling with service differentiation in wireless networks. INFOCOM 2005:1815-1825
3131 Nahur Fonseca, Mark Crovella: Bayesian packet loss detection for TCP. INFOCOM 2005:1826-1837
3130 R. King, Richard G. Baraniuk, Rudolf H. Riedi: TCP-Africa: an adaptive and fair rapid increase rule for scalable TCP. INFOCOM 2005:1838-1848
3129 Jörg Ott, Dirk Kutscher: A disconnection-tolerant transport for drive-thru Internet environments. INFOCOM 2005:1849-1862
3128 Ruy de Oliveira, Torsten Braun: A dynamic adaptive acknowledgment strategy for TCP over multihop wireless networks. INFOCOM 2005:1863-1874
3127 Jiangzhuo Chen, Lujun Jia, Xin Liu, Guevara Noubir, Ravi Sundaram: Minimum energy accumulative routing in wireless networks. INFOCOM 2005:1875-1886
3126 Jinhua Zhu, Xin Wang: PEER: a progressive energy efficient routing protocol for wireless ad hoc networks. INFOCOM 2005:1887-1896
3125 Philippe Nain, Donald F. Towsley, Benyuan Liu, Zhen Liu: Properties of random direction models. INFOCOM 2005:1897-1907
3124 Yingqun Yu, Georgios B. Giannakis: SICTA: a 0693 contention tree algorithm using successive interference cancellation. INFOCOM 2005:1908-1916
3123 Srdjan Capkun, Jean-Pierre Hubaux: Secure positioning of wireless devices with application to sensor networks. INFOCOM 2005:1917-1928
3122 Heesook Choi, Hui Song, Guohong Cao, Thomas F. La Porta: Mobile multi-layered IPsec. INFOCOM 2005:1929-1939
3121 Yanchao Zhang, Wei Liu, Wenjing Lou: Anonymous communications in mobile ad hoc networks. INFOCOM 2005:1940-1951
3120 Patrick P. C. Lee, Vishal Misra, Dan Rubenstein: Distributed algorithms for secure multipath routing. INFOCOM 2005:1952-1963
3119 Ritesh Madan, Shuguang Cui, Sanjay Lall, Andrea J. Goldsmith: Cross-layer design for lifetime maximization in interference-limited wireless sensor networks. INFOCOM 2005:1964-1975
3118 Mihaela Cardei, My T. Thai, Yingshu Li, Weili Wu: Energy-efficient target coverage in wireless sensor networks. INFOCOM 2005:1976-1984
3117 Wook Choi, Sajal K. Das: A novel framework for energy - conserving data gathering in wireless sensor networks. INFOCOM 2005:1985-1996
3116 Koushik Kar, Ananth Krishnamurthy, Neeraj Jaggi: Dynamic node activation in networks of rechargeable sensors. INFOCOM 2005:1997-2007
3115 Lin Cai, Xuemin Shen, Jon W. Mark, Jianping Pan: A QoS-aware AIMD protocol for time-sensitive applications in wired/wireless networks. INFOCOM 2005:2008-2019
3114 Julian Chesterfield, Rajiv Chakravorty, Ian Pratt, Suman Banerjee, Pablo Rodriguez: Exploiting diversity to enhance multimedia streaming over cellular links. INFOCOM 2005:2020-2031
3113 Patrick A. Hosein: Capacity of packetized voice services over time-shared wireless packet data channels. INFOCOM 2005:2032-2043
3112 Jens Müller, Sergei Gorlatch: GSM: a game scalability model for multiplayer real-time games. INFOCOM 2005:2044-2045
3111 Seong Soo Kim, A. L. Narasimha Reddy: A study of analyzing network traffic as images in real-time. INFOCOM 2005:2056-2067
3110 David E. Taylor, Jonathan S. Turner: ClassBench: a packet classification benchmark. INFOCOM 2005:2068-2079
3109 Fang Hao, Murali S. Kodialam, T. V. Lakshman, Hui Zhang: Fast, memory-efficient traffic estimation by coincidence counting. INFOCOM 2005:2080-2090
3108 Takashi Okumura, Daniel Mossé: The Netnice packet filter: bridging the structural mismatches in end-host network control. INFOCOM 2005:2091-2101
3107 Xinyan Zhang, Jiangchuan Liu, Bo Li, Tak-Shing Peter Yum: CoolStreaming/DONet: a data-driven overlay network for peer-to-peer live media streaming. INFOCOM 2005:2102-2111
3106 Shelley Zhuang, Dennis Geels, Ion Stoica, Randy H. Katz: On failure detection algorithms in overlay networks. INFOCOM 2005:2112-2123
3105 Wenjie Wang, Cheng Jin, Sugih Jamin: Network overlay construction under limited end-to-end reachability. INFOCOM 2005:2124-2134
3104 Selwyn Yuen, Baochun Li: Strategyproof mechanisms for dynamic tree formation in overlay networks. INFOCOM 2005:2135-2146
3103 Sreenivas Gollapudi, D. Sivakumar, Aidong Zhang: Exploiting anarchy in networks: a game-theoretic approach to combining fairness and throughput. INFOCOM 2005:2147-2158
3102 Krishna K. Ramachandran, Biplab Sikdar: An analytic framework for modeling peer to peer networks. INFOCOM 2005:2159-2169
3101 Geoffrey G. Xie, Jibin Zhan, David A. Maltz, Hui Zhang, Albert G. Greenberg, Gísli Hjálmtýsson, Jennifer Rexford: On static reachability analysis of IP networks. INFOCOM 2005:2170-2183
3100 Zongpeng Li, Baochun Li, Dan Jiang, Lap Chi Lau: On achieving optimal throughput with network coding. INFOCOM 2005:2184-2194
3099 Mathilde Durvy, Patrick Thiran: Reaction-diffusion based transmission patterns for ad hoc networks. INFOCOM 2005:2195-2205
3098 Xiaohua Jia, Dongsoo Kim, Sam Makki, Peng-Jun Wan, Chih-Wei Yi: Power assignment for k-connectivity in wireless ad hoc networks. INFOCOM 2005:2206-2211
3097 Lijun Chen, Steven H. Low, John C. Doyle: Joint congestion control and media access control design for ad hoc wireless networks. INFOCOM 2005:2212-2222
3096 Ashish Raniwala, Tzi-cker Chiueh: Architecture and algorithms for an IEEE 80211-based multi-channel wireless mesh network. INFOCOM 2005:2223-2234
3095 Christos Gkantsidis, Pablo Rodriguez: Network coding for large scale content distribution. INFOCOM 2005:2235-2245
3094 Samrat Ganguly, Akhilesh Saxena, Sudeept Bhatnagar, Rauf Izmailov, Suman Banerjee: Fast replication in content distribution overlays. INFOCOM 2005:2246-2256
3093 Min Dai, Dmitri Loguinov: Analysis and modeling of MPEG-4 and H264 multi-layer video traffic. INFOCOM 2005:2257-2267
3092 Shu Tao, Kuai Xu, Antonio Estepa, Teng Fei, Lixin Gao, Roch Guérin, James F. Kurose, Donald F. Towsley, Zhi-Li Zhang: Improving VoIP quality through path switching. INFOCOM 2005:2268-2278
3091 Saikat Ray, Wei Lai, Ioannis Ch. Paschalidis: Deployment optimization of sensornet-based stochastic location-detection systems. INFOCOM 2005:2279-2289
3090 Stavros Toumpis, Leandros Tassiulas: Packetostatics: deployment of massively dense sensor networks as an electrostatics problem. INFOCOM 2005:2290-2301
3089 Guiling Wang, Guohong Cao, Thomas F. La Porta, Wensheng Zhang: Sensor relocation in mobile sensor networks. INFOCOM 2005:2302-2312
3088 Jie Wu, Shuhui Yang: SMART: a scan-based movement-assisted sensor deployment method in wireless sensor networks. INFOCOM 2005:2313-2324
3087 Shiwen Mao, Shivendra S. Panwar, Yiwei Thomas Hou: On optimal partitioning of realtime traffic over multiple paths. INFOCOM 2005:2325-2336
3086 Jaideep Chandrashekar, Zhenhai Duan, Zhi-Li Zhang, Jeffrey Krasky: Limiting path exploration in BGP. INFOCOM 2005:2337-2348
3085 Vahid Tabatabaee, Bobby Bhattacharjee, Richard J. La, Mark A. Shayman: Differentiated traffic engineering for QoS provisioning. INFOCOM 2005:2349-2359
3084 Hao Wang, Haiyong Xie, Lili Qiu, Abraham Silberschatz, Yang Richard Yang: Optimal ISP subscription for Internet multihoming: algorithm design and implication analysis. INFOCOM 2005:2360-2371
3083 Wu-chi Feng, Edward C. Kaiser, A. Luu: Design and implementation of network puzzles. INFOCOM 2005:2372-2382
3082 Peter B. Key, Laurent Massoulié, Milan Vojnovic: Farsighted users harness network time-diversity. INFOCOM 2005:2383-2394
3081 Murali S. Kodialam, T. V. Lakshman, Sudipta Sengupta: Configuring networks with content filtering nodes with applications to network security. INFOCOM 2005:2395-2404
3080 Abhinav Kamra, Hanhua Feng, Vishal Misra, Angelos D. Keromytis: The effect of DNS delays on worm propagation in an IPv6 Internet. INFOCOM 2005:2405-2414
3079 Matthew Andrews, Lijun Qian, Alexander L. Stolyar: Optimal utility based multi-user throughput allocation subject to throughput constraints. INFOCOM 2005:2415-2424
3078 Gijs van Kessel, R. Núñez Queija, Sem C. Borst: Differentiated bandwidth sharing with disparate flow sizes. INFOCOM 2005:2425-2435
3077 Abhimanyu Das, Debojyoti Dutta, Ahmed Helmy, Ashish Goel, John S. Heidemann: Low-state fairness: lower bounds and practical enforcement. INFOCOM 2005:2436-2446
3076 Olufemi Komolafe, Joseph S. Sventek: RSVP performance evaluation using multi-objective evolutionary optimisation. INFOCOM 2005:2447-2457
3075 Ioannis Ch. Paschalidis, Wei Lai, David Starobinski: Asymptotically optimal transmission policies for low-power wireless sensor networks. INFOCOM 2005:2458-2469
3074 Gang Lu, Narayanan Sadagopan, Bhaskar Krishnamachari, Ashish Goel: Delay efficient sleep scheduling in wireless sensor networks. INFOCOM 2005:2470-2481
3073 Hai Liu, Peng-Jun Wan, Chih-Wei Yi, Xiaohua Jia, S. A. M. Makki, Niki Pissinou: Maximal lifetime scheduling in sensor surveillance networks. INFOCOM 2005:2482-2491
3072 Shashidhar Gandham, Milind Dawande, Ravi Prakash: Link scheduling in sensor networks: distributed edge coloring revisited. INFOCOM 2005:2492-2501
3071 Sudarshan Vasudevan, James F. Kurose, Donald F. Towsley: On neighbor discovery in wireless networks with directional antennas. INFOCOM 2005:2502-2512
3070 Mario Cagalj, Saurabh Ganeriwal, Imad Aad, Jean-Pierre Hubaux: On selfish behavior in CSMA/CA networks. INFOCOM 2005:2513-2524
3069 Xue Yang, Nitin H. Vaidya: On physical carrier sensing in wireless ad hoc networks. INFOCOM 2005:2525-2535
3068 J. D. Herdtner, Edwin K. P. Chong: Throughput-storage tradeoff in ad hoc networks. INFOCOM 2005:2536-2542
3067 Yong Liu, Honggang Zhang, Weibo Gong, Donald F. Towsley: On the interaction between overlay routing and underlay routing. INFOCOM 2005:2543-2553
3066 Junghee Han, David Watson, Farnam Jahanian: Topology aware overlay networks. INFOCOM 2005:2554-2565
3065 Nicolas Christin, John Chuang: A cost-based analysis of overlay routing geometries. INFOCOM 2005:2566-2577
3064 W. Wang, B. Li: Market-driven bandwidth allocation in selfish overlay networks. INFOCOM 2005:2578-2589
3063 Raymond Yim, Michael Rosenblum, Vahid Tarokh: Delay bounds for packetizing time-varying fluid policies with speedup and lookahead in single server systems. INFOCOM 2005:2590-2601
3062 Xunqi Yu, James W. Modestino, Xusheng Tian: The accuracy of Gilbert models in predicting packet-loss statistics for a single-multiplexer network model. INFOCOM 2005:2602-2612
3061 Robin Groenevelt, Eitan Altman: Analysis of alternating-priority queueing models with (cross) correlated switchover times. INFOCOM 2005:2613-2624
3060 Nilesh Khude, Anurag Kumar, Aditya Karnik: Time and energy complexity of distributed computation in wireless sensor networks. INFOCOM 2005:2625-2637
3059 Maggie Xiaoyan Cheng, Lu Ruan, Weili Wu: Achieving minimum coverage breach under bandwidth constraints in wireless sensor networks. INFOCOM 2005:2638-2645
3058 Emad Felemban, Chang-Gun Lee, Eylem Ekici, Ryan Boder, Serdar Vural: Probabilistic QoS guarantee in reliability and timeliness domains in wireless sensor networks. INFOCOM 2005:2646-2657
3057 Shengli Yuan, Saket Varma, Jason P. Jue: Minimum-color path problems for reliability in mesh networks. INFOCOM 2005:2658-2669
3056 Olivier Dousse, Massimo Franceschetti, Patrick Thiran: Information theoretic bounds on the throughput scaling of wireless relay networks. INFOCOM 2005:2670-2678
3055 Mung Chiang, Shengyu Zhang, Prashanth Hande: Distributed rate allocation for inelastic flows: optimization frameworks, optimality conditions, and optimal algorithms. INFOCOM 2005:2679-2690
3054 Randeep Bhatia, Murali S. Kodialam, T. V. Lakshman, Sudipta Sengupta: Capacity allocation and routing of locally restorable bandwidth guaranteed connections. INFOCOM 2005:2691-2701
3053 Weiyi Zhang, Guoliang Xue, Jian Tang, Krishnaiyan Thulasiraman: Linear time construction of redundant trees for recovery schemes enhancing QoP and QoS. INFOCOM 2005:2702-2710
3052 Pars Mutaf, Claude Castelluccia: Compact neighbor discovery: a bandwidth defense through bandwidth optimization. INFOCOM 2005:2711-2719
3051 Masoud Sharif, Babak Hassibi: A delay analysis for opportunistic transmission in fading broadcast channels. INFOCOM 2005:2720-2730
3050 Pradipta De, Ashish Raniwala, Srikant Sharma, Tzi-cker Chiueh: MiNT: a miniaturized network testbed for mobile wireless research. INFOCOM 2005:2731-2742
3049 Jean-Yves Le Boudec, Milan Vojnovic: Perfect simulation and stationarity of a class of mobility models. INFOCOM 2005:2743-2754
3048 Birsen Sirkeci Mergen, Anna Scaglione: A continuum approach to dense wireless networks with cooperation. INFOCOM 2005:2755-2763
3047 Mark Claypool, Robert E. Kinicki, A. Kumar: Traffic sensitive active queue management. INFOCOM 2005:2764-2769
3046 Kuan-Ta Chen, Polly Huang, Chun-Ying Huang, Chin-Laung Lei: The impact of network variabilities on TCP clocking schemes. INFOCOM 2005:2770-2775
3045 Cheng-Yuan Ho, Yi-Cheng Chan, Yaw-Chung Chen: An efficient mechanism of TCP-Vegas on mobile IP networks. INFOCOM 2005:2776-2780
3044 Noriaki Kamiyama: Identifying high-rate flows with less memory. INFOCOM 2005:2781-2785
3043 Tobias Harks, Tobias Poschwatta: Utility fair congestion control for real-time traffic. INFOCOM 2005:2786-2791
3042 Ryuji Wakikawa, Yasuhiro Ohara, Jun Murai: Virtual mobility control domain for enhancements of mobility protocols. INFOCOM 2005:2792-2797
3041 Michela Meo, Fabio Milan: A rational model for service rate allocation in peer-to-peer networks. INFOCOM 2005:2798-2802
3040 Tuna Güven, Richard J. La, Mark A. Shayman, Bobby Bhattacharjee: Measurement-based multipath multicast. INFOCOM 2005:2803-2808
3039 Li Lao, Jun-Hong Cui, Mario Gerla, Dario Maggiorini: A comparative study of multicast protocols: top, bottom, or in the middle?. INFOCOM 2005:2809-2814
3038 Ming Yang, Jifeng Ru, X. Rong Li, Huimin Chen, Anwer Bashi: Predicting Internet end-to-end delay: a multiple-model approach. INFOCOM 2005:2815-2819
3037 Basheer Al-Duwairi, G. Manimaran: Intentional dropping: a novel scheme for SYN flooding mitigation. INFOCOM 2005:2820-2824
3036 Daniel Stutzbach, Reza Rejaie: Capturing accurate snapshots of the Gnutella network. INFOCOM 2005:2825-2830
3035 Y. Zhang, M. Ahmed: A control theoretic analysis of XCP. INFOCOM 2005:2831-2835
3034 Weibin Zhao, Henning Schulzrinne: DotSlash: handling Web hotspots at dynamic content Web sites. INFOCOM 2005:2836-2840
3033 D.-L. Pham, Shinji Sugawara, Tetsuya Miki: A new scheduler for real-time applications in differentiated services networks. INFOCOM 2005:2841-2846
3032 Stefan Schmid, Lars Eggert, Marcus Brunner, Jürgen Quittek: Towards autonomous network domains. INFOCOM 2005:2847-2852
3031 Yannis Drougas, Vana Kalogeraki: A fair resource allocation algorithm for peer-to-peer overlays. INFOCOM 2005:2853-2858
3030 Zifei Zhong, Srihari Nelakuditi, Yinzhe Yu, Sanghwan Lee, Junling Wang, Chen-Nee Chuah: Failure inferencing based fast rerouting for handling transient link and node failures. INFOCOM 2005:2859-2863
3029 Avadora Dumitrescu: Efficient distributed admission control for core-stateless networks. INFOCOM 2005:2864-2869
3028 A. Kapoor, Aaron Falk, Theodore Faber, Y. Pryadkin: Achieving faster access to satellite link bandwidth. INFOCOM 2005:2870-2875
3027 Rodrigo Fonseca, Puneet Sharma, Sujata Banerjee, Sung-Ju Lee, Sujoy Basu: Distributed querying of Internet distance information. INFOCOM 2005:2876-2881
3026 Lin Du, John Bigham, Laurie G. Cuthbert: A Bubble Oscillation Algorithm for Distributed Geographic Load Balancing in Mobile Networks. INFOCOM 2004
3025 Javier Gomez, Andrew T. Campbell: A Case for Variable-Range Transmission Power Control in Wireless Multihop Networks. INFOCOM 2004
3024 Marc Bechler, Hans-Joachim Hof, Daniel Kraft, Frank Pählke, Lars C. Wolf: A Cluster-Based Security Architecture for Ad Hoc Networks. INFOCOM 2004
3023 Sami Ayyorgun, Rene L. Cruz: A Composable Service Model With Loss and A Scheduling Algorithm. INFOCOM 2004
3022 Jinhua Zhu, Chunming Qiao, Xin Wang: A Comprehensive Minimum Energy Routing Scheme for Wireless Ad hoc Networks. INFOCOM 2004
3021 Jie Li, Yi Pan, Yang Xiao: A Dynamic HLR Location Management Scheme for PCS Networks. INFOCOM 2004
3020 Karthikeyan Sundaresan, Raghupathy Sivakumar, Mary Ann Ingram: A Fair Medium Access Control Protocol for Ad-hoc Networks with MIMO Links. INFOCOM 2004
3019 Ulas C. Kozat, Iordanis Koutsopoulos, Leandros Tassiulas: A Framework for Cross-layer Design of Energy-efficient Communication with QoS Provisioning in Multi-hop Wireless Networks. INFOCOM 2004
3018 Andrea Bianco, Paolo Giaccone, Emilio Leonardi, Fabio Neri: A Framework for Differential Frame-Based Matching Algorithms in Input-Queued Switches. INFOCOM 2004
3017 Reuven Cohen, Liran Katzir: A Generic Quantitative Approach to the Scheduling of Synchronous Packets in a Shared Medium Wireless Access Network. INFOCOM 2004
3016 Wenliang Du, Jing Deng, Yunghsiang S. Han, Shigang Chen, Pramod K. Varshney: A Key Management Scheme for Wireless Sensor Networks Using Deployment Knowledge. INFOCOM 2004
3015 Péter Benkö, Gábor Malicskó, Andras Veres: A Large-scale, Passive Analysis of End-to-End TCP Performance over GPRS. INFOCOM 2004
3014 Isaac Keslassy, Shang-Tse Chuang, Nick McKeown: A Load-Balanced Switch with an Arbitrary Number of Linecards. INFOCOM 2004
3013 Teng Li, Anthony E. Ekpenyong, Yih-Fang Huang: A Location System Using Asynchronous Distributed Sensors. INFOCOM 2004
3012 Anoop Kumar Krishna, Tanu Malhotra: A Multi-Signaling Protocol Architecture for Voice over IP Terminal. INFOCOM 2004
3011 Ai-Chun Pang, Yi-Bing Lin, Hsien-Ming Tsai, Prathima Agrawal: A New Approach for Serving Radio Network Controller Relocation in UMTS All-IP Network. INFOCOM 2004
3010 Fei Yu, Vincent W. S. Wong, Victor C. M. Leung: A New QoS Provisioning Method for Adaptive Multimedia in Cellular Wireless Networks. INFOCOM 2004
3009 Thomas Karagiannis, Mart Molle, Michalis Faloutsos, Andre Broido: A Nonstationary Poisson View of Internet Traffic. INFOCOM 2004
3008 Xiaowei Ding, Kaushik Roy: A Novel Bitstream Level Joint Channel Error Concealment Scheme for Realtime Video over Wireless Networks. INFOCOM 2004
3007 Guangbin Fan, Jingyuan Zhang: A Novel Geometric Diagram and Its Applications in Wireless Networks. INFOCOM 2004
3006 Hao Zhu, Guohong Cao: A Power-Aware and QoS-Aware Service Model on Wireless Networks. INFOCOM 2004
3005 Mengkun Yang, Zongming Fei: A Proactive Approach to Reconstructing Overlay Multicast Trees. INFOCOM 2004
3004 Ming-Syan Chen, Jiun-Long Huang: A QoS-Aware Transcoding Proxy Using On-demand Data Broadcasting. INFOCOM 2004
3003 Antonio Carzaniga, Matthew J. Rutherford, Alexander L. Wolf: A Routing Scheme for Content-Based Networking. INFOCOM 2004
3002 Florence Clévenot, Philippe Nain: A Simple Model for the Analysis of SQUIRREL. INFOCOM 2004
3001 Marina Thottan, Vahab S. Mirrokni, Hüseyin Uzunalioglu, Sanjoy Paul: A Simple Polynomial Time Framework For Reduced Path Decomposition in Multi-Path Routing. INFOCOM 2004
3000 Murali S. Kodialam, T. V. Lakshman, Sudipta Sengupta: A Simple Traffic Independent Scheme for Enabling Restoration Oblivious Routing of Resilient Connections. INFOCOM 2004
2999 P. Krishnan, A. S. Krishnakumar, Wen-Hua Ju, Colin Mallows, Sachin Ganu: A System for LEASE: Location Estimation Assisted by Stationary Emitters for Indoor RF Wireless Networks. INFOCOM 2004
2998 Sameh Gobriel, Rami G. Melhem, Daniel Mossé: A Unified Interference/Collision Analysis for Power-Aware Adhoc Networks. INFOCOM 2004
2997 Krishna Chintalapudi, Ramesh Govindan, Gaurav Sukhatme, Amit Dhariwal: Ad-Hoc Localization Using Ranging and Sectoring. INFOCOM 2004
2996 Balaji Krithikaivasan, Kaushik Deka, Deep Medhi: Adaptive Bandwidth Provisioning Envelope based on Discrete Temporal Network Measurements. INFOCOM 2004
2995 Xin Wang, Ramachandran Ramjee, Harish Viswanathan: Adaptive and Predictive Downlink Resource Management in Next Generation CDMA Networks. INFOCOM 2004
2994 David E. Ott, Travis Sparks, Ketan Mayer-Patel: Aggregate Congestion Control for Distributed Multimedia Applications. INFOCOM 2004
2993 Zohar Naor: An Efficient Short Messages Transmission in Cellular Networks. INFOCOM 2004
2992 Mei Yang, Yan Huang, Jaime Bae Kim, Meejeong Lee, Tatsuya Suda, Daisuke Matsubara: An End-to-end QoS Framework with On-demand Bandwidth Reconfiguration. INFOCOM 2004
2991 Abhishek Roy, Archan Misra, Sajal K. Das: An Information-Theoretic Framework for Optimal Location Tracking in Multi-System 4G Wireless Networks. INFOCOM 2004
2990 Xiaojun Lin, Ness B. Shroff: An Optimization Based Approach for QoS Routing in High-Bandwidth Networks. INFOCOM 2004
2989 Kai Zheng, Chengchen Hu, Hongbin Lu, Bin Liu: An Ultra High Throughput and Power Efficient TCAM-Based IP Lookup Engine. INFOCOM 2004
2988 Eitan Altman, Chadi Barakat, Víctor Manuel Ramos Ramos: Analysis of AIMD protocols over paths with variable delay. INFOCOM 2004
2987 Baek-Young Choi, Sue B. Moon, Zhi-Li Zhang, Konstantina Papagiannaki, Christophe Diot: Analysis of Point-To-Point Packet Delay In an Operational Network. INFOCOM 2004
2986 Xiaowen Chu, Jiangchuan Liu, Zhensheng Zhang: Analysis of Sparse-Partial Wavelength Conversion in Wavelength-Routed WDM Networks. INFOCOM 2004
2985 Francisco Chinchilla, Mark Lindsey, Maria Papadopouli: Analysis of wireless information locality and association patterns in a campus. INFOCOM 2004
2984 Georgos Siganos, Michalis Faloutsos: Analyzing BGP Policies: Methodology and Tool. INFOCOM 2004
2983 Zhiyuan Hu, Yaowei Liu, Xiao Hu, Jianhua Li: Anonymous Micropayments Authentication(AMA) in Mobile Data Network. INFOCOM 2004
2982 Francis Chang, Kang Li, Wu-chang Feng: Approximate Caches for Packet Classification. INFOCOM 2004
2981 Eli Brosh, Yuval Shavitt: Approximation and Heuristic Algorithms for Minimum-Delay Application Layer Multicast Trees. INFOCOM 2004
2980 Marc Lelarge, Zhen Liu, Cathy H. Xia: Asymptotic Tail Distribution of End-to-End Delay in Networks of Queues with Self-Similar Cross Traffic. INFOCOM 2004
2979 Zvi Rosberg: Asymptotically Optimal Power Control in CDMA with Random Spreading and MMSE Multiuser Detector. INFOCOM 2004
2978 Sanjay Shakkottai: Asymptotics of Query Strategies over a Sensor Network. INFOCOM 2004
2977 Mung Chiang: Balancing Supply and Demand of Bandwidth in Wireless Cellular Networks: Utility Maximization over Powers and Rates. INFOCOM 2004
2976 Lisong Xu, Khaled Harfoush, Injong Rhee: Binary Increase Congestion Control (BIC) for Fast Long-Distance Networks. INFOCOM 2004
2975 Alon Efrat, Arnon Amir: Buddy tracking - efficient proximity detection among mobile friends. INFOCOM 2004
2974 Arjunan Rajeswaran, Rohit Negi: Capacity of power constrained ad-hoc networks. INFOCOM 2004
2973 David Schwab, Rick Bunt: Characterising the Use of a Campus Wireless Network. INFOCOM 2004
2972 Athina Markopoulou, Gianluca Iannaccone, Supratik Bhattacharyya, Chen-Nee Chuah, Christophe Diot: Characterization of Failures in an IP Backbone Network. INFOCOM 2004
2971 Byung-Gon Chun, Rodrigo Fonseca, Ion Stoica, John Kubiatowicz: Characterizing Selfishly Constructed Overlay Routing Networks. INFOCOM 2004
2970 Lih-feng Tsaur, Daniel C. Lee: Closed-loop architecture and protocols for rapid dynamic spreading gain adaptation in CDMA networks. INFOCOM 2004
2969 Dmitri V. Krioukov, Kevin R. Fall, Xiaowei Yang: Compact Routing on Internet-like Graphs. INFOCOM 2004
2968 Seung-Taek Park, David M. Pennock, C. Lee Giles: Comparing static and dynamic measurements and models of the Internet's AS topology. INFOCOM 2004
2967 Sarut Vanichpun, Armand M. Makowski: Comparing strength of locality of reference -- Popularity, majorization, and some folk theorems. INFOCOM 2004
2966 Bokyung Wang, Suresh Singh: Computational Energy Cost of TCP. INFOCOM 2004
2965 Olivier Dousse, Patrick Thiran: Connectivity vs Capacity in Dense Ad Hoc Networks. INFOCOM 2004
2964 Tian Bu, Mun Choon Chan, Ramachandran Ramjee: Connectivity, Performance, and Resiliency of IP-Based CDMA Radio Access Networks. INFOCOM 2004
2963 Arunesh Mishra, Minho Shin, William A. Arbaugh: Context Caching using Neighbor Graphs for Fast Handoffs in a Wireless Network. INFOCOM 2004
2962 Wei Liu, Yuguang Fang: Courtesy Piggybacking: Supporting Differentiated Services in Multihop Mobile Ad Hoc Networks. INFOCOM 2004
2961 Mihail L. Sichitiu: Cross-Layer Scheduling for Power Efficiency in Wireless Sensor Networks. INFOCOM 2004
2960 Eitan Altman, Tania Jiménez: DPS queues with stationary ergodic service times and the performance of TCP in overload. INFOCOM 2004
2959 Kartik Gopalan, Tzi-cker Chiueh, Yow-Jian Lin: Delay Budget Partitioning to Maximize Network Resource Usage Efficiency. INFOCOM 2004
2958 Mohammad Ali Khojastepour, Ashutosh Sabharwal: Delay-constrained Scheduling: Power Efficiency, Filter Design, and Bounds. INFOCOM 2004
2957 Carlos de M. Cordeiro, Sachin Abhyankar, Dharma P. Agrawal: Design and Implementation of QoS-driven Dynamic Slot Assignment and Piconet Partitioning Algorithms over Bluetooth WPANs. INFOCOM 2004
2956 Jiannong Cao, Liang Zhang, Sajal K. Das, Henry C. B. Chan: Design and Performance Evaluation of an Improved Mobile IP Protocol. INFOCOM 2004
2955 Antonio Nucci, Rene L. Cruz, Nina Taft, Christophe Diot: Design of IGP Link Weights for Estimation of Traffic Matrices. INFOCOM 2004
2954 Songqing Chen, Bo Shen, Susie Wee, Xiaodong Zhang: Designs of High Quality Streaming Proxy Systems. INFOCOM 2004
2953 Nathan Tuck, Timothy Sherwood, Brad Calder, George Varghese: Deterministic Memory-Efficient String Matching Algorithms for Intrusion Detection. INFOCOM 2004
2952 Richard W. Thommes, Mark Coates: Deterministic Packet Marking for Congestion Price Estimation. INFOCOM 2004
2951 Konstantin Avrachenkov, Urtzi Ayesta, Patrick Brown, Eeva Nyberg: Differentiation Between Short and Long TCP Flows: Predictability of the Response Time. INFOCOM 2004
2950 Ehab S. Al-Shaer, Hazem H. Hamed: Discovery of Policy Anomalies in Distributed Firewalls. INFOCOM 2004
2949 Ossama Younis, Sonia Fahmy: Distributed Clustering in Ad-hoc Sensor Networks: A Hybrid, Energy-Efficient Approach. INFOCOM 2004
2948 Aditya Karnik, Anurag Kumar: Distributed Optimal Self-Organisation in a Class of Wireless Sensor Networks. INFOCOM 2004
2947 Sarangapani Jagannathan, Qingyang Shang: Distributed Power Control For Cellular Networks In the Presence of Rayleigh Fading Channel. INFOCOM 2004
2946 Aldar C.-F. Chan: Distributed Symmetric Key Management for Mobile Ad hoc Networks. INFOCOM 2004
2945 Wei Lou, Jie Wu: Double-Covered Broadcast (DCB): A Simple Reliable Broadcast Algorithm in MANETs. INFOCOM 2004
2944 Bongyong Song, Rene L. Cruz, Bhaskar Rao: Downlink Optimization of Indoor Wireless Networks Using Multiple Antenna Systems. INFOCOM 2004
2943 Jörg Ott, Dirk Kutscher: Drive-thru Internet: IEEE 80211b for Automobile Users. INFOCOM 2004
2942 Wee-Seng Soh, Hyong S. Kim: Dynamic Bandwidth Reservation in Cellular Networks Using Road Topology Based Mobility Predictions. INFOCOM 2004
2941 Yinian Mao, Yan Sun, Min Wu, K. J. Ray Liu: Dynamic Join-Exit Amortization and Scheduling for Time-Efficient Group Key Agreement. INFOCOM 2004
2940 Sunggy Koo, Gokhan Sahin, Suresh Subramaniam: Dynamic LSP Provisioning in Overlay, Augmented, and Peer Architectures for IP/MPLS over WDM Networks. INFOCOM 2004
2939 Jinsheng Sun, Moshe Zukerman, King-Tim Ko, Guanrong Chen, Sammy Chan: Effect of Large Buffers on TCP Queueing Behavior. INFOCOM 2004
2938 Lisa Amini, Anees Shaikh, Henning Schulzrinne: Effective Peering for Multi-provider Content Delivery Services. INFOCOM 2004
2937 Ariel Orda, Alexander Sprintson: Efficient Algorithms for Computing Disjoint QoS Paths. INFOCOM 2004
2936 Ronghua Zhang, Tarek F. Abdelzaher, John A. Stankovic: Efficient TCP Connection Failover in Web Server Clusters. INFOCOM 2004
2935 Fengyun Cao, Jaswinder Pal Singh: Efficient event routing in content-based publish/subscribe service network. INFOCOM 2004
2934 Manish Agarwal, Joon Ho Cho, Lixin Gao, Jie Wu: Energy Efficient Broadcast in Wireless Ad hoc Networks with Hitch-hiking. INFOCOM 2004
2933 Yang Yu, Bhaskar Krishnamachari, Viktor K. Prasanna: Energy-Latency Tradeoffs for Data Gathering in Wireless Sensor Networks. INFOCOM 2004
2932 Abtin Keshavarzian, Elif Uysal-Biyikoglu: Energy-efficient Link Assessment in Wireless Sensor Networks. INFOCOM 2004
2931 Zohar Naor, Amotz Bar-Noy: Establishing a Mobile Conference Call Under Delay and Bandwidth Constraints. INFOCOM 2004
2930 Libo Song, David Kotz, Ravi Jain, Xiaoning He: Evaluating location predictors with extensive Wi-Fi mobility data. INFOCOM 2004
2929 Fanglu Guo, Jiawu Chen, Wei Li, Tzi-cker Chiueh: Experiences in Building A Multihoming Load Balancing System. INFOCOM 2004
2928 Cheng Jin, David X. Wei, Steven H. Low: FAST TCP: Motivation, Architecture, Algorithms, and Performance. INFOCOM 2004
2927 Zuyuan Fang, Brahim Bensaou: Fair Bandwidth Sharing Algorithms based on Game Theory Frameworks for Wireless Ad-hoc Networks. INFOCOM 2004
2926 Qun Li, Daniela Rus: Global Clock Synchronization in Sensor Networks. INFOCOM 2004
2925 Moustafa Youssef, Ashok K. Agrawala: Handling Samples Correlation in the Horus System. INFOCOM 2004
2924 Guy Weichenberg, Vincent W. S. Chan, Muriel Médard: High-Reliability Architectures for Networks under Stress. INFOCOM 2004
2923 Ioannis C. Avramopoulos, Hisashi Kobayashi, Randy Wang, Arvind Krishnamurthy: Highly Secure and Efficient Routing. INFOCOM 2004
2922 Yung Yi, Sanjay Shakkottai: Hop-by-hop Congestion Control over a Wireless Multi-hop Network. INFOCOM 2004
2921 Thomas Bonald, Sem C. Borst, Alexandre Proutiére: How Mobility Impacts the Flow-Level Performance of Wireless Data Systems. INFOCOM 2004
2920 Hongbo Zhou, Matt W. Mutka, Lionel M. Ni: IP Address Handoff in the MANET. INFOCOM 2004
2919 Haining Wang, Abhijit Bose, Mohamed A. El-Gendy, Kang G. Shin: IP Easy-pass: Edge Resource Access Control. INFOCOM 2004
2918 Konstantina Papagiannaki, Nina Taft, Christophe Diot: Impact of Flow Dynamics on Traffic Engineering Design Principles. INFOCOM 2004
2917 Laurent Mathy, Nick Blundell, Vincent Roca, Ayman El-Sayed: Impact of Simple Cheating in Application-Level Multicast. INFOCOM 2004
2916 Zhi Li, Prasant Mohapatra: Impact of Topology On Overlay Routing Service. INFOCOM 2004
2915 Yi Shang, Wheeler Ruml: Improved MDS-Based Localization. INFOCOM 2004
2914 Mun Choon Chan, Ramachandran Ramjee: Improving TCP/IP Performance over Third Generation Wireless Networks. INFOCOM 2004
2913 Thomas J. Hacker, Brian D. Noble, Brian D. Athey: Improving Throughput and Maintaining Fairness using Parallel TCP. INFOCOM 2004
2912 Sharad Jaiswal, Gianluca Iannaccone, Christophe Diot, Donald F. Towsley: Inferring TCP Connection Characteristics Through Passive Measurements. INFOCOM 2004
2911 Ao Tang, Jiantao Wang, Steven H. Low: Is Fair Allocation Always Inefficient. INFOCOM 2004
2910 Chonggang Wang, Bin Li, Yiwei Thomas Hou, Kazem Sohraby, Yu Lin: LRED: A Robust Active Queue Management Scheme Based on Packet Loss Ratio. INFOCOM 2004
2909 Tricha Anjali, Caterina M. Scoglio, Ian F. Akyildiz: LSP and Lambda-SP Setup in GMPLS Networks. INFOCOM 2004
2908 Stavros Toumpis, Andrea J. Goldsmith: Large Wireless Networks under Fading, Mobility, and Delay Constraints. INFOCOM 2004
2907 Kin Fung Simon Wong, S.-H. Gary Chan, Wan Ching William Wong, Qian Zhang, Wenwu Zhu, Ya-Qin Zhang: Lateral Error Recovery for Application-Level Multicast. INFOCOM 2004
2906 Yezekael Hayel, David Ros, Bruno Tuffin: Less-than-Best-Effort Services: Pricing and Scheduling. INFOCOM 2004
2905 Li Zhang, Jie Gao: Load Balanced Short Path Routing in Wireless Networks. INFOCOM 2004
2904 Yashar Ganjali, Abtin Keshavarzian: Load Balancing in Ad Hoc Networks: Single-path Routing vs Multi-path Routing. INFOCOM 2004
2903 Brighten Godfrey, Karthik Lakshminarayanan, Sonesh Surana, Richard M. Karp, Ion Stoica: Load Balancing in Dynamic Structured P2P Systems. INFOCOM 2004
2902 Kevin Ross, Nicholas Bambos: Local Search Scheduling Algorithms for Maximal Throughput in Packet Switches. INFOCOM 2004
2901 Xiang-Yang Li, Yu Wang, Peng-Jun Wan, Ophir Frieder: Localized Low Weight Graph and Its Applications in Wireless Ad Hoc Networks. INFOCOM 2004
2900 Qing Fang, Jie Gao, Leonidas J. Guibas: Locating and Bypassing Routing Holes in Sensor Networks. INFOCOM 2004
2899 Yunhao Liu, Xiaomei Liu, Li Xiao, Lionel M. Ni, Xiaodong Zhang: Location-Aware Topology Matching in P2P Systems. INFOCOM 2004
2898 Cheng-Shang Chang, Duan-Shin Lee, Ying-Ju Shih: Mailbox Switch: A Scalable Two-stage Switch Architecture for Conflict Resolution of Ordered Packets. INFOCOM 2004
2897 Hyoung-Il Lee, Seung-Woo Seo: Matching Output Queueing with a Multiple Input/Output-Queued Switch. INFOCOM 2004
2896 Narayanan Sadagopan, Bhaskar Krishnamachari: Maximizing Data Extraction in Energy-Limited Sensor Networks. INFOCOM 2004
2895 Jikai Li, Chunming Qiao, Jinhui Xu, Dahai Xu: Maximizing Throughput for Optical Burst Switching Networks. INFOCOM 2004
2894 Arvind Sankar, Zhen Liu: Maximum Lifetime Routing in Wireless Ad-hoc Networks. INFOCOM 2004
2893 Tuna Güven, Christopher Kommareddy, Richard J. La, Mark A. Shayman, Samrat Bhattacharjee: Measurement Based Optimal Multi-path Routing. INFOCOM 2004
2892 Yigal Bejerano, Randeep Bhatia: MiFi: A Framework for Fairness and QoS Assurance in Current IEEE 80211 Networks with Multiple Access Points. INFOCOM 2004
2891 Jie Wu, Fei Dai: Mobility Management and Its Applications in Efficient Broadcasting in Mobile Ad Hoc Networks. INFOCOM 2004
2890 Guolong Lin, Guevara Noubir, Rajmohan Rajaraman: Mobility Models for Ad hoc Network Simulation. INFOCOM 2004
2889 Andrew Zalesky, Hai Le Vu, Zvi Rosberg, Eric W. M. Wong, Moshe Zukerman: Modeling and Performance Evaluation of Optical Burst Switched Networks with Deflection Routing and Wavelength Reservation. INFOCOM 2004
2888 Kamol Kaemarungsi, Prashant Krishnamurthy: Modeling of Indoor Positioning Systems Based on Location Fingerprinting. INFOCOM 2004
2887 Carla-Fabiana Chiasserini, Michele Garetto: Modeling the Performance of Wireless Sensor Networks. INFOCOM 2004
2886 Guiling Wang, Guohong Cao, Thomas F. La Porta: Movement-Assisted Sensor Deployment. INFOCOM 2004
2885 Patrick Maillé, Bruno Tuffin: Multi-Bid Auctions for Bandwidth Allocation in Communication Networks. INFOCOM 2004
2884 Xiaojun Cao, Vishal Anand, Chunming Qiao: Multi-Layer versus Single-Layer Optical Cross-connect Architectures for Waveband Switching. INFOCOM 2004
2883 Ranveer Chandra, Victor Bahl, Pradeep Bahl: MultiNet: Connecting to Multiple IEEE 80211 Networks Using a Single Wireless Card. INFOCOM 2004
2882 Yufeng Xin, George N. Rouskas: Multicast Routing Under Optical Layer Constraints. INFOCOM 2004
2881 Xiao-Dong Hu, Xiaohua Jia, Tianping Shuai, Mu-Hong Zhang: Multicast Routing and Wavelength Assignment in WDM Networks with Limited Drop-offs. INFOCOM 2004
2880 Michael Rabbat, Robert D. Nowak, Mark Coates: Multiple Source, Multiple Destination Network Tomography. INFOCOM 2004
2879 Pankaj Risbood, Swarup Acharya, Bhawna Gupta, Anurag Srivastava: MöbiPack: Optimal Hitless SONET Defragmentation in Near-Optimal Cost. INFOCOM 2004
2878 Hwangnam Kim, Jennifer C. Hou: Network Calculus Based Simulation for TCP Congestion Control: Theorems, Implementation and Evaluation. INFOCOM 2004
2877 Li Cong, Weihua Zhuang: Non-Line-of-Sight Error Mitigation in Mobile Location. INFOCOM 2004
2876 Jangwon Lee, Ravi Mazumdar, Ness B. Shroff: Non-convexity Issues for Internet Rate Control with Multi-class Services: Stability and Optimality. INFOCOM 2004
2875 Hung Q. Ngo, Dazhen Pan, Chunming Qiao: Nonblocking WDM Switches Based on Arrayed Waveguide Grating and Limited Wavelength Conversion. INFOCOM 2004
2874 Reid Andersen, Fan R. K. Chung, Arunabha Sen, Guoliang Xue: On Disjoint Path Pairs with Wavelength Continuity Constraint in WDM Networks. INFOCOM 2004
2873 Hao Zhu, Guohong Cao: On Improving Service Differentiation under Bursty Data Traffic in Wireless Networks. INFOCOM 2004
2872 Yu Gu, Yong Liu, Donald F. Towsley: On Integrating Fluid Models with Packet Simulation. INFOCOM 2004
2871 Razvan Cristescu, Baltasar Beferull-Lozano, Martin Vetterli: On Network Correlated Data Gathering. INFOCOM 2004
2870 Randeep Bhatia, Murali S. Kodialam: On Power Efficient Communication over Multi-hop Wireless Networks: Joint Routing, Scheduling and Power Control. INFOCOM 2004
2869 Xueyan Tang, Jianliang Xu: On Replica Placement for QoS-Aware Content Distribution. INFOCOM 2004
2868 Dahai Xu, Yang Chen, Yizhi Xiong, Chunming Qiao, Xin He: On finding disjoint paths in single and dual link cost networks. INFOCOM 2004
2867 Randall A. Berry, Eytan Modiano: On the Benefit of Tunability in Reducing Electronic Port Counts in WDM/TDM Networks. INFOCOM 2004
2866 Reuven Cohen, Gabi Nakibly: On the Computational Complexity and Effectiveness of N-hub Shortest-Path Routing. INFOCOM 2004
2865 Qi Zhao, Jun Xu: On the Computational Complexity of Maintaining GPS Clock in Packet Scheduling. INFOCOM 2004
2864 Yuval Shavitt, Tomer Tankel: On the Curvature of the Internet and its usage for Overlay Construction and Distance Estimation. INFOCOM 2004
2863 Ye Xia: On the Large Deviation of Resequencing Queue Size: 2-M/M/1 Case. INFOCOM 2004
2862 Yong Xiong, Jyh-Charn Liu, Kang G. Shin, Wei Zhao: On the Modeling and Optimization of Discontinuous Network Congestion Control Systems. INFOCOM 2004
2861 Navid Ehsan, Mingyan Liu: On the optimality of an index policy for bandwidth allocation with delayed state observation and differentiated services. INFOCOM 2004
2860 Praveen Kumar Gopala, Hesham El Gamal: On the scaling laws of Multi-modal Wireless Sensor Networks. INFOCOM 2004
2859 Shu Tao, Roch Guérin: On-line Estimation of Internet Path Performance: An Application Perspective. INFOCOM 2004
2858 Jangwon Lee, Ravi Mazumdar, Ness B. Shroff: Opportunistic Power Scheduling for Multi-server Wireless Systems with Minimum Performance Constraints. INFOCOM 2004
2857 Xiangping Qin, Randall A. Berry: Opportunistic Splitting Algorithms For Wireless Networks. INFOCOM 2004
2856 Coskun Cetinkaya, Edward W. Knightly: Opportunistic Traffic Scheduling Over Multiple Network Paths. INFOCOM 2004
2855 Thomas Erlebach, Maurice Rüegg: Optimal Bandwidth Reservation in Hose-Model VPNs with Multi-Path Routing. INFOCOM 2004
2854 Tommaso Melodia, Dario Pompili, Ian F. Akyildiz: Optimal Local Topology Knowledge for Energy Efficient Geographical Routing in Sensor Networks. INFOCOM 2004
2853 Holger Boche, Slawomir Stanczak: Optimal QoS Tradeoff and Power Control in CDMA Systems. INFOCOM 2004
2852 Tianmin Ren, Richard J. La, Leandros Tassiulas: Optimal transmission scheduling with base station antenna array in cellular networks. INFOCOM 2004
2851 Mortada Mehyar, Demetri Spanos, Steven H. Low: Optimization Flow Control with Estimation Error. INFOCOM 2004
2850 De-Nian Yang, Wanjiun Liao: Optimizing State Allocation for Multicast Communications. INFOCOM 2004
2849 Wensheng Zhang, Guohong Cao: Optimizing Tree Reconfiguration for Mobile Target Tracking in Sensor Networks. INFOCOM 2004
2848 Anthony Young, Jiang Chen, Zheng Ma, Arvind Krishnamurthy, Larry L. Peterson, Randy Wang: Overlay Mesh Construction Using Interleaved Spanning Trees. INFOCOM 2004
2847 Anurag Srivastava, Swarup Acharya, Pankaj Risbood, Bhawna Gupta: PESO: Low Overhead Protection for Ethernet over SONET Transport. INFOCOM 2004
2846 Haim Zlatokrilov, Hanoch Levy: Packet Dispersion and the Quality of Voice over IP Applications in IP networks. INFOCOM 2004
2845 Yoohwan Kim, Wing Cheong Lau, Mooi Choo Chuah, H. Jonathan Chao: PacketScore: Statistical-based overload control against Distributed Denial-of-Service Attacks. INFOCOM 2004
2844 David Lee, Lavy Libman, Ariel Orda: Path Protection and Blocking Probability Minimization in Optical Networks. INFOCOM 2004
2843 Honghui Lu: Peer-to-Peer Support for Massively Multiplayer Games. INFOCOM 2004
2842 Rita H. Wouhaybi, Andrew T. Campbell: Phenix: Supporting Resilient Low-Diameter Peer-to-Peer Topologies. INFOCOM 2004
2841 Andrej Bogdanov, Elitza N. Maneva, Samantha Riesenfeld: Power-aware base station positioning for sensor networks. INFOCOM 2004
2840 Mansoor Alicherry, Randeep Bhatia: Pre-Provisioning Networks to Support Fast Restoration with Minimum Over-Build. INFOCOM 2004
2839 Sanghwan Lee, Yinzhe Yu, Srihari Nelakuditi, Zhi-Li Zhang, Chen-Nee Chuah: Proactive vs Reactive Approaches to Failure Resilient Routing. INFOCOM 2004
2838 Eun-Chan Park, Chong-Ho Choi: Proportional Bandwidth Allocation in DiffServ Networks. INFOCOM 2004
2837 Yang Xiao, Haizhon Li, Sunghyun Choi: Protection and Guarantee for Voice and Video Traffic in IEEE 80211e Wireless LANs. INFOCOM 2004
2836 Jiangchuan Liu, Xiaowen Chu, Jianliang Xu: Proxy Cache Management for Fine-Grained Scalable Video Streaming. INFOCOM 2004
2835 Xiaohua Jia, Deying Li, Ding-Zhu Du: QoS Topology Control in Ad Hoc Wireless Networks. INFOCOM 2004
2834 Omesh Tickoo, Biplab Sikdar: Queueing Analysis and Delay Mitigation in IEEE 80211 Random Access MAC based Wireless Networks. INFOCOM 2004
2833 Gu-In Kwon, John W. Byers: ROMA: Reliable Overlay Multicast with Loosely Coupled TCP Connections. INFOCOM 2004
2832 Christos Gkantsidis, Milena Mihail, Amin Saberi: Random Walks in Peer-to-Peer Networks. INFOCOM 2004
2831 Amit Prakash, Adnan Aziz, Vijaya Ramachandran: Randomized Parallel Schedulers for Switch-Memory-Switch Routers: Analysis and Numerical Studies. INFOCOM 2004
2830 Minghua Chen, Avideh Zakhor: Rate Control for Streaming Video over Wireless. INFOCOM 2004
2829 Hari Balakrishnan, Srinivas Devadas, Douglas Ehlert, Arvind: Rate Guarantees and Overload Protection in Input-Queued Switches. INFOCOM 2004
2828 Bozidar Radunovic, Jean-Yves Le Boudec: Rate Performance Objectives of Multi-hop Wireless Networks. INFOCOM 2004
2827 Can Emre Koksal, Robert G. Gallager, Charles E. Rohrs: Rate Quantization and Service Quality over Single Crossbar Switches. INFOCOM 2004
2826 Radia J. Perlman: Rbridges: Transparent Routing. INFOCOM 2004
2825 Li Xiao, Klara Nahrstedt: Reliability Models and Evaluation of Internal BGP Networks. INFOCOM 2004
2824 Qingfeng Huang, Chenyang Lu, Gruia-Catalin Roman: Reliable Mobicast via Face-Aware Routing. INFOCOM 2004
2823 Vasilios A. Siris, Costas Courcoubetis: Resource control for loss-sensitive traffic in CDMA networks. INFOCOM 2004
2822 Tolga Eren, David Kiyoshi Goldenberg, Walter Whiteley, Yang Richard Yang, A. Stephen Morse, Brian D. O. Anderson, Peter N. Belhumeur: Rigidity, Computation, and Randomization in Network Localization. INFOCOM 2004
2821 Youngjune Gwon, Ravi Jain, Toshiro Kawahara: Robust Indoor Location Estimation of Stationary and Mobile Users. INFOCOM 2004
2820 Minkyu Kim, Muriel Médard: Robustness in Large-Scale Random Networks. INFOCOM 2004
2819 Murali S. Kodialam, T. V. Lakshman, Shantidev Mohanty: Runs bAsed Traffic Estimator (RATE): A Simple, Memory Efficient Scheme for Per-Flow Rate Estimation. INFOCOM 2004
2818 Wenjing Lou, Wei Liu, Yuguang Fang: SPREAD: Enhancing Data Confidentiality in Mobile Ad Hoc Networks. INFOCOM 2004
2817 François Baccelli, Augustin Chaintreau, Zhen Liu, Anton Riabov, Sambit Sahu: Scalability of Reliable Group Communication Using Overlays. INFOCOM 2004
2816 Jakob Eriksson, Michalis Faloutsos, Srikanth V. Krishnamurthy: Scalable Ad Hoc Routing: The Case for Dynamic Addressing. INFOCOM 2004
2815 Francesco De Pellegrini, David Starobinski, Mark G. Karpovsky, Lev B. Levitin: Scalable Cycle-Breaking Algorithms for Gigabit Ethernet Backbones. INFOCOM 2004
2814 Yan Sun, K. J. Ray Liu: Scalable Hierarchical Access Control in Secure Group Communications. INFOCOM 2004
2813 Chao Gui, Prasant Mohapatra: Scalable Multicasting in Mobile Ad Hoc Networks. INFOCOM 2004
2812 Yanping Zhao, Derek L. Eager, Mary K. Vernon: Scalable On-Demand Streaming of Non-Linear Media. INFOCOM 2004
2811 Zhuoqing Morley Mao, David Johnson, Jennifer Rexford, Jia Wang, Randy H. Katz: Scalable and Accurate Identification of AS-level Forwarding Paths. INFOCOM 2004
2810 Meng Guo, Mostafa H. Ammar: Scalable live video streaming to cooperative clients using time shifting and video patching. INFOCOM 2004
2809 Zhenghao Zhang, Yuanyuan Yang: Scheduling in Buffered WDM Packet Switching Networks with Arbitrary Wavelength Conversion Capability. INFOCOM 2004
2808 Matthew Andrews, Lisa Zhang: Scheduling over non-stationary wireless channels with finite rate sets. INFOCOM 2004
2807 Yan Sun, K. J. Ray Liu: Securing Dynamic Membership Information in Multicast Communications. INFOCOM 2004
2806 Xiang Ji: Sensor Positioning in Wireless Ad-hoc Sensor Networks with Multidimensional Scaling. INFOCOM 2004
2805 Xiangying Yang, Gustavo de Veciana: Service Capacity of Peer to Peer Networks. INFOCOM 2004
2804 Marco Bottigliengo, Claudio Casetti, Carla-Fabiana Chiasserini, Michela Meo: Short-term Fairness for TCP Flows in 80211b WLANs. INFOCOM 2004
2803 Rob Sherwood, Ryan Braud: Slurpie: A Cooperative Bulk Data Transfer Protocol. INFOCOM 2004
2802 Adriana Iamnitchi, Matei Ripeanu, Ian T. Foster: Small-World File-Sharing Communities. INFOCOM 2004
2801 Abhishek Kumar, Jun Xu, Jia Wang, Oliver Spatscheck, Li Li: Space-Code Bloom Filter for Efficient Per-Flow Traffic Measurement. INFOCOM 2004
2800 Seema Bandyopadhyay, Edward J. Coyle: Spatio-Temporal Sampling Rates and Energy Efficiency in Wireless Sensor Networks. INFOCOM 2004
2799 Leonid B. Poutievski, Kenneth L. Calvert, Jim Griffioen: Speccast. INFOCOM 2004
2798 Fan Ye, Haiyun Luo, Songwu Lu, Lixia Zhang: Statistical En-route Filtering of Injected False Data in Sensor Networks. INFOCOM 2004
2797 Jin Cao, William S. Cleveland, Yuan Gao, Kevin Jeffay, F. Donelson Smith, Michele C. Weigle: Stochastic Models for Generating Synthetic HTTP Source Traffic. INFOCOM 2004
2796 Fan Yang, Qian Zhang, Wenwu Zhu, Ya-Qin Zhang: Streaming and Bit Allocation for Scalable Video over Mobile Wireless Internet. INFOCOM 2004
2795 Liangzhong Yin, Guohong Cao: Supporting Cooperative Caching in Ad Hoc Networks. INFOCOM 2004
2794 Xiang Yu, Chunming Qiao, Yong Liu: TCP Implementations and False Time Out Detection in OBS Networks. INFOCOM 2004
2793 Huaizhong Han, C. V. Hollot, Yossi Chait, Vishal Misra: TCP Networks Stabilized by Buffer-Based AQMs. INFOCOM 2004
2792 Ren Wang, Giovanni Pau, Kenshin Yamada, M. Y. Sanadidi, Mario Gerla: TCP Start up Performance in Large Bandwidth Delay Networks. INFOCOM 2004
2791 François Baccelli, Ki Baek Kim: TCP Throughput Analysis under Transmission Error and Congestion Losses. INFOCOM 2004
2790 Xiuzhen Cheng, Andrew Thaeler, Guoliang Xue, Dechang Chen: TPS: A Time-Based Positioning Scheme for Outdoor Wireless Sensor Networks. INFOCOM 2004
2789 Seungjoon Lee, Suman Banerjee, Samrat Bhattacharjee: The Case for a Multi-hop Wireless Local Area Network. INFOCOM 2004
2788 Chun Fan, Martin Reisslein, Stefan Adams: The FT-FR AWG Network: A Practical Single-Hop Metro WDM Network for Efficient Uni- and Multicasting. INFOCOM 2004
2787 Hani Jamjoom, Chun-Ting Chou, Kang G. Shin: The Impact of Concurrency Gains on the Analysis and Control of Multi-threaded Internet Services. INFOCOM 2004
2786 Hannes Ekström, Reiner Ludwig: The Peak-Hopper: A New End-to-End Retransmission Timer for Reliable Unicast Transport. INFOCOM 2004
2785 David Holmer, Herbert Rubens, Baruch Awerbuch: The Pulse Protocol: Energy Efficient Infrastructure Access. INFOCOM 2004
2784 Purushotham Kamath, Joe Bannister, Joe Touch: The need for media access control in optical CDMA networks. INFOCOM 2004
2783 Abbas El Gamal, James P. Mammen, Balaji Prabhakar, Devavrat Shah: Throughput-Delay Trade-off in Wireless Networks. INFOCOM 2004
2782 Mung Chiang: To Layer or not to Layer: Balancing Transport and Physical Layers in Wireless Multihop Networks. INFOCOM 2004
2781 Swades De, Dimitrios A. Pados, Chunming Qiao, Mainak Chatterjee: Topological and MAI Constraints on the Performance of Wireless CDMA Sensor Networks. INFOCOM 2004
2780 Ning Li, Jennifer C. Hou: Topology Control in Heterogeneous Wireless Networks: Problems and Solutions. INFOCOM 2004
2779 Debojyoti Dutta, Ashish Goel, John S. Heidemann: Towards Protocol Equilibrium with Oblivious Routers. INFOCOM 2004
2778 Ming Hu, Junshan Zhang, John Sadowsky: Traffic Aided Opportunistic Scheduling for Downlink Transmissions: Algorithms and Performance Bounds. INFOCOM 2004
2777 Jian-Qiang Hu, Brett Leida: Traffic Grooming, Routing, and Wavelength Assignment in Optical WDM Mesh Networks. INFOCOM 2004
2776 Nick G. Duffield, Matthias Grossglauser: Trajectory Sampling with Unreliable Reporting. INFOCOM 2004
2775 Ruggero Morselli, Samrat Bhattacharjee, Jonathan Katz, Peter J. Keleher: Trust-Preserving Set Operations. INFOCOM 2004
2774 Guang-Hua Yang, Dongxu Shen, Victor O. K. Li: UEP for video transmission in space-time coded OFDM systems. INFOCOM 2004
2773 James Jobin, Michalis Faloutsos, Satish K. Tripathi, Srikanth V. Krishnamurthy: Understanding the Effects of Hotspots in Wireless Cellular Networks. INFOCOM 2004
2772 Philippe de Cuetos, Keith W. Ross: Unified Framework for Optimal Video Streaming. INFOCOM 2004
2771 Michael Rosenblum, Michel X. Goemans, Vahid Tarokh: Universal Bounds on Buffer Size for Packetizing Fluid Policies in Input Queued, Crossbar Switches. INFOCOM 2004
2770 Marco Ajmone Marsan, Michele Garetto, Paolo Giaccone, Emilio Leonardi, Enrico Schiattarella, Alessandro Tarello: Using Partial Differential Equations to Model TCP Mice and Elephants in Large IP Networks. INFOCOM 2004
2769 Srikant Sharma, Kartik Gopalan, Susanta Nanda, Tzi-cker Chiueh: Viking: A Multi-Spanning-Tree Ethernet Architecture for Metropolitan Area and Cluster Networks. INFOCOM 2004
2768 Yuanyuan Yang, Jianchao Wang: WDM Optical Switching Networks Using Sparse Crossbars. INFOCOM 2004
2767 Graham Cormode, S. Muthukrishnan: What's New: Finding Significant Differences in Network Data Streams. INFOCOM 2004
2766 Supranamaya Ranjan, Roger Karrer, Edward W. Knightly: Wide Area Redirection of Dynamic Content by Internet Data Centers. INFOCOM 2004
2765 Maode Ma: A Bandwidth Guaranteed Polling MAC Protocol for Ethernet Passive Optical Networks. INFOCOM 2003
2764 Jim Chou, Dragan Petrovic, Kannan Ramchandran: A Distributed and Adaptive Signal Processing Approach to Reducing Energy Consumption in Sensor Networks. INFOCOM 2003
2763 Xiaowen Chu, Bo Li: A Dynamic RWA Algorithm in a Wavelength-Routed All-Optical Network with Wavelength Converters. INFOCOM 2003
2762 Xinming He, Christos Papadopoulos, Pavlin Radoslavov: A Framework for Incremental Deployment Strategies for Router-Assisted Services. INFOCOM 2003
2761 Zhenqiang Ye, Srikanth V. Krishnamurthy, Satish K. Tripathi: A Framework for Reliable Routing in Mobile Ad Hoc Networks. INFOCOM 2003
2760 Yitzhak Birk, Diego Crupnicoff: A Multicast Transmission Schedule for Scalable Multi-Rate Distribution of Bulk Data Using Non-Scalable Erasure-Correcting Codes. INFOCOM 2003
2759 Mark S. van den Broek, Ivo J. B. F. Adan, Sai Shankar Nandagopalan, Sem C. Borst: A Novel Mechanism for Contention Resolution in HFC Networks. INFOCOM 2003
2758 Younggoo Kwon, Yuguang Fang, Haniph A. Latchman: A Novel Medium Access Control Protocol with Fast Collision Resolution for Wireless LANs. INFOCOM 2003
2757 H. Jonathan Chao, Kung-Li Deng, Zhigang Jing: A Petabit Photonic Packet Switch (P3S). INFOCOM 2003
2756 Lisong Xu, Harry G. Perros, George N. Rouskas: A Queueing Network Model of an Edge Optical Burst Switching Node. INFOCOM 2003
2755 Yuan Gao, Jennifer C. Hou: A State Feedback Control Approach to Stabilizing Queues for ECN-Enabled TCP Connections. INFOCOM 2003
2754 Stephan Bohacek: A Stochastic Model of TCP and Fair Video Transmission. INFOCOM 2003
2753 John T. Wen, Murat Arcak: A Unifying Passivity Framework for Network Flow Control. INFOCOM 2003
2752 Tansu Alpcan, Tamer Basar: A Utility-Based Congestion Control Scheme for Internet-Style Networks with Delay. INFOCOM 2003
2751 Fernando Paganini, Zhikui Wang, Steven H. Low, John Doyle: A new TCP/AQM for Stable Operation in Fast Networks. INFOCOM 2003
2750 Masaki Aida, Naoto Miyoshi, Keisuke Ishibashi: A scalable and lightweight QoS monitoring technique combining passive and active approaches: On the mathematical formulation of CoMPACT Monitor. INFOCOM 2003
2749 Ashwin Sridharan, Roch Guérin, Christophe Diot: Achieving Near-Optimal Traffic Engineering Solutions for Current OSPF/IS-IS Networks. INFOCOM 2003
2748 Dragos Niculescu, B. R. Badrinath: Ad Hoc Positioning System (APS) Using AOA. INFOCOM 2003
2747 Ioannis Ioannidis, Ananth Grama, Mikhail J. Atallah: Adaptive Data Structures for IP Lookups. INFOCOM 2003
2746 Catherine Boutremans, Jean-Yves Le Boudec: Adaptive joint playout buffer and FEC adjustement for Internet Telephony. INFOCOM 2003
2745 Yigal Bejerano, Yuri Breitbart, Rajeev Rastogi, Alexander Sprintson: Algorithms for Computing QoS Paths with Restoration. INFOCOM 2003
2744 Laura Galluccio, Giacomo Morabito, Sergio Palazzo: An Analytical Study of a Tradeoff Between Transmission Power and FEC for TCP Optimization in Wireless Networks. INFOCOM 2003
2743 Mei Yang, Si-Qing Zheng: An Efficient Scheduling Algorithm for CIOQ Switches with Space-Division Multiplexing Expansion. INFOCOM 2003
2742 Seema Bandyopadhyay, Edward J. Coyle: An Energy Efficient Hierarchical Clustering Algorithm for Wireless Sensor Networks. INFOCOM 2003
2741 Miguel Castro, Michael B. Jones, Anne-Marie Kermarrec, Antony I. T. Rowstron, Marvin Theimer, Helen J. Wang, Alec Wolman: An Evaluation of Scalable Application-Level Multicast Built Using Peer-To-Peer Overlays. INFOCOM 2003
2740 Xudong Wang: An FDD Wideband CDMA MAC Protocol for Wireless Multimedia Networks. INFOCOM 2003
2739 Sundar Iyer, Supratik Bhattacharyya, Nina Taft, Christophe Diot: An approach to alleviate link overload as observed on an IP backbone. INFOCOM 2003
2738 Tracey Ho, Muriel Médard, Ralf Koetter: An information theoretic view of network management. INFOCOM 2003
2737 Prashant Rajvaidya, Kevin C. Almeroth: Analysis of Routing Characteristics in the Multicast Infrastructure. INFOCOM 2003
2736 Koenraad Laevens, Herwig Bruneel: Analysis of a single-wavelength optical buffer. INFOCOM 2003
2735 Ye Xia, David N. C. Tse: Analysis on Packet Resequencing for Reliable Network Protocols. INFOCOM 2003
2734 Edith Cohen, Amos Fiat, Haim Kaplan: Associative Search in Peer to Peer Networks: Harnessing Latent Semantics. INFOCOM 2003
2733 Predrag R. Jelenkovic, Ana Radovanovic: Asymptotic Insensitivity of Least-Recently-Used Caching to Statistical Dependency. INFOCOM 2003
2732 Ying Qiu, Peter Marbach: Bandwidth Allocation in Wireless Ad Hoc Networks: A Price-Based Approach. INFOCOM 2003
2731 Kejie Lu, Gaoxi Xiao, Imrich Chlamtac: Behavior of Distributed Wavelength Provisioning in Wavelength-Routed Networks with Partial Wavelength Conversion. INFOCOM 2003
2730 Yuval Shavitt, Tomer Tankel: Big-Bang Simulation for embedding network distances in Euclidean space. INFOCOM 2003
2729 Zvi Rosberg, Hai Le Vu, Moshe Zukerman, Jolyon White: Blocking Probabilities of Optical Burst Switching Networks Based on Reduced Load Fixed Point Approximations. INFOCOM 2003
2728 Jie Wu, Fei Dai: Broadcasting in Ad Hoc Networks Based on Self-Pruning. INFOCOM 2003
2727 Aner Armon, Hanoch Levy: Cache Satellite Distribution Systems: Modeling and Analysis. INFOCOM 2003
2726 Jiantao Wang, Lun Li, Steven H. Low, John Doyle: Can Shortest-path Routing and TCP Maximize Utility. INFOCOM 2003
2725 Nikhil Bansal, Zhen Liu: Capacity, Delay and Mobility in Wireless Ad-Hoc Networks. INFOCOM 2003
2724 Andreas Köpke, Andreas Willig, Holger Karl: Chaotic Maps as Parsimonious Bit Error Models of Wireless Channels. INFOCOM 2003
2723 Arzad Alam Kherani, Anurag Kumar: Closed Loop Analysis of the Bottleneck Buffer under Adaptive Window Controlled Transfer of HTTP-Like Traffic. INFOCOM 2003
2722 Giuseppe Di Battista, Maurizio Patrignani, Maurizio Pizzonia: Computing the Types of the Relationships between Autonomous Systems. INFOCOM 2003
2721 Sneha Kumar Kasera, Ramachandran Ramjee, Sandra R. Thuel, Xin Wang: Congestion Control Policies for IP-based CDMA Radio Access Networks. INFOCOM 2003
2720 Suman Banerjee, Christopher Kommareddy, Koushik Kar, Samrat Bhattacharjee, Samir Khuller: Construction of an Efficient Overlay Multicast Infrastructure for Real-time Applications. INFOCOM 2003
2719 Girija J. Narlikar, Anindya Basu, Francis Zane: CoolCAMs: Power-Efficient TCAMs for Forwarding Engines. INFOCOM 2003
2718 Vikram Srinivasan, Pavan Nuggehalli, Carla-Fabiana Chiasserini, Ramesh R. Rao: Cooperation in Wireless Ad Hoc Networks. INFOCOM 2003
2717 Alvin C. Valera, Winston Khoon Guan Seah, S. V. Rao: Cooperative Packet Caching and Shortest Multipath Routing in Mobile Ad hoc Networks. INFOCOM 2003
2716 Seungjoon Lee, Rob Sherwood, Samrat Bhattacharjee: Cooperative Peer Groups in NICE. INFOCOM 2003
2715 Jasleen Kaur, Harrick M. Vin: Core-stateless Guaranteed Throughput Networks. INFOCOM 2003
2714 Eugene Perevalov, Rick S. Blum: Delay Limited Capacity of Ad hoc Networks: Asymptotically Optimal Transmission and Relaying Strategy. INFOCOM 2003
2713 Ning Li, Jennifer C. Hou, Lui Sha: Design and Analysis of an MST-Based Topology Control Algorithm. INFOCOM 2003
2712 Wanjiun Liao: Design of Light-Tree Based Logical Topologies for Multicast Streams in Wavelength Routed Optical Networks. INFOCOM 2003
2711 Murali S. Kodialam, T. V. Lakshman: Detecting Network Intrusions via Sampling: A Game Theoretic Approach. INFOCOM 2003
2710 Sudeept Bhatnagar, B. R. Badrinath: Distributed Admission Control to Support Guaranteed Services in Core-Stateless Networks. INFOCOM 2003
2709 Ching Law, Kai-Yeung Siu: Distributed Construction of Random Expander Networks. INFOCOM 2003
2708 Erran L. Li, Marina Thottan, Bin Yao, Sanjoy Paul: Distributed Network Monitoring with Bounded Link Utilization in IP Networks. INFOCOM 2003
2707 Prashanth Pappu, Jyoti Parwatikar, Jonathan S. Turner, Kenneth Wong: Distributed Queueing in Scalable High Performance Routers. INFOCOM 2003
2706 François Baccelli, Bartlomiej Blaszczyszyn, Florent Tournois: Downlink Admission/Congestion Control and Maximal Load in CDMA Networks. INFOCOM 2003
2705 Jiangchuan Liu, Bo Li, Yiwei Thomas Hou, Imrich Chlamtac: Dynamic Layering and Bandwidth Allocation for Multi-Session Video Broadcasting with General Utility Functions. INFOCOM 2003
2704 Suman Das, Harish Viswanathan, Gee Rittenhouse: Dynamic Load Balancing Through Coordinated Scheduling in Packet Data Systems. INFOCOM 2003
2703 Michael J. Neely, Eytan Modiano, Charles E. Rohrs: Dynamic Power Allocation and Routing for Time Varying Wireless Networks. INFOCOM 2003
2702 Pei Zheng, Lionel M. Ni: EMPOWER: A Network Emulator for Wireless and Wireline Networks. INFOCOM 2003
2701 Dongxu Shen, Zhengang Pan, Kai-Kit Wong, Victor O. K. Li: Effective Throughput: A Unified Benchmark for Pilot-Aided OFDM/SDMA Wireless Communication Systems. INFOCOM 2003
2700 Jinhui Xu, Chunming Qiao, Jikai Li, Guang Xu: Efficient Channel Scheduling Algorithms in Optical Burst Switching Networks. INFOCOM 2003
2699 Kunwadee Sripanidkulchai, Bruce M. Maggs, Hui Zhang: Efficient Content Location Using Interest-Based Locality in Peer-to-Peer Systems. INFOCOM 2003
2698 Stavroula Siachalou, Leonidas Georgiadis: Efficient QoS Routing. INFOCOM 2003
2697 Li-Wei Chen, Eytan Modiano: Efficient Routing and Wavelength Assignment for Reconfigurable WDM Networks with Wavelength Converters. INFOCOM 2003
2696 Jose Renato Santos, Yoshio Turner, G. John Janakiraman: End-to-End Congestion Control for InfiniBand. INFOCOM 2003
2695 Gil Zussman, Adrian Segall: Energy Efficient Routing in Ad Hoc Disaster Recovery Networks. INFOCOM 2003
2694 Yalin Evren Sagduyu, Anthony Ephremides: Energy-Efficient Collision Resolution in Wireless Ad-Hoc Networks. INFOCOM 2003
2693 Micah Adler, Jin-yi Cai, Jonathan K. Shapiro, Donald F. Towsley: Estimation of Congestion Price Using Probabilistic Packet Marking. INFOCOM 2003
2692 Benjamin Atkin, Kenneth P. Birman: Evaluation of an Adaptive Transport Protocol. INFOCOM 2003
2691 Wing Ho Yuen, Roy D. Yates, Siun Mau: Exploiting DataDiversity and Multiuser Diversity in Noncooperative Mobile Infostation Networks. INFOCOM 2003
2690 Xiangping Qin, Randall A. Berry: Exploiting Multiuser Diversity for Medium Access Control in Wireless Networks. INFOCOM 2003
2689 Indra Widjaja, Anwar Elwalid: Exploiting Parallelism to Boost Data-Path Rate in High-Speed IP/MPLS Networking. INFOCOM 2003
2688 Vagelis Tsibonis, Leonidas Georgiadis, Leandros Tassiulas: Exploiting Wireless Channel State Information for Throughput Maximization. INFOCOM 2003
2687 Anupam Gupta, Amit Kumar, Rajeev Rastogi: Exploring the trade-off between label size and stack depth in MPLS Routing. INFOCOM 2003
2686 Jean-Baptiste Lapeyrie, Thierry Turletti: FPQ : A Fair and Efficient Polling Algorithm with QoS Support for Bluetooth Piconet. INFOCOM 2003
2685 Anindya Basu, Girija J. Narlikar: Fast Incremental Updates for Pipelined Forwarding Engines. INFOCOM 2003
2684 Rajiv Chakravorty, Sachin Katti, Ian Pratt, Jon Crowcroft: Flow Aggregation for Enhanced TCP over Wide Area Wireless. INFOCOM 2003
2683 François Baccelli, Dohy Hong: Flow Level Simulation of Large IP Networks. INFOCOM 2003
2682 Parijat Dube, Eitan Altman: Goodput Analysis of a Fluid Queue with Selective Discarding and a Responsive Bursty Source. INFOCOM 2003
2681 Mark Crovella, Eric D. Kolaczyk: Graph Wavelets for Spatial Traffic Analysis. INFOCOM 2003
2680 Jacqueline Boyer, Fabrice Guillemin, Philippe Robert, Bert Zwart: Heavy tailed M/G/1-PS queues with impatience and admission control in packet networks. INFOCOM 2003
2679 Fan Bai, Narayanan Sadagopan, Ahmed Helmy: IMPORTANT: A framework to systematically analyze the Impact of Mobility on Performance of RouTing protocols for Adhoc NeTworks. INFOCOM 2003
2678 Swarup Acharya, Bhawna Gupta, Pankaj Risbood, Anurag Srivastava: IP-Subnet Aware Routing in WDM Mesh Networks. INFOCOM 2003
2677 Olivier Dousse, François Baccelli, Patrick Thiran: Impact of Interferences on Connectivity in Ad Hoc Networks. INFOCOM 2003
2676 Anat Bremler-Barr, Yehuda Afek, Shemer Schwarz: Improved BGP Convergence via Ghost Flushing. INFOCOM 2003
2675 Mukesh Agrawal, Amit Manjhi, Nikhil Bansal, Srinivasan Seshan: Improving Web Performance in Broadcast-Unicast Networks. INFOCOM 2003
2674 Frédéric Giroire, Antonio Nucci, Nina Taft, Christophe Diot: Increasing the Robustness of IP Backbones in the Absence of Optical Level Protection. INFOCOM 2003
2673 Yashar Ganjali, Abtin Keshavarzian, Devavrat Shah: Input Queued Switches: Cell Switching vs Packet Switching. INFOCOM 2003
2672 Marco Ajmone Marsan, Mirko Franceschinis, Emilio Leonardi, Fabio Neri, Alessandro Tarello: Instability Phenomena in Underloaded Packet Networks with QoS Schedulers. INFOCOM 2003
2671 Stephen L. Spitler, Daniel C. Lee: Integrating effective-bandwidth-based QoS routing and best effort routing. INFOCOM 2003
2670 Milind M. Buddhikot, Girish P. Chandranmenon, Seung-Jae Han, Yui-Wah Lee, Scott C. Miller, Luca Salgarelli: Integration of 80211 and Third-Generation Wireless Data Networks. INFOCOM 2003
2669 Randy Bush, Timothy Griffin: Integrity for Virtual Private Routed Networks. INFOCOM 2003
2668 François Baccelli, Dohy Hong: Interaction of TCP Flows as Billiards. INFOCOM 2003
2667 David Moore, Colleen Shannon, Geoffrey M. Voelker, Stefan Savage: Internet Quarantine: Requirements for Containing Self-Propagating Code. INFOCOM 2003
2666 Moshe Zukerman, Timothy D. Neame, Ron Addie: Internet Traffic Modeling and Future Technology Implications. INFOCOM 2003
2665 Mehmet Akar, Urbashi Mitra: Joint power and handoff control using a hybrid systems framework. INFOCOM 2003
2664 Giuseppe Bianchi, Ilenia Tinnirello: Kalman Filter Estimation of the Number of Competing Terminals in an IEEE 80211 network. INFOCOM 2003
2663 William C. Cheng, Cheng-Fu Chou, Leana Golubchik, Samir Khuller, Yung-Chun (Justin) Wan: Large-scale Data Collection: a Coordinated Approach. INFOCOM 2003
2662 Peerapol Tinnakornsrisuphap, Armand M. Makowski: Limit Behavior of ECN/RED Gateways Under a Large Number of TCP Flows. INFOCOM 2003
2661 Bhaskaran Raman, Randy H. Katz: Load Balancing and Stability Issues in Algorithms for Service Composition. INFOCOM 2003
2660 David Applegate, Mikkel Thorup: Load optimal MPLS routing with N+M labels. INFOCOM 2003
2659 Marco Ajmone Marsan, Paolo Giaccone, Emilio Leonardi, Fabio Neri: Local Scheduling Policies in Networks of Packet Switches with Input Queues. INFOCOM 2003
2658 Julien Cartigny, David Simplot, Ivan Stojmenovic: Localized minimum-energy broadcasting in ad-hoc networks. INFOCOM 2003
2657 Matthias Grossglauser, Martin Vetterli: Locating Nodes with EASE: Mobility Diffusion of Last Encounters in Ad Hoc Networks. INFOCOM 2003
2656 Konstantina Papagiannaki, Nina Taft, Zhi-Li Zhang, Christophe Diot: Long-Term Forecasting of Internet Backbone Traffic: Observations and Initial Models. INFOCOM 2003
2655 Michael Menth, Matthias Schmid, Herbert Heiss, Thomas Reim: MEDF - A Simple Scheduling Algorithm for Two Real-Time Transport Service Classes with Application in the UTRAN. INFOCOM 2003
2654 Vahid Tabatabaee, Leandros Tassiulas: MNCM a new class of efficient scheduling algorithms for input-buffered switches with no speedup. INFOCOM 2003
2653 Luís Gouveia, Pedro Patrício, Amaro de Sousa, Rui Valadas: MPLS over WDM Network Design with Packet Level QoS Constraints based on ILP Models. INFOCOM 2003
2652 Sharad Jaiswal, Gianluca Iannaccone, Christophe Diot, James F. Kurose, Donald F. Towsley: Measurement and Classification of Out-of-Sequence Packets in a Tier-1 IP Backbone. INFOCOM 2003
2651 T. S. Eugene Ng, Yang-Hua Chu, Sanjay G. Rao, Kunwadee Sripanidkulchai, Hui Zhang: Measurement-Based Optimization Techniques for Bandwidth-Demanding Peer-to-Peer Systems. INFOCOM 2003
2650 Khaled Harfoush, Azer Bestavros, John W. Byers: Measuring Bottleneck Bandwidth of Targeted Path Segments. INFOCOM 2003
2649 Raissa D'Souza, Sharad Ramanathan, Duncan Temple Lang: Measuring performance of ad hoc networks using timescales for information flow. INFOCOM 2003
2648 Christos Nomikos, Aris Pagourtzis, Stathis Zachos: Minimizing Request Blocking in All-Optical Rings. INFOCOM 2003
2647 Arindam Kumar Das: Minimum Power Broadcast Trees for Wireless Networks: Integer Programming Formulations. INFOCOM 2003
2646 Michele Garetto, Weibo Gong, Donald F. Towsley: Modeling Malware Spreading Dynamics. INFOCOM 2003
2645 Zihui Ge, Daniel R. Figueiredo, Sharad Jaiswal, James F. Kurose, Donald F. Towsley: Modeling Peer-Peer File Sharing Systems. INFOCOM 2003
2644 Zesheng Chen, Lixin Gao, Kevin A. Kwiat: Modeling the Spread of Active Worms. INFOCOM 2003
2643 Jaeyeon Jung, Arthur W. Berger, Hari Balakrishnan: Modelling TTL-based Internet Caches. INFOCOM 2003
2642 Achille Pattavina, Gino L. Tesei: Modelling the Blocking Behavior of Multicast Clos Networks. INFOCOM 2003
2641 Pradnya Karbhari, Ellen W. Zegura, Mostafa H. Ammar: Multipoint-to-Point Session Fairness in the Internet. INFOCOM 2003
2640 Youngmi Jin, George Kesidis: Nash equilibria of a generic networking game with applications to circuit-switched networks. INFOCOM 2003
2639 Steven Weber, Gustavo de Veciana: Network Design For Rate Adaptive Media Streams. INFOCOM 2003
2638 Ulas C. Kozat, Leandros Tassiulas: Network Layer Support for Service Discovery in Mobile Ad Hoc Networks. INFOCOM 2003
2637 Guanglei Liu, Chuanyi Ji, Vincent W. S. Chan: Network Management Information For Light-Path Assessment: Trade-off between Performance and Complexity. INFOCOM 2003
2636 Rauf Izmailov, Samrat Ganguly, Viktor Kleptsyn, Aikaterini Varsou: Non-Uniform Waveband Hierarchy in Hybrid Optical Networks. INFOCOM 2003
2635 Debojyoti Dutta, Ashish Goel, John S. Heidemann: Oblivious AQM and Nash Equilibria. INFOCOM 2003
2634 Alpár Jüttner, István Szabó, Áron Szentesi: On Bandwidth Efficiency of the Hose Resource Management Model in Virtual Private Networks. INFOCOM 2003
2633 Guanghui He, Jennifer C. Hou: On Exploiting Long Range Dependency of Network Traffic in Measuring Cross Traffic on an End-to-end Basis. INFOCOM 2003
2632 Isaac Keslassy, Murali S. Kodialam, T. V. Lakshman, Dimitrios Stiliadis: On Guaranteed Smooth Scheduling For Input-Queued Switches. INFOCOM 2003
2631 Danny Dolev, Osnat Mokryn, Yuval Shavitt: On Multicast Trees: Structure and Size Estimation. INFOCOM 2003
2630 Benyuan Liu, Zhen Liu, Donald F. Towsley: On the Capacity of Hybrid Wireless Networks. INFOCOM 2003
2629 Jun Xu: On the Fundamental Tradeoffs between Routing Table Size andNetwork Diameter in Peer-to-Peer Networks. INFOCOM 2003
2628 Rodrigo C. Fonseca, Virgilio Almeida, Mark Crovella, Bruno D. Abrahao: On the Intrinsic Locality Properties of Web Reference Streams. INFOCOM 2003
2627 Eric Anderson, Thomas E. Anderson: On the Stability of Adaptive Routing in the Presence of Congestion Control. INFOCOM 2003
2626 Rong Zheng, Robin Kravets: On-demand Power Management for Ad Hoc Networks. INFOCOM 2003
2625 Enrique Campos-Náñez, Stephen D. Patek: On-line Tuning of Prices for Network Services. INFOCOM 2003
2624 Poompat Saengudomlert, Eytan Modiano, Robert G. Gallager: On-line routing and wavelength assignment for dynamic traffic in WDM ring and torus networks. INFOCOM 2003
2623 Yonghe Liu, Edward W. Knightly: Opportunistic Fair Scheduling over Multiple Wireless Channels. INFOCOM 2003
2622 Samrat Ganguly, B. R. Badrinath, Navin Goyal: Optimal Bandwidth Reservation Schedule in Cellular Network. INFOCOM 2003
2621 Thomas C. Bressoud, Rajeev Rastogi, Mark A. Smith: Optimal Configuration for BGP Route Selection. INFOCOM 2003
2620 Alvin Fu, Eytan Modiano, John N. Tsitsiklis: Optimal Energy Allocation for Delay-Constrained Data Transmission over a Time-Varying Channel. INFOCOM 2003
2619 Dean H. Lorenz, Ariel Orda, Danny Raz: Optimal Partition of QoS Requirements for Many-to-Many Connections. INFOCOM 2003
2618 Taehyun Kim, Mostafa H. Ammar: Optimal Quality Adaptation for MPEG-4 Fine-Grained Scalable Video. INFOCOM 2003
2617 Rene L. Cruz, Arvind Santhanam: Optimal Routing, Link Scheduling , and Power Control in Multi-hop Wireless Networks. INFOCOM 2003
2616 Lavy Libman, Ariel Orda: Optimal Sliding-Window Strategies in Networks with Long Round-Trip Delays. INFOCOM 2003
2615 Omri Bahat, Armand M. Makowski: Optimal replacement policies for non-uniform cache objects with optional eviction. INFOCOM 2003
2614 Ben Liang, Zygmunt J. Haas: Optimizing Route-Cache Lifetime in Ad Hoc Networks. INFOCOM 2003
2613 Saswati Sarkar: Optimum Scheduling and Memory Management in Input Queued Switches with FiniteBuffer Space. INFOCOM 2003
2612 Florin Baboescu, Sumeet Singh, George Varghese: Packet Classification for Core Routers: Is there an alternative to CAMs? INFOCOM 2003
2611 Marco Ajmone Marsan, Paola Laface, Michela Meo: Packet Delay Analysis in GPRS Systems. INFOCOM 2003
2610 Yih-Chun Hu, Adrian Perrig, David B. Johnson: Packet Leashes: A Defense against Wormhole Attacks in Wireless Networks. INFOCOM 2003
2609 Cedric Florens, Robert J. McEliece: Packet distribution Algorithms for Sensor Networks. INFOCOM 2003
2608 Bruce Hajek, Kevin Mitzel, Sichao Yang: Paging and Registration in Cellular Networks: Jointly Optimal Policies an d an Iterative Algorithm. INFOCOM 2003
2607 Thinh Nguyen: Path Diversity with Forward Error Correction (PDF) System for Delay Sensitive Applications over the Internet. INFOCOM 2003
2606 Peter P. Pham: Performance Analysis of Reactive Shortest Single-path and Multi-path Routing Mechanism With Load Balance. INFOCOM 2003
2605 Xiaojun Cao, Vishal Anand, Yizhi Xiong, Chunming Qiao: Performance Evaluation of Wavelength Band Switching in Multi-fiber All-Optical Networks. INFOCOM 2003
2604 Gilles Berger-Sabbatel, Franck Rousseau, Martin Heusse, Andrzej Duda: Performance anomaly of 80211b. INFOCOM 2003
2603 Yigal Bejerano, Yuri Breitbart, Minos N. Garofalakis, Rajeev Rastogi: Physical Topology Discovery for Large Multi-Subnet Networks. INFOCOM 2003
2602 Munish Goyal, Anurag Kumar, Vinod Sharma: Power Constrained and Delay Optimal Policies for Scheduling Transmission over a Fading Channel. INFOCOM 2003
2601 Vikas Kawadia, Panganamala Kumar: Power Control and Clustering in Ad Hoc Networks. INFOCOM 2003
2600 Alaa Muqattash, Marwan Krunz: Power Controlled Dual Channel (PCDC) Medium Access Protocol for Wireless Ad Hoc Networks. INFOCOM 2003
2599 Yong Cui, Ke Xu, Jianping Wu: Precomputation for Multi-constrained QoS Routing in High-speed Networks. INFOCOM 2003
2598 Jun Shu, Pravin Varaiya: Pricing Network Services. INFOCOM 2003
2597 Michel Mandjes: Pricing strategies under heterogeneous service requirements. INFOCOM 2003
2596 Peter B. Key, Laurent Massoulié: Probing strategies for distributed admission control in large and small scale systems. INFOCOM 2003
2595 Hongbo Zhou, Lionel M. Ni, Matt W. Mutka: Prophet Address Allocation for Large Scale MANETs. INFOCOM 2003
2594 Sunil Gowda, Krishna M. Sivalingam: Protection Mechanisms for Optical WDM Networks based on Wavelength Converter. INFOCOM 2003
2593 Cheng-Shang Chang, Duan-Shin Lee, Chi-Yao Yue: Providing Guaranteed Rate Services in the Load Balanced Birkhoff-von Neumann Switches. INFOCOM 2003
2592 Chuck Fraleigh, Fouad A. Tobagi, Christophe Diot: Provisioning IP Backbone Networks to Support Latency Sensitive Traffic. INFOCOM 2003
2591 Gang Liang, Bin Yu: Pseudo Likelihood Estimation in Network Tomography. INFOCOM 2003
2590 Jungkeun Yoon, Mingyan Liu, Brian Noble: Random Waypoint Considered Harmful. INFOCOM 2003
2589 Puneet Mehra, Christophe De Vleeschouwer, Avideh Zakhor: Receiver-Driven Bandwidth Sharing for TCP. INFOCOM 2003
2588 Peter Värbrand, Di Yuan, Patrik Björklund: Resource Optimization of Spatial TDMA in Ad Hoc Radio Networks: A Column Generation Approach. INFOCOM 2003
2587 Andrei Gurtov, Reiner Ludwig: Responding to Spurious Timeouts in TCP. INFOCOM 2003
2586 Saikat Ray, Rachanee Ungrangsi, Francesco De Pellegrini, Ari Trachtenberg, David Starobinski: Robust Location Detection in Emergency Sensor Networks. INFOCOM 2003
2585 Yigal Bejerano, Rajeev Rastogi: Robust Monitoring of Link Delays and Faults in IP Networks. INFOCOM 2003
2584 Jun Luo, Patrick Th. Eugster, Jean-Pierre Hubaux: Route Driven Gossip: Probabilistic Reliable Multicast in Ad Hoc Networks. INFOCOM 2003
2583 Koushik Kar, Murali S. Kodialam, T. V. Lakshman, Leandros Tassiulas: Routing for Network Capacity Maximization in Energy-constrained Ad-hoc Networks. INFOCOM 2003
2582 Robert Hsieh, Zhe Guang Zhou, Aruna Seneviratne: S-MIP: A Seamless Handoff Architecture for Mobile IP. INFOCOM 2003
2581 Rong Pan, Balaji Prabhakar, Konstantinos Psounis, Damon Wischik: SHRiNK: A method for scaleable performance prediction and efficient network simulation. INFOCOM 2003
2580 Anukool Lakhina, John W. Byers, Mark Crovella, Peng Xie: Sampling Biases in IP Topology Measurements. INFOCOM 2003
2579 Matthew Andrews, Milan Vojnovic: Scheduling reserved traffic in input-queued switches: New delay bounds via probabilistic techniques. INFOCOM 2003
2578 Yi Zou, Krishnendu Chakrabarty: Sensor Deployment and Target Localization Based on Virtual Forces. INFOCOM 2003
2577 Rajgopal Kannan, Sudipta Sarangi, S. Sitharama Iyengar, Lydia Ray: Sensor-Centric Quality of Routing in Sensor Networks. INFOCOM 2003
2576 Venkata N. Padmanabhan, Lili Qiu, Helen J. Wang: Server-based Inference of Internet Link Lossiness. INFOCOM 2003
2575 Do Young Eun, Ness B. Shroff: Simplification of Network Analysis in Large-Bandwidth Systems. INFOCOM 2003
2574 Zhi-Li Zhang, Vinay J. Ribeiro, Sue B. Moon, Christophe Diot: Small-Time Scaling Beahviors of Internet Backbone Traffic: An Empirical Study. INFOCOM 2003
2573 Gu-In Kwon, John W. Byers: Smooth Multirate Multicast Congestion Control. INFOCOM 2003
2572 Christos Gkantsidis, Milena Mihail, Ellen W. Zegura: Spectral Analysis of Internet Topologies. INFOCOM 2003
2571 Sheng Zhong, Jiang Chen, Yang Richard Yang: Sprite: A Simple, Cheat-Proof, Credit-Based System for Mobile Ad-Hoc Networks. INFOCOM 2003
2570 Supratim Deb, Sanjay Shakkottai, R. Srikant: Stability and Convergence of TCP-like Congestion Controllers in a Many-Flows Regime. INFOCOM 2003
2569 Allen MacKenzie, Stephen B. Wicker: Stability of Multipacket Slotted Aloha with Selfish Users and Perfect Information. INFOCOM 2003
2568 Hyojeong Choe, Steven H. Low: Stabilized Vegas. INFOCOM 2003
2567 Seung-Taek Park, Alexy Khrabrov, David M. Pennock, Steve Lawrence, C. Lee Giles, Lyle H. Ungar: Static and Dynamic Analysis of the Internet's Susceptibility to Faults and Attacks. INFOCOM 2003
2566 Nelson X. Liu, John S. Baras: Statistical Modeling and Performance Analysis of Multi-Scaling Traffic. INFOCOM 2003
2565 Jörg Liebeherr, Stephen D. Patek, Almut Burchard: Statistical Per-Flow Service Bounds in a Network with Aggregate Provisioning. INFOCOM 2003
2564 Debasis Mitra, Qiong Wang: Stochastic Traffic Engineering, with Applications to Network Revenue Management. INFOCOM 2003
2563 Aleksandar Kuzmanovic, Edward W. Knightly: TCP-LP: A Distributed Algorithm for Low Priority Data Transfer. INFOCOM 2003
2562 Ioannis Ch. Paschalidis, Chang Su, Michael C. Caramanis: Target-Pursuing Policies for Open Multiclass Queueing Networks. INFOCOM 2003
2561 Chun Fan, Martin Maier, Martin Reisslein: The AWG||PSC Network: A Performance Enhanced Single-Hop WDM Network with Heterogeneous Protection. INFOCOM 2003
2560 Fernando A. Kuipers, Piet Van Mieghem: The Impact of Correlated Link Weights on QoS Routing. INFOCOM 2003
2559 Zhenghua Fu, Petros Zerfos, Haiyun Luo, Songwu Lu, Lixia Zhang, Mario Gerla: The Impact of Multihop Wireless Channel on TCP Throughput and Loss. INFOCOM 2003
2558 Iordanis Koutsopoulos, Tianmin Ren, Leandros Tassiulas: The Impact of Space Division Multiplexing on Resource Allocation: A Unified Approach. INFOCOM 2003
2557 Marcel F. Neuts, Jun Guo, Moshe Zukerman, Hai Le Vu: The Waiting Time Distribution for a TDMA Model with a Finite Buffer. INFOCOM 2003
2556 Ravi Prasad, Constantinos Dovrolis, Bruce A. Mah: The effect of layer-2 store-and-forward devices on per-hop capacity estimation. INFOCOM 2003
2555 Jeyashankher Ramamirtham, Jonathan S. Turner: Time Sliced Optical Burst Switching. INFOCOM 2003
2554 Mahadevan Iyer, Wei Kang Tsai: Time-Optimal Network Queue Control: The Case of a Single Congested Node. INFOCOM 2003
2553 Bin Yao, Ramesh Viswanathan, Fangzhe Chang, Dan G. Waddington: Topology Inference in the Presence of Anonymous Routers. INFOCOM 2003
2552 Zhichen Xu, Mallik Mahalingam, Magnus Karlsson: Turning Heterogeneity into an Advantage in Overlay Routing. INFOCOM 2003
2551 Ao Tang, Jiantao Wang, Steven H. Low: Understanding CHOKe. INFOCOM 2003
2550 Saar Pilosof, Ramachandran Ramjee, Danny Raz, Yuval Shavitt, Prasun Sinha: Understanding TCP fairness over Wireless LAN. INFOCOM 2003
2549 Sanjay Shakkottai, R. Srikant, Ness B. Shroff: Unreliable Sensor Grids: Coverage, Connectivity and Diameter. INFOCOM 2003
2548 C. V. Hollot, Yong Liu, Vishal Misra, Donald F. Towsley: Unresponsive Flows and AQM Performance. INFOCOM 2003
2547 Krishnan Kumaran, Lijun Qian: Uplink Scheduling in CDMA Packet-Data Systems. INFOCOM 2003
2546 Sem C. Borst: User-Level Performance of Channel-Aware Scheduling Algorithms in Wireless Data Networks. INFOCOM 2003
2545 Cheng-Shang Chang, Duan-Shin Lee, Chao-Kai Tu: Using Switched Delay Lines for Exact Emulation of FIFO Multiplexers with Variable Length Bursts. INFOCOM 2003
2544 Prasanna Ganesan, Qixiang Sun, Hector Garcia-Molina: YAPPERS: A Peer-to-Peer Lookup Service over Arbitrary Topology. INFOCOM 2003
2543 Duc A. Tran, Kien A. Hua, Tai T. Do: ZIGZAG: An Efficient Peer-to-Peer Scheme for Media Streaming. INFOCOM 2003
2542 Kostas G. Anagnostakis, Michael Greenwald, Raphael S. Ryger: cing: Measuring Network-Internal Delays using only Existing Infrastructure. INFOCOM 2003
2541 Cheng-Shang Chang, Zhen Liu: A Bandwidth Sharing Theory for a Large Number of HTTP-like Connections. INFOCOM 2002
2540 Wonyong Yoon, Dongman Lee, Hee Yong Youn, Seung-Ik Lee, Seok Joo Koh: A Combined Group/Tree Approach for Many-to-Many Reliable Multicast. INFOCOM 2002
2539 Dah-Ming Chiu, Miriam Kadansky, Joe Provino, Joseph Wesley, Hans-Peter Bischof, Haifeng Zhu: A Congestion Control Algorithm for Tree-based Reliable Multicast Protocols. INFOCOM 2002
2538 Jiang Xie, Ian F. Akyildiz: A Distributed Dynamic Regional Location Management Scheme for Mobile IP. INFOCOM 2002
2537 Walter Wang, Libin Dong, Wayne Wolf: A Distributed Switch Architecture with Dynamic Load-balancing and Parallel Input-Queued Crossbars for Terabit Switch Fabrics. INFOCOM 2002
2536 Maria Adamou, Saswati Sarkar: A Framework for Optimal Battery Management for Wireless Nodes. INFOCOM 2002
2535 Jiangchuan Liu, Bo Li, Ya-Qin Zhang: A Hybrid Adaptation Protocol for TCP-Friendly Layered Multicast and Its Optimal Rate Allocation. INFOCOM 2002
2534 Claudio Casetti, Renato Lo Cigno, Marco Mellia, Maurizio M. Munafò, Zoltán Zsóka: A New Class of QoS Routing Strategies Based on Network Graph Reduction. INFOCOM 2002
2533 Jaudelice Cavalcante de Oliveira, Caterina M. Scoglio, Ian F. Akyildiz, George Uhl: A New Preemption Policy for DiffServ-Aware Traffic Engineering to Minimize Rerouting. INFOCOM 2002
2532 Dhananjay S. Phatak, Tom Goff: A Novel Mechanism for Data Streaming Across Multiple IP Links for Improving Throughput and Reliability in Mobile Environments. INFOCOM 2002
2531 Kavita Ramanan, Jin Cao: A Poisson Limit for Buffer Overflow Probabilities. INFOCOM 2002
2530 Wook Choi, Sajal K. Das: A Proxy Based Indirect Routing Scheme for Ad Hoc Wireless Networks. INFOCOM 2002
2529 Nicolas Christin, Jörg Liebeherr, Tarek F. Abdelzaher: A Quantitative Assured Forwarding Service. INFOCOM 2002
2528 Brian D. Carrier, Clay Shields: A Recursive Session Token Protocol for use in Computer Forensics and TCP Traceback. INFOCOM 2002
2527 Hoi-Sheung Wilson So, Ye Xia, Jean C. Walrand: A Robust Acknowledgement Scheme for Unreliable Flows. INFOCOM 2002
2526 Fengyuan Ren, Chuang Lin, Ying Xunhe, Xiuming Shan, Wang Fubao: A Robust Active Queue Management Algorithm Based on Sliding Mode Variable Structure Control. INFOCOM 2002
2525 Ariel Orda, Alexander Sprintson: A Scalable Approach to the Partition of QoS Requirements in Unicast and Multicast. INFOCOM 2002
2524 Xusheng Tian, Jie Wu, Chuanyi Ji: A Unified Framework for Understanding Network Traffic Using Independent Wavelet Models. INFOCOM 2002
2523 François Baccelli, Dohy Hong: AIMD, Fairness and Fractal Scaling of TCP Traffic. INFOCOM 2002
2522 Alberto Cerpa, Deborah Estrin: ASCENT: Adaptive Self-Configuring sEnsor Networks Topologies. INFOCOM 2002
2521 Lukas Kencl, Jean-Yves Le Boudec: Adaptive Load Sharing for Network Processors. INFOCOM 2002
2520 Iordanis Koutsopoulos, Leandros Tassiulas: Adaptive Resource Allocation in SDMA-based Wireless Broadband networks with OFDM Signaling. INFOCOM 2002
2519 James Cai, Andrea Fumagalli: An Analytical Framework for Performance Comparison of Bandwidth Reservation Schemes in WDM Ring. INFOCOM 2002
2518 Eun-Sun Jung, Nitin H. Vaidya: An Energy Efficient MAC Protocol for Wireless LANs. INFOCOM 2002
2517 Wei Ye, John S. Heidemann, Deborah Estrin: An Energy-Efficient MAC Protocol for Wireless Sensor Networks. INFOCOM 2002
2516 Sadia Sharif, Adnan Aziz, Amit Prakash: An O(log2N) parallel algorithm for output queuing. INFOCOM 2002
2515 Ghassan Al-Regib, Yucel Altunbasak: An Unequal Error Protection Method for Packet Loss Resilient 3-D Mesh Transmission. INFOCOM 2002
2514 Giuseppe Ascia, Vincenzo Catania, Daniela Panno: An efficient buffer management policy based on an integrated Fuzzy-GA approach. INFOCOM 2002
2513 Chun-Ting Chou, Kang G. Shin: Analysis of Combined Adaptive Bandwidth Allocation and Admission Control in Wireless Networks. INFOCOM 2002
2512 Konstantina Papagiannaki, Sue B. Moon, Chuck Fraleigh, Patrick Thiran, Fouad A. Tobagi, Christophe Diot: Analysis of Measured Single-Hop Delay from an Operational Backbone Network. INFOCOM 2002
2511 David Starobinski, Mark G. Karpovsky, Lev Zakrevski: Application of Network Calculus to General Topologies using Turn-Prohibition. INFOCOM 2002
2510 Jakob Carlström, Raphael Rom: Application-aware Admission Control and Scheduling in Web Servers. INFOCOM 2002
2509 Athina Markopoulou, Fouad A. Tobagi, Mansour J. Karam: Assessment of VoIP quality over Internet Backbones. INFOCOM 2002
2508 Aman Shaikh, Rohit Dube, Anujan Varma: Avoiding Instability during Graceful Shutdown of OSPF. INFOCOM 2002
2507 Shun Yan Cheung, Corneliu S. Pencea: BSFQ: Bin Sort Fair Queueing. INFOCOM 2002
2506 Mohit Agarwal, Anuj Puri: Base station scheduling of requests with fixed deadlines. INFOCOM 2002
2505 Muriel Médard, Ralf Koetter: Beyond Routing: An Algebraic Approach to Network Coding. INFOCOM 2002
2504 Simon Baatz, Matthias Frank, Carmen Kühl, Peter Martini, Christoph Scholz: Bluetooth Scatternets: An Enhanced Adaptive Scheduling Scheme. INFOCOM 2002
2503 Manish Bhardwaj, Anantha Chandrakasan: Bounding the Lifetime of Sensor Networks Via Optimal Role Assignments. INFOCOM 2002
2502 Junshan Zhang, Ming Hu, Ness B. Shroff: Bursty Data Over CDMA: MAI Self Similarity, Rate Control and Admission Control. INFOCOM 2002
2501 T. V. Lakshman: Capacity Design of Fast Path Restorable Optical Networks. INFOCOM 2002
2500 Leonidas Georgiadis, Nikos Argiriou: Channel Sharing by Rate Adaptive Streaming Applications. INFOCOM 2002
2499 Lakshminarayanan Subramanian, Sharad Agarwal, Jennifer Rexford, Randy H. Katz: Characterizing the Internet Hierarchy from Multiple Vantage Points. INFOCOM 2002
2498 Li Zhang, Zhen Liu, Cathy H. Xia: Clock Synchronization Algorithms for Network Measurements. INFOCOM 2002
2497 John Sucec, Ivan Marsic: Clustering Overhead for Hierarchical Routing in Mobile Ad hoc Networks. INFOCOM 2002
2496 Matthew Andrews, F. Bruce Shepherd, Aravind Srinivasan, Peter Winkler, Francis Zane: Clustering and Server Selection using Passive Monitoring. INFOCOM 2002
2495 Carla-Fabiana Chiasserini, Ramesh R. Rao: Coexistence Mechanisms for Interference Mitigation between IEEE 80211 WLANs and Bluetooth. INFOCOM 2002
2494 Olivier Dousse, Patrick Thiran, Martin Hasler: Connectivity in ad-hoc and hybrid networks. INFOCOM 2002
2493 Admela Jukan, Gerald Franzl: Constraint-based path selection methods for on-demand provisioning in WDM networks. INFOCOM 2002
2492 James F. Kurose, Christophe Diot, Mahmoud Naghshineh, Donald F. Towsley, Jonathan S. Turner, Lixia Zhang: Defining the next generation of challenges in networking research. INFOCOM 2002
2491 Pavan Nuggehalli, Vikram Srinivasan, Ramesh R. Rao: Delay Constrained Energy Efficient Transmission Strategies for Wireless Devices. INFOCOM 2002
2490 Devavrat Shah, Milind Kopikare: Delay bounds for the approximate Maximum weight matching algorithm for input queued switches. INFOCOM 2002
2489 Y. Charlie Hu, Daniel Rodney, Peter Druschel: Design and Scalability of NLS, a Scalable Naming and Location Service. INFOCOM 2002
2488 Andrea Dacomo, Simone De Patre, Guido Maier, Achille Pattavina, Mario Martinelli: Design of Static Resilient WDM Mesh Networks with Multiple Heuristic Criteria. INFOCOM 2002
2487 Jeyashankher Ramamirtham, Jonathan S. Turner: Design of Wavelength Converting Switches for Optical Burst Switching. INFOCOM 2002
2486 Haining Wang, Danlu Zhang, Kang G. Shin: Detecting SYN Flooding Attacks. INFOCOM 2002
2485 Parijat Dube, Vivek S. Borkar, D. Manjunath: Differential Join Prices for Parallel Queues: Social Optimality, Dynamic Pricing Algorithms and Application to Internet Pricing. INFOCOM 2002
2484 Peng-Jun Wan, Khaled M. Alzoubi, Ophir Frieder: Distributed Construction of Connected Dominating Set in Wireless Ad Hoc Networks. INFOCOM 2002
2483 Xiang-Yang Li, Gruia Calinescu, Peng-Jun Wan: Distributed Construction of Planar Spanner and Routing for Ad Hoc Wireless Networks. INFOCOM 2002
2482 Chunming Qiao, Dahai Xu: Distributed Partial Information Management (DPIM) Schemes for Survivable Networks - Part I. INFOCOM 2002
2481 Jangwon Lee, Ravi Mazumdar, Ness B. Shroff: Downlink Power Allocation for Multi-class CDMA Wireless Networks. INFOCOM 2002
2480 Peter Marbach, Randall A. Berry: Downlink Resource Allocation and Pricing for Wireless Networks. INFOCOM 2002
2479 Steven H. Low, Fernando Paganini, Jiantao Wang, Sachin Adlakha, John Doyle: Dynamics of TCP/RED and a Scalable Control. INFOCOM 2002
2478 Kai Chen, Klara Nahrstedt: Effective Location-Guided Tree Construction Algorithms for Small Group Multicast in MANET. INFOCOM 2002
2477 Rahul Shah, Ravi Jain, Farooq Anjum: Efficient Dissemination of Personalized Information Using Content-Based Multicast. INFOCOM 2002
2476 Guangzhi Li, Dongmei Wang, Charles R. Kalmanek, Robert D. Doverspike: Efficient Distributed Path Selection for Shared Restoration Connections. INFOCOM 2002
2475 Derek C. W. Pao, Angus Wu, Cutson Liu, Kwan Lawrence Yeung, King Sun Chan: Efficient Hardware Architecture for Fast IP Address Lookup. INFOCOM 2002
2474 Karen Wang, Baochun Li: Efficient and Guaranteed Service Coverage in Partitionable Mobile Ad-hoc Networks. INFOCOM 2002
2473 Amotz Bar-Noy, Boaz Patt-Shamir, Vladimir Dreizin: Efficient periodic scheduling by trees. INFOCOM 2002
2472 Dmitri Loguinov, Hayder Radha: End-to-End Internet Video Traffic Dynamics: Statistical Study and Analysis. INFOCOM 2002
2471 Imran Ali, Rajeev Gupta, Sorav Bansal, Archan Misra, Ashu Razdan, Rajeev Shorey: Energy Efficiency and Throughput for TCP Traffic in Multi-Hop Wireless Networks. INFOCOM 2002
2470 Akis Spyropoulos, Cauligi S. Raghavendra: Energy Efficient Communications in Ad Hoc Networks Using Directional Antennas. INFOCOM 2002
2469 Daji Qiao, Sunghyun Choi, Amjad Soomro, Kang G. Shin: Energy-Efficient PCF Operation of IEEE 80211a Wireless LAN. INFOCOM 2002
2468 Jeffrey E. Wieselthier, Gam D. Nguyen, Anthony Ephremides: Energy-Limited Wireless Networking with Directional Antennas: The Case of Session-Based Multicasting. INFOCOM 2002
2467 Chandra Nair, Abbas El Gamal, Balaji Prabhakar, Elif Uysal-Biyikoglu, Sina Zahedi: Energy-efficient Scheduling of Packet Transmissions over Wireless Networks. INFOCOM 2002
2466 Mohamed A. El-Gendy, Kang G. Shin: Equation-Based Packet Marking for Assured Forwarding Services. INFOCOM 2002
2465 Ashish Goel, Michael Mitzenmacher: Exact sampling of TCP Window States. INFOCOM 2002
2464 Marco Mellia, Emilio Leonardi, Marco Feletig, Roberto Gaudino, Fabio Neri: Exploiting OTDM technology in WDM networks. INFOCOM 2002
2463 Fabrice Guillemin, Nikolay B. Likhanov, Ravi Mazumdar, Catherine Rosenberg: Extremal traffic and bounds for the mean delay of multiplexed regulated traffic streams. INFOCOM 2002
2462 Kenneth L. Calvert, Srinivasan Venkatraman, Jim Griffioen: FPAC: Fast, Fixed-Cost Authentication for Access to Reserved Resources. INFOCOM 2002
2461 Nan Ni, Laxmi N. Bhuyan: Fair Scheduling and Buffer Management in Internet Routers. INFOCOM 2002
2460 Ari Trachtenberg, David Starobinski, Sachin Agarwal: Fast PDA Synchronization Using Characteristic Polynomial Interpolation. INFOCOM 2002
2459 Parijat Dube, Eitan Altman: Fluid Analysis of Early Message Discarding Policy under Heavy Traffic. INFOCOM 2002
2458 Ramaprabhu Janakiraman, Marcel Waldvogel, Lihao Xu: Fuzzycast: Efficient Video-on-demand over Multicast. INFOCOM 2002
2457 Sem C. Borst, Michel Mandjes, Miranda van Uitert: GPS Queues with Heterogeneous Traffic Classes. INFOCOM 2002
2456 Petteri Mannersalo, Ilkka Norros: GPS schedulers and Gaussian traffic. INFOCOM 2002
2455 Zygmunt J. Haas, Joseph Y. Halpern, Erran L. Li: Gossip-based ad hoc routing. INFOCOM 2002
2454 Paul Judge, Mostafa H. Ammar: Gothic: A Group Access Control Architecture for Secure Multicast and Anycast. INFOCOM 2002
2453 Brian Towles, William J. Dally: Guaranteed Scheduling for Switches with Configuration Overhead. INFOCOM 2002
2452 Alexander Kesselman, Yishay Mansour: Harmonic Buffer Management Policy for Shared Memory Switches. INFOCOM 2002
2451 Jun Wang, Klara Nahrstedt: Hop-by-Hop Routing Algorithms For Premium-class Traffic in DiffServ Networks. INFOCOM 2002
2450 Beichuan Zhang, Sugih Jamin, Lixia Zhang: Host Multicast: A Framework for Delivering Multicast To End Users. INFOCOM 2002
2449 Sanjay Shakkottai, Rayadurgam Srikant: How Good are Deterministic Fluid Models of Internet Congestion Control? INFOCOM 2002
2448 Hisao Kameda: How Harmful the Paradox Can Be in the Braess/Cohen-Kelly-Jeffries Networks. INFOCOM 2002
2447 Jörn Altmann, Huw Oliver, Hans Daanen, Alfonso Sanchez-Beato Suarez: How to market-manage a QoS network. INFOCOM 2002
2446 Andrea Detti, Marco Listanti: Impact of Segments Aggregation on TCP Reno Flows in Optical Burst Switching Networks. INFOCOM 2002
2445 Ramón Cáceres, Nick G. Duffield, Timur Friedman: Impromptu Measurement Infrastructures using RTP. INFOCOM 2002
2444 Dan Pei, Xiaoliang Zhao, Lan Wang, Daniel Massey, Allison Mankin, Shyhtsun Felix Wu, Lixia Zhang: Improving BGP Convergence Through Consistency Assertions. INFOCOM 2002
2443 Waël Noureddine, Fouad A. Tobagi: Improving the Performance of Interactive TCP Applications using Service Differentiation. INFOCOM 2002
2442 Dmitri Loguinov, Hayder Radha: Increase-Decrease Congestion Control for Real-time Streaming: Scalability. INFOCOM 2002
2441 Malgorzata Steinder, Adarshpal S. Sethi: Increasing robustness of fault localization through analysis of lost, spurious, and positive symptoms. INFOCOM 2002
2440 Ying Xu, Roch Guérin: Individual QoS versus Aggregate QoS: A Loss Performance Study. INFOCOM 2002
2439 Azer Bestavros, John W. Byers, Khaled Harfoush: Inference and Labeling of Metric-Induced Network Topologies. INFOCOM 2002
2438 Dirk Abendroth, Ulrich Killat: Intelligent Shaping: Well Shaped throughout the entire Network? INFOCOM 2002
2437 Xiaodong Wang, Zigang Yang: Joint Mobility Tracking and Hard Handoff in Cellular Networks via Sequential Monte Carlo Fitlering. INFOCOM 2002
2436 Tamer A. ElBatt, Anthony Ephremides: Joint Scheduling and Power Control for Wireless Ad-hoc Networks. INFOCOM 2002
2435 Eric Van Hensbergen, Athanasios E. Papathanasiou: KNITS: Switch-based Connection Hand-off. INFOCOM 2002
2434 Yinglian Xie, David R. O'Hallaron: Locality in Search Engine Queries and Its Implications for Caching. INFOCOM 2002
2433 Sanket Nesargi, Ravi Prakash: MANETconf: Configuration of Hosts in a Mobile Ad Hoc Network. INFOCOM 2002
2432 Isaac Keslassy, Nick McKeown: Maintaining Packet Order In Two-stage Switches. INFOCOM 2002
2431 Leandros Tassiulas, Saswati Sarkar: Maxmin fair scheduling in wireless networks. INFOCOM 2002
2430 Vincenzo Liberatore: Multicast Scheduling for List Requests. INFOCOM 2002
2429 Yanping Zhao, Derek L. Eager, Mary K. Vernon: Network Bandwidth Requirements for Scalable On-Demand Streaming. INFOCOM 2002
2428 Damien Magoni, Jean-Jacques Pansiot: Network Layer Search Service Using Oriented Multicasting. INFOCOM 2002
2427 Eyad H. Abed, Priya Ranjan: Nonlinear Instabilities in TCP-RED. INFOCOM 2002
2426 Stefano Salsano, Fabio Ricciato, Marco Listanti, Angelo Belmonte: Off-line Configuration of a MPLS over WDM Network under Time-Varying Offered Traffic. INFOCOM 2002
2425 Tian Bu, Donald F. Towsley: On Distinguishing between Internet Power Law Topology Generators. INFOCOM 2002
2424 Yuan Gao, Guanghui He, Jennifer C. Hou: On Exploiting Traffic Predictability in Active Queue Management. INFOCOM 2002
2423 John G. Apostolopoulos, Tina Wong, Susie J. Wee, Daniel Tan: On Multiple Description Streaming with Content Delivery Networks. INFOCOM 2002
2422 Jim Martin, Arne A. Nilsson: On Service Level Agreements for IP Networks. INFOCOM 2002
2421 Hongsik Choi, Suresh Subramaniam, Hyeong-Ah Choi: On double-link failure recovery in WDM optical networks. INFOCOM 2002
2420 Emilio Leonardi, Marco Mellia, Marco Ajmone Marsan, Fabio Neri: On the Throughput Achievable by Isolated and Interconnected Input-Queueing Switches under Multiclass Traffic. INFOCOM 2002
2419 Michael Gastpar, Martin Vetterli: On the capacity of wireless networks: The relay case. INFOCOM 2002
2418 Cesar A. Santivanez, A. Bruce McDonald, Ioannis Stavrakakis, Ram Ramanathan: On the scalability of ad hoc routing protocols. INFOCOM 2002
2417 Juan A. Garay, Joseph Naor, Bülent Yener, Peng Zhao: On-line Admission Control and Packet Scheduling with Interleaving. INFOCOM 2002
2416 Qing Tian, Donald C. Cox: On-line Profile Replication for Hierarchical Mobility Management in PCS Networks. INFOCOM 2002
2415 Rajeev Rastogi, Yuri Breitbart, Minos N. Garofalakis, Amit Kumar: Optimal Configuration of OSPF Aggregates. INFOCOM 2002
2414 Alvin Fu, Eytan Modiano, John N. Tsitsiklis: Optimal Energy Allocation and Admission Control for Communications Satellites. INFOCOM 2002
2413 Mainak Chatterjee, Sajal K. Das: Optimal MAC State Switching for cdma2000 Networks. INFOCOM 2002
2412 Bing Wang, Subhabrata Sen, Micah Adler, Donald F. Towsley: Optimal Proxy Cache Allocation for Efficient Streaming Media Distribution. INFOCOM 2002
2411 Vikram Srinivasan, Carla-Fabiana Chiasserini, Pavan Nuggehalli, Ramesh R. Rao: Optimal Rate Allocation and Traffic Splits for Energy Efficient Routing in Ad Hoc Networks. INFOCOM 2002
2410 Sara Alouf, Eitan Altman, Philippe Nain: Optimal on-line estimation of the size of a dynamic multicast group. INFOCOM 2002
2409 Marco Ajmone Marsan, Carla-Fabiana Chiasserini, Antonio Nucci, Giuliana Carello, Luigi De Giovanni: Optimizing the Topology of Bluetooth Wireless Personal Area Networks. INFOCOM 2002
2408 Jean-Yves Le Boudec, Anna Charny: Packet Scale Rate Guarantee for non-FIFO Nodes. INFOCOM 2002
2407 Nir Naaman, Raphael Rom: Packet Scheduling with Fragmentation. INFOCOM 2002
2406 Ching-Fang Hsu, Te-Lung Liu, Nen-Fu Huang: Performance Analysis of Deflection Routing in Optical Burst-Switched Networks. INFOCOM 2002
2405 Tracy Camp, Jeff Boleng, Brad Williams, William Navidi, Lucas Wilcox: Performance Comparison of Two Location Based Routing Protocols for Ad Hoc Networks. INFOCOM 2002
2404 Sajal K. Das, Sanjoy K. Sen, Naveen K. Kakani: Performance Optimization of VoIP Calls over Wireless Links Using H323 Protocol. INFOCOM 2002
2403 Haitao Wu, Yong Peng, Keping Long, Shiduan Cheng, Jian Ma: Performance of Reliable Transport Protocol over IEEE 80211 Wireless LAN: Analysis and Enhancement. INFOCOM 2002
2402 Xiaohua Jia, Ding-Zhu Du, Xiao-Dong Hu, Hejiao Huang, Deying Li: Placement of Wavelength Converters for Minimal Wavelength Usage in WDM Networks. INFOCOM 2002
2401 Sarut Vanichpun, Armand M. Makowski: Positive correlations and buffer occupancy: Lower bound via supermodular ordering. INFOCOM 2002
2400 Michael J. Neely, Eytan Modiano, Charles E. Rohrs: Power and Server Allocation in a Multi-Beam Satellite with Time Varying Channels. INFOCOM 2002
2399 Savvas Gitzenis, Nicholas Bambos: Power-Controlled Data Prefetching/Caching in Wireless Packet Networks. INFOCOM 2002
2398 Yu-Chee Tseng, Chih-Shun Hsu, Ten-Yueng Hsieh: Power-Saving Protocols for IEEE 80211-Based Multi-Hop Ad Hoc Networks. INFOCOM 2002
2397 T. S. Eugene Ng, Hui Zhang: Predicting Internet Network Distance with Coordinates-Based Approaches. INFOCOM 2002
2396 Mukul Goyal, Roch Guérin, Raju Rajan: Predicting TCP Throughput From Non-invasive Network Sampling. INFOCOM 2002
2395 Peter Marbach: Priority Service and Max-Min Fairness. INFOCOM 2002
2394 Sean C. Rhea, John Kubiatowicz: Probabilistic Location and Routing. INFOCOM 2002
2393 Ming Zhang, Randolph Y. Wang, Larry L. Peterson, Arvind Krishnamurthy: Probabilistic Packet Scheduling: Achieving Proportional Share Bandwidth Allocation for TCP Flows. INFOCOM 2002
2392 Yossi Chait, C. V. Hollot, Vishal Misra, Donald F. Towsley, Honggang Zhang, John C. S. Lui: Providing Throughput Differentiation for TCP Flows Using Adaptive TwoColor Marking and Multi-Level AQM. INFOCOM 2002
2391 Venugopalan Ramasubramanian, Ranveer Chandra, Daniel Mossé: Providing a Bidirectional Abstraction for Unidirectional AdHoc Networks. INFOCOM 2002
2390 Jussara M. Almeida, Derek L. Eager, Michael C. Ferris, Mary K. Vernon: Provisioning Content Distribution Networks for Streaming Media. INFOCOM 2002
2389 John Wroclawski, Christophe Diot, Christian Huitema, Edward W. Knightly: QoS Research in a Complicated World. INFOCOM 2002
2388 David Julian, Mung Chiang, Daniel O'Neill, Stephen P. Boyd: QoS and Fairness Constrained Convex Optimization of Resource Allocation for Wireless Cellular and Ad Hoc Networks. INFOCOM 2002
2387 Chenxi Zhu, M. Scott Corson: QoS routing for mobile ad hoc networks. INFOCOM 2002
2386 Davor Obradovic: Real-time Model and Convergence Time of BGP. INFOCOM 2002
2385 Yoav Nebat, Moshe Sidi: Resequencing Considerations in Parallel Downloads. INFOCOM 2002
2384 Shakheela H. Marikar, Luiz A. DaSilva: Resource Management in Third Generation Mobile Communication Systems Employing Smart Antennas. INFOCOM 2002
2383 Predrag R. Jelenkovic, Petar Momcilovic: Resource Sharing with Subexponential Distributions. INFOCOM 2002
2382 Giuseppe F. Italiano, Rajeev Rastogi, Bülent Yener: Restoration Algorithms for Virtual Private Networks in the Hose Model. INFOCOM 2002
2381 Tamer Basar, Rayadurgam Srikant: Revenue-maximizing pricing and capacity expansion in a many-users regime. INFOCOM 2002
2380 Koushik Kar, Murali S. Kodialam, T. V. Lakshman: Routing Restorable Bandwidth Guaranteed Connections using Maximum 2-Route Flows. INFOCOM 2002
2379 Dirceu Cavendish, Bhaskar Sengupta: Routing and Wavelength Assignment in WDM Rings with Heterogeneous Wavelength Conversion Capabilities. INFOCOM 2002
2378 Sherlia Shi, Jonathan S. Turner: Routing in Overlay Multicast Networks. INFOCOM 2002
2377 Bo Wen, Krishna M. Sivalingam: Routing, Wavelength and Time-Slot Assignment in Time Division Multiplexed Wavelength-Routed Optical WDM Networks. INFOCOM 2002
2376 Jun Li, Jelena Mirkovic, Mengqiu Wang, Peter L. Reiher, Lixia Zhang: SAVE: Source Address Validity Enforcement Protocol. INFOCOM 2002
2375 Gahng-Seop Ahn, Li-Hsiang Sun, Andras Veres, Andrew T. Campbell: SWAN: Service Differentiation in Stateless Wireless Ad Hoc Networks. INFOCOM 2002
2374 David E. Taylor, John W. Lockwood, Todd S. Sproull, Jonathan S. Turner, David B. Parlour: Scalable IP Lookup for Programmable Routers. INFOCOM 2002
2373 Reuven Cohen, Liran Katzir, Danny Raz: Scheduling Algorithms for a Cache Pre-Filling Content Distribution Network. INFOCOM 2002
2372 Prashanth Pappu, Tilman Wolf: Scheduling Processing Resources in Programmable Routers. INFOCOM 2002
2371 Will Ivancic, David Wagner, Aviel D. Rubin, Paul Ratazzi, James P. G. Sterbenz: Securing Wireless and Mobile Networks - Is It Possible? INFOCOM 2002
2370 Ion Stoica, Hui Zhang, Scott Shenker: Self-Verifying CSFQ. INFOCOM 2002
2369 Huamin Chen, Prasant Mohapatra: Session-Based Overload Control in QoS-Aware Web Servers. INFOCOM 2002
2368 Michel Mandjes, Werner R. W. Scheinhardt, Debasis Mitra: Simple models of network access, with applications to the design of joint rate and admission control. INFOCOM 2002
2367 Shan-Chieh Yang, Gustavo de Veciana: Size-based Adaptive Bandwidth Allocation: Optimizing the Average QoS for Elastic Flows. INFOCOM 2002
2366 François Baccelli, Bartlomiej Blaszczyszyn, Florent Tournois: Spatial Averages of Downlink Coverage Characteristics in CDMA Networks. INFOCOM 2002
2365 Piet Van Mieghem, Milena Janic: Stability of a Multicast Tree. INFOCOM 2002
2364 Milan Vojnovic, Jean-Yves Le Boudec: Stochastic Analysis of Some Expedited Forwarding Networks. INFOCOM 2002
2363 Eric Bouillet, Jean-François P. Labourdette, George Ellinas, Ramu S. Ramamurthy, Sid Chaudhuri: Stochastic Approaches to Route Shared Mesh Restored Lightpaths in Optical Mesh Networks. INFOCOM 2002
2362 Arzad Alam Kherani, Anurag Kumar: Stochastic Models for Throughput Analysis of Randomly Arriving Elastic Flows in the Internet. INFOCOM 2002
2361 Eitan Altman, Konstantin Avrachenkov, Chadi Barakat: TCP Network Calculus: The case of large delay-bandwidth product. INFOCOM 2002
2360 Sam Liang, David R. Cheriton: TCP-SMO: Extending TCP to Support Medium-Scale Multicast Applications. INFOCOM 2002
2359 Qian Chen, Hyunseok Chang, Ramesh Govindan, Sugih Jamin, Scott Shenker, Walter Willinger: The Origin of Power-Laws in Internet Topologies Revisited. INFOCOM 2002
2358 Fei Hu, Neeraj K. Sharma: The Quantitative Analysis of TCP Congestion Control Algorithm in Third-Generation Cellular Networks Based on FSMC Loss Model and its Performance Enhancement. INFOCOM 2002
2357 Sylvia Ratnasamy, Mark Handley, Richard M. Karp, Scott Shenker: Topologically-Aware Overlay Construction and Server Selection. INFOCOM 2002
2356 Paolo Giaccone, Balaji Prabhakar, Devavrat Shah: Towards Simple, High-performance Schedulers for High-aggregate Bandwidth Switches. INFOCOM 2002
2355 Danlu Zhang, Kimberly M. Wasserman: Transmission schemes for time-varying wireless channels with partial state observations. INFOCOM 2002
2354 Yuval Shavitt, David Breitgand, Danny Raz: Travelling Miser Problem. INFOCOM 2002
2353 Masayuki Murata, Ken-ichi Kitayama: Ultrafast Photonic Label Switch for Asynchronous Packets of Variable Length. INFOCOM 2002
2352 Albert Banchs: User Fair Queing: Fair Allocation of Bandwidth for Users. INFOCOM 2002
2351 Hui Zhang, Ashish Goel, Ramesh Govindan: Using the Small-World Model to Improve Freenet Performance. INFOCOM 2002
2350 Sergio D. Servetto, Rohit Puri, Jean-Paul Wagner, Pierre Scholtes, Martin Vetterli: Video Multicast in (Large) Local Area Networks. INFOCOM 2002
2349 Aysegül Gençata, Biswanath Mukherjee: Virtual-Topology Adaptation for WDM Mesh Networks Under Dynamic Traffic. INFOCOM 2002
2348 Achille Pattavina, Guido Maier, Massimo Tornatore: WDM Network Optimization by ILP Based on Source Formulation. INFOCOM 2002
2347 Martin Maier, Michael Scheutzow, Martin Reisslein, Adam Wolisz: Wavelength Reuse for Efficient Transport of Variable-Size Packets in a Metro WDM Network. INFOCOM 2002
2346 Yigal Bejerano, Israel Cidon: Efficient Location Management Based on Moving Location Areas. INFOCOM 2001:3-12
2345 Ilker Demirkol, Cem Ersoy, M. Ufuk Çaglayan, Hakan Deliç: Location Area Planning in Cellular Networks Using Simulated Annealing. INFOCOM 2001:13-20
2344 Hsiao-Kuang Wu, Ming-Hui Jin, Jorng-Tzong Horng: Personal Paging Area Design Based On Mobiles Moving Behaviors. INFOCOM 2001:21-30
2343 Sugih Jamin, Cheng Jin, Anthony R. Kurc, Danny Raz, Yuval Shavitt: Constrained Mirror Placement on the Internet. INFOCOM 2001:31-40
2342 Jonathan T. Moore, Michael W. Hicks, Scott Nettles: Practical Programmable Packets. INFOCOM 2001:41-50
2341 David Craig, Hwangnam Kim, Raghupathy Sivakumar, Vaduvur Bharghavan, Constantine D. Polychronopoulos: NanoProtean: Scalable System Software for a Gigabit Active Router. INFOCOM 2001:51-59
2340 Sumi Choi, Jonathan S. Turner, Tilman Wolf: Configuring Sessions in Programmable Networks. INFOCOM 2001:60-66
2339 Ian A. Pratt, Keir Fraser: Arsenic: A User-Accessible Gigabit Ethernet Interface. INFOCOM 2001:67-76
2338 Yutaka Ishibashi, Shuji Tasaka, Hiroki Ogawa: A Comparison of Media Synchronization Quality among Reactive Control Schemes. INFOCOM 2001:77-84
2337 Sridhar Ramesh, Injong Rhee, Katherine Guo: Multicast with Cache (Mcache): An Adaptive Zero Delay Video-on-Demand Service. INFOCOM 2001:85-94
2336 Jack Brassil, Henning Schulzrinne: Enhancing Internet Streaming Media with Cueing Protocols. INFOCOM 2001:95-103
2335 Nathaniel E. Baughman, Brian Neil Levine: Cheat-proof Playout for Centralized and Distributed Online Games. INFOCOM 2001:104-113
2334 Jin Tang, Giacomo Morabito, Ian F. Akyildiz, Marjory J. Johnson: RCS: A Rate Control Scheme for Real-Time Traffic in Networks with High Bandwidth-Delay Products and High Bit Error Rates. INFOCOM 2001:114-122
2333 Koushik Kar, Saswati Sarkar, Leandros Tassiulas: Optimization Based Rate Control for Multirate Multicast Sessions. INFOCOM 2001:123-132
2332 Koushik Kar, Saswati Sarkar, Leandros Tassiulas: A Simple Rate Control Algorithm for Maximizing Total User Utility. INFOCOM 2001:133-141
2331 Jian-Hao Hu, Kwan Lawrence Yeung: FDA: A Novel Base Station Flow Control Scheme for TCP over Heterogeneous Networks. INFOCOM 2001:142-151
2330 Neil Geary, Andreas Antonopoulos, Elias Drakopoulos, John O'Reilly: Analysis Of Optimisation Issues In Multi-Period DWDM Network Planning. INFOCOM 2001:152-158
2329 Guido Maier, Achille Pattavina: Generalized Space-Equivalent Analysis of Optical Cross-Connect Architectures. INFOCOM 2001:159-168
2328 Hwa-Chun Lin, Chun-Hsin Wang: A Hybrid Multicast Scheduling Algorithm for Single-Hop WDM Networks. INFOCOM 2001:169-178
2327 R. Srinivasan, Arun K. Somani: A Generalized Framework for Analyzing Time-Space Switched Optical Networks. INFOCOM 2001:179-188
2326 Asimakis Tzamaloukas, J. J. Garcia-Luna-Aceves: A Receiver-Initiated Collision-Avoidance Protocol for Multi-Channel Networks. INFOCOM 2001:189-198
2325 Sunil Kandukuri, Nicholas Bambos: Multimodal Dynamic Multiple Access (MDMA) in Power Controlled Wireless Packet Networks. INFOCOM 2001:199-208
2324 Imad Aad, Claude Castelluccia: Differentiation Mechanisms for IEEE 80211. INFOCOM 2001:209-218
2323 Jeffrey P. Monks, Vaduvur Bharghavan, Wen-mei W. Hwu: A Power Controlled Multiple Access Protocol for Wireless Packet Networks. INFOCOM 2001:219-228
2322 Pavlin Radoslavov, Christos Papadopoulos, Ramesh Govindan, Deborah Estrin: A Comparison of Application-Level and Router-Assisted Hierarchical Schemes for Reliable Multicast. INFOCOM 2001:229-238
2321 Zhen Xiao, Kenneth P. Birman: A Randomized Error Recovery Algorithm for Reliable Multicast. INFOCOM 2001:239-248
2320 Chee Kheong Siew, Gang Feng: Efficient Setup for Multicast Connections Using Tree-Caching. INFOCOM 2001:249-258
2319 Michael J. Donahoo, Sunila R. Ainapure: Scalable Multicast Representative Member Selection. INFOCOM 2001:259-268
2318 Miranda van Uitert, Sem C. Borst: Generalised Processor Sharing Networks Fed by Heavy-tailed Traffic Flows. INFOCOM 2001:269-278
2317 Bert Zwart, Sem C. Borst, Michel Mandjes: Exact Queueing Asymptotics for Multiple Heavy-Tailed On-Off Flows. INFOCOM 2001:279-288
2316 Predrag R. Jelenkovic, Petar Momcilovic: Capacity Regions for Network Multiplexers with Heavy-tailed Fluid On-off Sources. INFOCOM 2001:289-298
2315 Constantinos Kotopoulos, Nikolay B. Likhanov, Ravi Mazumdar: Asymptotic Analysis of the GPS System Fed by Heterogeneous Long-tailed Sources. INFOCOM 2001:299-308
2314 Rajesh Krishna Balan, Boon Peng Lee, K. R. Renjish Kumar, Lillykutty Jacob, Winston Khoon Guan Seah, Akkihebbal L. Ananda: TCP HACK: TCP Header Checksum Option to Improve Performance over Lossy Links. INFOCOM 2001:309-318
2313 Gary T. Wong, Matti A. Hiltunen, Richard D. Schlichting: A Configurable and Extensible Transport Protocol. INFOCOM 2001:319-328
2312 Lorenzo Alvisi, Thomas C. Bressoud, Ayman El-Khashab, Keith Marzullo, Dmitrii Zagorodnov: Wrapping Server-Side TCP to Mask Connection Failures. INFOCOM 2001:329-337
2311 Heejo Lee, Kihong Park: On the Effectiveness of Probabilistic Packet Marking for IP Traceback under Denial of Service Attack. INFOCOM 2001:338-347
2310 Eytan Modiano, Aradhana Narula-Tam: Survivable Routing of Logical Topologies in WDM Networks. INFOCOM 2001:348-357
2309 Murali S. Kodialam, T. V. Lakshman: Integrated Dynamic IP and Wavelength Routing in IP over WDM Networks. INFOCOM 2001:358-366
2308 Steven Lumetta, Muriel Médard: Towards a Deeper Understanding of Link Restoration Algorithms for Mesh Networks. INFOCOM 2001:367-375
2307 Murali S. Kodialam, T. V. Lakshman: Dynamic Routing of Locally Restorable Bandwidth Guaranteed Tunnels Using Aggregated Link Usage Information. INFOCOM 2001:376-385
2306 Balaji Prabhakar, Elif Uysal-Biyikoglu, Abbas El Gamal: Energy-efficient Transmission over a Wireless Link via Lazy Packet Scheduling. INFOCOM 2001:386-394
2305 Sennur Ulukus, Ezio Biglieri, Moe Z. Win: Optimum Modulation and Multicode Formats in CDMA Systems with Multiuser Receivers. INFOCOM 2001:395-402
2304 Chenxi Zhu, M. Scott Corson: A Distributed Channel Probing Scheme for Wireless Networks. INFOCOM 2001:403-411
2303 Mingbo Xiao, Ness B. Shroff, Edwin K. P. Chong: Utility-Based Power Control (UBPC) in Cellular Wireless Systems. INFOCOM 2001:412-421
2302 Jack Snoeyink, Subhash Suri, George Varghese: A Lower Bound for Multicast Key Distribution. INFOCOM 2001:422-431
2301 Pasi E. Lassila, Jouni Karvo, Jorma T. Virtamo: Efficient Importance Sampling for Monte Carlo Simulation of Multicast Networks. INFOCOM 2001:432-439
2300 Reuven Cohen, Gideon Kaempfer: A Unicast-based Approach for Streaming Multicast. INFOCOM 2001:440-448
2299 Robert C. Chalmers, Kevin C. Almeroth: Modeling the Branching Characteristics and Efficiency Gains of Global Multicast Trees. INFOCOM 2001:449-458
2298 Costas Courcoubetis, Antonis Dimakis, Martin I. Reiman: Providing Bandwidth Guarantees over a Best-effort Network: Call-admission and Pricing. INFOCOM 2001:459-467
2297 Nandita Dukkipati, Joy Kuri, H. S. Jamadagni: Optimal Call Admission Control in Generalized Processor Sharing (GPS) Schedulers. INFOCOM 2001:468-477
2296 Teck Kiong Lee, Moshe Zukerman, Ron Addie: Admission Control Schemes for Bursty Multimedia Traffic. INFOCOM 2001:478-487
2295 Malathi Veeraraghavan, Nabeel Cocker, Tim Moors: Support of Voice Services in IEEE 80211 Wireless LANs. INFOCOM 2001:488-497
2294 Antoine Clerget, Walid Dabbous: TUF : Tag-based Unified Fairness. INFOCOM 2001:498-507
2293 Ailan Hu: Video-on-Demand Broadcasting Protocols: a Comprehensive Study. INFOCOM 2001:508-517
2292 Fei Yu, Victor C. M. Leung: Mobility-Based Predictive Call Admission Control and Bandwidth Reservation in Wireless Cellular Networks. INFOCOM 2001:518-526
2291 Krishnan Kumaran, Michel Mandjes: Multiplexing Regulated Traffic Streams: Design and Performance. INFOCOM 2001:527-536
2290 Craig Labovitz, Abha Ahuja, Roger Wattenhofer, Venkatachary Srinivasan: The Impact of Internet Policy and Topology on Delayed Routing Convergence. INFOCOM 2001:537-546
2289 Lixin Gao, Timothy Griffin, Jennifer Rexford: Inherently Safe Backup Routing with BGP. INFOCOM 2001:547-556
2288 Srinivas Vutukury, J. J. Garcia-Luna-Aceves: MDVA: A Distance-Vector Multipath Routing Protocol. INFOCOM 2001:557-564
2287 Yufei Wang, Zheng Wang, Leah Zhang: Internet Traffic Engineering without Full Mesh Overlaying. INFOCOM 2001:565-571
2286 Wee-Seng Soh, Hyong S. Kim: Dynamic Guard Bandwidth Scheme for Wireless Broadband Networks. INFOCOM 2001:572-581
2285 Michael G. Barry, Andrew T. Campbell, Andras Veres: Distributed Control Algorithms for Service Differentiation in Wireless Packet Networks. INFOCOM 2001:582-590
2284 Rajeev Shorey, Abhishek Das, Ashu Razdan, Abhishek Ghose, Huzur Saran: Enhancing Performance of Asynchronous Data Traffic over the Bluetooth Wireless Ad-hoc Network. INFOCOM 2001:591-600
2283 Gulshan Karmani, Kumar N. Sivarajan: Capacity Evaluation for CDMA Cellular Networks. INFOCOM 2001:601-610
2282 Olivier Verscheure, Pascal Frossard, Jean-Yves Le Boudec: Joint Smoothing and Source Rate Selection for Guaranteed Service Networks. INFOCOM 2001:613-620
2281 Pål Halvorsen, Thomas Plagemann, Vera Goebel: Integrated Error Management for Media-on-Demand Services. INFOCOM 2001:621-630
2280 Deepak Bansal, Hari Balakrishnan: Binomial Congestion Control Algorithms. INFOCOM 2001:631-640
2279 Samir Mohamed, Francisco Cervantes-Pérez, Hossam Afifi: Integrating Networks Measurements and Speech Quality Subjective Scores for Control Purposes. INFOCOM 2001:641-649
2278 Peter Marbach: Pricing Differentiated Services Networks: Bursty Traffic. INFOCOM 2001:650-658
2277 Fang Hao, Ellen W. Zegura, Mostafa H. Ammar: Supporting Server Selection in Differentiated Service Networks. INFOCOM 2001:659-668
2276 Shengquan Wang, Dong Xuan, Riccardo Bettati, Wei Zhao: Providing Absolute Differentiated Services for Real-Time Application in Static-Priority Scheduling Networks. INFOCOM 2001:669-678
2275 Huican Zhu, Hong Tang, Tao Yang: Demand-driven Service Differentiation in Cluster-based Network Servers. INFOCOM 2001:679-688
2274 Leonidas Georgiadis, Panos Georgatsos, Kostas Floros, Stelios Sartzetakis: Lexicographically Optimal Balanced Networks. INFOCOM 2001:689-698
2273 Yu Liu, David Tipper, Peerapon Siripongwutikorn: Approximating Optimal Spare Capacity Allocation by Successive Survivable Routing. INFOCOM 2001:699-708
2272 Guy Fayolle, Arnaud de La Fortelle, Jean-Marc Lasgouttes, Laurent Massoulié, James Roberts: Best-effort Networks: Modeling and Performance Analysis via Large Networks Asymptotics. INFOCOM 2001:709-716
2271 Jordi Ros, Wei Kang Tsai: A Theory of Convergence Order of Maxmin Rate Allocation and an Optimal Protocol. INFOCOM 2001:717-726
2270 João L. Sobrinho: Algebra and Algorithms for QoS Path Computation and Hop-by-Hop Routing in the Internet. INFOCOM 2001:727-735
2269 Hongsuda Tangmunarunkit, Ramesh Govindan, Scott Shenker, Deborah Estrin: The Impact of Routing Policy on Internet Paths. INFOCOM 2001:736-742
2268 Gang Liu, K. G. Ramakrishnan: A*prune: An Algorithm for Finding K Shortest Paths Subject to Multiple Constraints. INFOCOM 2001:743-749
2267 Hong-Hsu Yen, Frank Yeong-Sung Lin: Near-optimal Delay Constrained Routing in Virtual Circuit Networks. INFOCOM 2001:750-756
2266 Iordanis Koutsopoulos, Leandros Tassiulas: Channel State-Adaptive Techniques for Throughput Enhancement in Wireless Broadband Networks. INFOCOM 2001:757-766
2265 Zohar Naor, Hanoch Levy: A Centralized Dynamic Access Probability Protocol for next Genreration Wireless Networks. INFOCOM 2001:767-775
2264 Xin Liu, Edwin K. P. Chong, Ness B. Shroff: Transmission Scheduling for Efficient Wireless Network Utilization. INFOCOM 2001:776-785
2263 Supratim Deb, Manika Kapoor, Abhinanda Sarkar: Error Avoidance In Wireless Networks Using Link State History. INFOCOM 2001:786-795
2262 Eitan Altman, Chadi Barakat, Víctor M. Ramos R.: Queueing Analysis of Simple FEC Schemes for IP Telephony. INFOCOM 2001:796-804
2261 Fabrice Poppe, Danny De Vleeschauwer, Guido H. Petit: Choosing the UMTS Air Interface Parameters, the Voice Packet Size and the Dejittering Delay for a Voice-over-IP Call between a UMTS and a PSTN Party. INFOCOM 2001:805-814
2260 Wen-Tsai Liao, Janet J.-C. Chen, Ming-Syan Chen: Adaptive Recovery Techniques for Real-Time Audio Streams. INFOCOM 2001:815-823
2259 Mansour J. Karam, Fouad A. Tobagi: Analysis of the Delay and Jitter of Voice Traffic Over the Internet. INFOCOM 2001:824-833
2258 Turgay Korkmaz, Marwan Krunz: Multi-Constrained Optimal Path Selection. INFOCOM 2001:834-843
2257 Xin Yuan, Xingming Liu: Heuristic Algorithms for Multi-Constrained Quality of Service Routing. INFOCOM 2001:844-853
2256 Ashish Goel, K. G. Ramakrishnan, Deepak Kataria, Dimitris Logothetis: Efficient Computation of Delay-sensitive Routes from One Source to All Destinations. INFOCOM 2001:854-858
2255 Alpár Jüttner, Balázs Szviatovszki, Ildikó Mécs, Zsolt Rajkó: Lagrange Relaxation Based Method for the QoS Routing Problem. INFOCOM 2001:859-868
2254 Paul S. Henry, Hui Luo: Off-the-record Email System. INFOCOM 2001:869-877
2253 Dawn Xiaodong Song, Adrian Perrig: Advanced and Authenticated Marking Schemes for IP Traceback. INFOCOM 2001:878-886
2252 Yu-Chee Tseng, Hsiang-Kuang Pan: Secure and Invisible Data Hiding in 2-Color Images. INFOCOM 2001:887-896
2251 Howard M. Heys: An Analysis of the Statistical Self-Synchronization of Stream Ciphers. INFOCOM 2001:897-904
2250 Constantinos Dovrolis, Parameswaran Ramanathan, David Moore: What Do Packet Dispersion Techniques Measure? INFOCOM 2001:905-914
2249 Nick G. Duffield, Francesco Lo Presti, Vern Paxson, Donald F. Towsley: Inferring Link Loss Using Striped Unicast Probes. INFOCOM 2001:915-923
2248 Do Young Eun, Ness B. Shroff: A Measurement-Analytic Framework for QoS Estimation Based on the Dominant Time Scale. INFOCOM 2001:924-932
2247 Yuri Breitbart, Chee Yong Chan, Minos N. Garofalakis, Rajeev Rastogi, Abraham Silberschatz: Efficiently Monitoring Bandwidth and Latency in IP Networks. INFOCOM 2001:933-942
2246 Xin Wang, Henning Schulzrinne: Pricing Network Resources for Adaptive Applications in a Differentiated Services Network. INFOCOM 2001:943-952
2245 Jörn Altmann, Karyen Chu: A Proposal for a Flexible Service Plan that Is Attrative to Users and Internet Service Providers. INFOCOM 2001:953-958
2244 Ayalvadi J. Ganesh, Koenraad Laevens, Richard Steinberg: Congestion Pricing and User Adaptation. INFOCOM 2001:959-965
2243 Kaliappa Nadar Ravindran, Ali Sabbir, Dmitri Loguinov, Gary S. Bloom: Cost Optimal Multicast Trees for Multi-source Data Flows. INFOCOM 2001:966-975
2242 Sem C. Borst, Philip A. Whiting: Dynamic Rate Control Algorithms for CDMA Throughput Optimization. INFOCOM 2001:976-985
2241 Pai-Hsiang Hsiao, Adon Hwang, H. T. Kung, Dario Vlah: Load Balancing Routing for Wireless Access Networks. INFOCOM 2001:986-995
2240 Carla-Fabiana Chiasserini, Ramesh R. Rao: Combining Paging with Dynamic Power Management. INFOCOM 2001:996-1004
2239 Kenneth Mitchell, Khosrow Sohraby: An Analysis of the Effects of Mobility on Bandwidth Allocation Strategies in Multi-Class Cellular Wireless Networks. INFOCOM 2001:1005-1011
2238 Mark Dilman, Danny Raz: Efficient Reactive Monitoring. INFOCOM 2001:1012-1019
2237 Gautam Kar, Alexander Keller: An Architecture for Managing Application Services over Global Networks. INFOCOM 2001:1020-1027
2236 Suman Banerjee, Samir Khuller: A Clustering Scheme for Hierarchical Control in Multi-hop Wireless Networks. INFOCOM 2001:1028-1037
2235 Omer Gurewitz, Moshe Sidi: Estimating One-way Delays from Cyclic-Path Delay Measurements. INFOCOM 2001:1038-1044
2234 Sara Alouf, Philippe Nain, Donald F. Towsley: Inferring Network Characteristics via Moment-Based Estimators. INFOCOM 2001:1045-1054
2233 Michael J. Neely, Eytan Modiano: Convexity and Optimal Load Distributions in Work Conserving */*/1 Queues. INFOCOM 2001:1055-1064
2232 Reza Jafari, Khosrow Sohraby: Combined M/G/1-G/M/1 Type Structured Chains: A Simple Algorithmic Solution and Applications. INFOCOM 2001:1065-1074
2231 JiaFu He, Khosrow Sohraby: A New Analysis Framework for Discrete Time Queueing Systems with General Stochastic Sources. INFOCOM 2001:1075-1084
2230 Marco Ajmone Marsan, Andrea Bianco, Paolo Giaccone, Emilio Leonardi, Fabio Neri: Packet Scheduling in Input-Queued Cell-Based Switches. INFOCOM 2001:1085-1094
2229 Emilio Leonardi, Marco Mellia, Fabio Neri, Marco Ajmone Marsan: Bounds on Average Delays and Queue Size Averages and Variances in Input-Queued Cell-Based Switches. INFOCOM 2001:1095-1103
2228 Thomas Bonald, Alexandre Proutiére, James W. Roberts: Statistical Guarantees for Streaming Flows Using Expedited Forwarding. INFOCOM 2001:1104-1112
2227 Vijay Sivaraman, Fabio M. Chiussi, Mario Gerla: End-to-End Statistical Delay Service under GPS and EDF Scheduling: A Comparison Study. INFOCOM 2001:1113-1122
2226 Saswati Sarkar, Leandros Tassiulas: Back Pressure Based Multicast Scheduling for Fair Bandwidth Allocation. INFOCOM 2001:1123-1132
2225 Augustin Chaintreau, François Baccelli, Christophe Diot: Impact of Network Delay Variation on Multicast Session Performance With TCP-like Congestion Control. INFOCOM 2001:1133-1142
2224 John W. Byers, Michael Luby, Michael Mitzenmacher: Fine-Grained Layered Multicast. INFOCOM 2001:1143-1151
2223 Xi Zhang, Kang G. Shin: Statistical Analysis of Feedback-Synchronization Signaling Delay for Multicast Flow Control. INFOCOM 2001:1152-1161
2222 Peng-Jun Wan, Gruia Calinescu, Xiang-Yang Li, Ophir Frieder: Minimum-Energy Broadcast Routing in Static Ad Hoc Wireless Networks. INFOCOM 2001:1162-1171
2221 Soumya Roy, J. J. Garcia-Luna-Aceves: Using Minimal Source Trees for On-Demand Routing in Ad Hoc Networks. INFOCOM 2001:1172-1181
2220 Tomochika Ozaki, Jaime Bae Kim, Tatsuya Suda: Bandwidth-Efficient Multicast Routing for Multihop, Ad-Hoc Wireless Networks. INFOCOM 2001:1182-1191
2219 Lusheng Ji, M. Scott Corson: Differential Destination Multicast - A MANET Multicast Routing Protocol for Small Groups. INFOCOM 2001:1192-1202
2218 Sandra G. Dykes, Kay A. Robbins: A Viability Analysis of Cooperative Proxy Caching. INFOCOM 2001:1205-1214
2217 Huican Zhu, Tao Yang: Class-based Cache Management for Dynamic Web Content. INFOCOM 2001:1215-1224
2216 Mudashiru Busari, Carey L. Williamson: On the Sensitivity of Web Proxy Cache Performance to Workload Characteristics. INFOCOM 2001:1225-1234
2215 Andy Myers, John Chuang, Urs Hengartner, Yinglian Xie, Weiqiang Zhuang, Hui Zhang: A Secure, Publisher-Centric Web Caching Infrastructure. INFOCOM 2001:1235-1243
2214 Benyuan Liu, Daniel R. Figueiredo, Yang Guo, James F. Kurose, Donald F. Towsley: A Study of Networks Simulation Efficiency: Fluid Simulation vs Packet-level Simulation. INFOCOM 2001:1244-1253
2213 Marwan Krunz: On the Limitations of the Variance-time Test for Inference of Long-range Dependence. INFOCOM 2001:1254-1260
2212 Mircea Agapie, Khosrow Sohraby: Algorithmic Solution to Second-order Fluid Flow. INFOCOM 2001:1261-1270
2211 Gang Wu, Edwin K. P. Chong, Robert Givan: Congestion Control via Online Sampling. INFOCOM 2001:1271-1280
2210 Aleksandar Kuzmanovic, Edward W. Knightly: Measuring Service in Multi-Class Networks. INFOCOM 2001:1281-1289
2209 Martin Karsten, Jens Schmitt, Ralf Steinmetz: Implementation and Evaluation of the KOM RSVP Engine. INFOCOM 2001:1290-1299
2208 Anwar Elwalid, Cheng Jin, Steven H. Low, Indra Widjaja: MATE: MPLS Adaptive Traffic Engineering. INFOCOM 2001:1300-1309
2207 Dmitri Loguinov, Hayder Radha: On Retransmission Schemes for Real-time Streaming in the Internet. INFOCOM 2001:1310-1319
2206 Richard J. La, Venkat Anantharam: Window-Based Congestion Control with Heterogeneous Users. INFOCOM 2001:1320-1329
2205 Srisankar S. Kunniyur, Rayadurgam Srikant: A Time Scale Decomposition Approach to Adaptive ECN Marking. INFOCOM 2001:1330-1339
2204 Biswajit Nandy, Jeremy Ethridge, Abderrahmane Lakas, Alan Chapman: Aggregate Flow Control: Improving Assurances for Differentiated Services Network. INFOCOM 2001:1340-1349
2203 Eitan Altman, Konstantin Avrachenkov, Chadi Barakat, R. Núñez Queija: State-dependent M/G/1 Type Queueing Analysis for Congestion Control in Data Networks. INFOCOM 2001:1350-1359
2202 Matthias Grossglauser, David N. C. Tse: Mobility Increases the Capacity of Ad-hoc Wireless Networks. INFOCOM 2001:1360-1369
2201 Haiyun Luo, Paul Medvedev, Jerry Cheng, Songwu Lu: A Self-Coordinating Approach to Distributed Fair Queueing in Ad Hoc Wireless Networks. INFOCOM 2001:1370-1379
2200 Seapahn Meguerdichian, Farinaz Koushanfar, Miodrag Potkonjak, Mani B. Srivastava: Coverage Problems in Wireless Ad-hoc Sensor Networks. INFOCOM 2001:1380-1387
2199 Roger Wattenhofer, Erran L. Li, Paramvir Bahl, Yi-Min Wang: Distributed Topology Control for Wireless Multihop Ad-hoc Networks. INFOCOM 2001:1388-1397
2198 Edith Cohen, Haim Kaplan: Refreshment Policies for Web Content Caches. INFOCOM 2001:1398-1406
2197 Konstantinos Psounis, Balaji Prabhakar: A Randomized Web-Cache Replacement Scheme. INFOCOM 2001:1407-1415
2196 Hao Che, Zhijun Wang, Ye Tung: Analysis and Design of Hierarchical Web Caching Systems. INFOCOM 2001:1416-1424
2195 Masaki Aida, Tetsuya Abe: Pseudo-Address Generation Algorithm of Packet Destinations for Internet Performance Simulation. INFOCOM 2001:1425-1433
2194 Priyank Ramesh Warkhede, Subhash Suri, George Varghese: Fast Packet Classification for Two-Dimensional Conflict-Free Filters. INFOCOM 2001:1434-1443
2193 Funda Ergün, Suvo Mittra, Süleyman Cenk Sahinalp, Jonathan Sharp, Rakesh K. Sinha: A Dynamic Lookup Scheme for Bursty Access Patterns. INFOCOM 2001:1444-1453
2192 Andrei Z. Broder, Michael Mitzenmacher: Using Multiple Hash Functions to Improve IP Lookups. INFOCOM 2001:1454-1463
2191 Venkatachary Srinivasan: A Packet Classification and Filter Management System. INFOCOM 2001:1464-1473
2190 Patrick Thiran, Jean-Yves Le Boudec, Frederic Worm: Network Calculus Applied to Optimal Smoothing. INFOCOM 2001:1474-1483
2189 Jasleen Kaur, Harrick M. Vin: Core-Stateless Guaranteed Rate Scheduling Algorithms. INFOCOM 2001:1484-1492
2188 Kai Zhu, Yan Zhuang, Yannis Viniotis: Achieving End-to-end Delay Bounds by EDF Scheduling without Traffic Shaping. INFOCOM 2001:1493-1501
2187 Jon C. R. Bennett, Kent Benson, Anna Charny, William F. Courtney, Jean-Yves Le Boudec: Delay Jitter Bounds and Packet Scale Rate Guarantee for Expedited Forwarding. INFOCOM 2001:1502-1509
2186 C. V. Hollot, Vishal Misra, Donald F. Towsley, Weibo Gong: A Control Theoretic Analysis of RED. INFOCOM 2001:1510-1519
2185 Wu-chang Feng, Dilip D. Kandlur, Debanjan Saha, Kang G. Shin: Stochastic Fair Blue: A Queue Management Algorithm for Enforcing Fairness. INFOCOM 2001:1520-1529
2184 Shun Yan Cheung, Corneliu S. Pencea: Pipelined Sections: A New Buffer Management Discipline for Scalable QoS Provision. INFOCOM 2001:1530-1538
2183 Giuseppe Ascia, Vincenzo Catania, Giuseppe Ficili, Daniela Panno: A Fuzzy Buffer Management Scheme For ATM and IP Networks. INFOCOM 2001:1539-1547
2182 Laura Marie Feeney, Martin Nilsson: Investigating the Energy Consumption of a Wireless Network Interface in an Ad Hoc Networking Environment. INFOCOM 2001:1548-1557
2181 Shiann-Tsong Sheu, Tzu-Fang Sheu: DBASE : A Distributed Bandwidth Allocation/Sharing/Extension Protocol for Multimedia over IEEE 80211 Ad Hoc Wireless LAN. INFOCOM 2001:1558-1567
2180 Takahiro Hara: Effective Replica Allocation in Ad Hoc Networks for Improving Data Accessibility. INFOCOM 2001:1568-1576
2179 Theodoros Salonidis, Pravin Bhagwat, Leandros Tassiulas, Richard O. LaMaire: Distributed Topology Construction of Bluetooth Personal Area Networks. INFOCOM 2001:1577-1586
2178 Lili Qiu, Venkata N. Padmanabhan, Geoffrey M. Voelker: On the Placement of Web Server Replicas. INFOCOM 2001:1587-1596
2177 Michael Rabinovich, Hua Wang: DHTTP: An Efficient and Cache-Friendly Transfer Protocol for Web Traffic. INFOCOM 2001:1597-1606
2176 Girish P. Chandranmenon, George Varghese: Reducing Web Latency Using Reference Point Caching. INFOCOM 2001:1607-1616
2175 Xiaoyun Zhu, Jie Yu, John Doyle: Heavy Tails, Generalized Coding, and Optimal Web Layout. INFOCOM 2001:1617-1626
2174 Jangwon Lee, Gustavo de Veciana: Resource and Topology Discovery for IP Multicast Using a Fan-out Decrement Mechanism. INFOCOM 2001:1627-1635
2173 Nick G. Duffield, Joseph Horowitz, Francesco Lo Presti: Adaptive Multicast Topology Inference. INFOCOM 2001:1636-1645
2172 Yuval Shavitt, Xiaodong Sun, Avishai Wool, Bülent Yener: Computing the Unmeasured: An Algebraic Approach to Internet Mapping. INFOCOM 2001:1646-1654
2171 Lance Doherty, Kristofer S. J. Pister, Laurent El Ghaoui: Convex Optimization Methods for Sensor Node Position Estimation. INFOCOM 2001:1655-1663
2170 Marco Ajmone Marsan, Andrea Bianco, Paolo Giaccone, Emilio Leonardi, Fabio Neri: On the Throughput of Input-Queued Cell-Based Switches with Multicast Traffic. INFOCOM 2001:1664-1672
2169 Matthew Andrews, Lisa Zhang: Achieving Stability in Networks of Input-Queued Switches. INFOCOM 2001:1673-1679
2168 Sundar Iyer, Nick McKeown: Making Parallel Packet Switches Practical. INFOCOM 2001:1680-1687
2167 Yihan Li, Shivendra S. Panwar, H. Jonathan Chao: On the Performance of a Dual Round-Robin Switch. INFOCOM 2001:1688-1697
2166 Hans-Peter Schwefel: Behavior of TCP-like Elastic Traffic at a Buffered Bottleneck Router. INFOCOM 2001:1698-1705
2165 Michele Garetto, Renato Lo Cigno, Michela Meo, Marco Ajmone Marsan: A Detailed and Accurate Closed Queueing Network Model of Many Interacting TCP Flows. INFOCOM 2001:1706-1715
2164 Yang Richard Yang, Min Sik Kim, Simon S. Lam: Transient Behaviors of TCP-friendly Congestion Control Protocols. INFOCOM 2001:1716-1725
2163 C. V. Hollot, Vishal Misra, Donald F. Towsley, Weibo Gong: On Designing Improved Controllers for AQM Routers Supporting TCP Flows. INFOCOM 2001:1726-1734
2162 Chunhung Richard Lin: An On-demand QoS Routing Protocol for Mobile Ad Hoc Networks. INFOCOM 2001:1735-1744
2161 Shengming Jiang, Dajiang He, Jianqiang Rao: A Prediction-based Link Availability Estimation for Mobile Ad Hoc Networks. INFOCOM 2001:1745-1752
2160 Rajendra V. Boppana, Satyadeva P. Konduru: An Adaptive Distance Vector Routing Algorithm for Mobile, Ad Hoc Networks. INFOCOM 2001:1753-1762
2159 Prasun Sinha, Raghupathy Sivakumar, Vaduvur Bharghavan: Enhancing Ad Hoc Routing with Dynamic Virtual Infrastructures. INFOCOM 2001:1763-1772
2158 Israel Cidon, Shay Kutten, Ran Soffer: Optimal Allocation of Electronic Content. INFOCOM 2001:1773-1780
2157 Mon-Yen Luo, Chu-Sing Yang: Constructing Zero-loss Web Services. INFOCOM 2001:1781-1790
2156 Jussi Kangasharju, Felix Hartanto, Martin Reisslein, Keith W. Ross: Distributing Layered Encoded Video through Caches. INFOCOM 2001:1791-1800
2155 Anees Shaikh, Renu Tewari, Mukesh Agrawal: On the Effectiveness of DNS-based Server Selection. INFOCOM 2001:1801-1810
2154 Samir Ranjan Das, Charles E. Perkins, Elizabeth M. Belding-Royer: Performance Comparison of Two On-demand Routing Protocols for Ad Hoc Networks. INFOCOM 2000:3-12
2153 Young-Bae Ko, Vinaychandra Shankarkumar, Nitin H. Vaidya: Medium Access Control Protocols using Directional Antennas in Ad Hoc Networks. INFOCOM 2000:13-21
2152 Jae-Hwan Chang, Leandros Tassiulas: Energy Conserving Routing in Wireless Ad-hoc Networks. INFOCOM 2000:22-31
2151 Alan D. Amis, Ravi Prakash, Dung Huynh, Thai Vuong: Max-Min D-Cluster Formation in Wireless Ad Hoc Networks. INFOCOM 2000:32-41
2150 Tianji Jiang, Mostafa H. Ammar, Ellen W. Zegura: On the Use of Destination Set Grouping to Improve Inter-Receiver Fairness for Multicast ABR Sessions. INFOCOM 2000:42-51
2149 Saswati Sarkar, Leandros Tassiulas: Distributed Algorithms for Computation of Fair Rates in Multirate Multicast Trees. INFOCOM 2000:52-61
2148 Aiguo Fei, Mario Gerla: Receiver-Initiated Multicasting with Multiple QoS Constraints. INFOCOM 2000:62-70
2147 Matthias Grossglauser, Jean-Chrysostome Bolot: On Service Models for Multicast Transmission in Heterogeneous Environments. INFOCOM 2000:71-80
2146 Charles R. Kalmanek, William T. Marshall, Partho Pratim Mishra, Doug Nortz, K. K. Ramakrishnan: DOSA: An Architecture for Providing Robust IP Telephony Service. INFOCOM 2000:81-90
2145 Bernard Pagurek, Jinrong Tang, Tony White, Roch H. Glitho: Management of Advanced Services in H323 Internet Protocol Telephony. INFOCOM 2000:91-100
2144 Art Mena, John S. Heidemann: An Empirical Study of Internet Audio Traffic. INFOCOM 2000:101-110
2143 Colin Perkins, Jon Crowcroft: Effects of Interleaving on RTP Header Compression. INFOCOM 2000:111-117
2142 Roch Guérin, Ariel Orda: Networks with Advance Reservations: The Routing Perspective. INFOCOM 2000:118-127
2141 Ariel Orda, Alexander Sprintson: QoS Routing: The Precomputation Perspective. INFOCOM 2000:128-136
2140 Funda Ergün, Rakesh K. Sinha, Lisa Zhang: QoS Routing with Performance-Dependent Costs. INFOCOM 2000:137-146
2139 Fang Hao, Ellen W. Zegura: On Scalable QoS Routing: Performance Evaluation of Topology Aggregation. INFOCOM 2000:147-156
2138 Sem C. Borst, Onno J. Boxma, Predrag R. Jelenkovic: Coupled Processors with Regularly Varying Service Times. INFOCOM 2000:157-164
2137 Sung Ho Choi, Khosrow Sohraby, Bara Kim: General QBD Processes with Applications to Overload Control. INFOCOM 2000:165-172
2136 Nikolay B. Likhanov, Ravi Mazumdar: Cell Loss Asymptotics in Buffers Fed by Heterogeneous Longtailed Sources. INFOCOM 2000:173-180
2135 Reza Jafari, Khosrow Sohraby: General Discrete-Time Queueing Systems with Correlated Batch Arrivals and Departures. INFOCOM 2000:181-188
2134 Kenneth Mitchell, Khosrow Sohraby, Appie van de Liefvoort, Jerry Place: Approximation Models of Wireless Cellular Networks Using Moment Matching. INFOCOM 2000:189-197
2133 Yigal Bejerano, Israel Cidon, Joseph Naor: Efficient Handoff Rerouting Algorithms: A Competitive On-Line Algorithmic Approach. INFOCOM 2000:198-207
2132 Janise McNair, Ian F. Akyildiz, Michael D. Bender: An Intersystem Handoff Technique for IMT-2000 Systems. INFOCOM 2000:208-216
2131 Sung Ho Choi, Khosrow Sohraby: Analysis of a Mobile Cellular Systems with Hand-off Priority and Hysteresis Control. INFOCOM 2000:217-224
2130 Nicola Blefari-Melazzi, Mauro Femminella, Gianluca Reali: Dynamic Bandwidth Allocation in a Circuit-Switched Satellite Network: Provision of Deterministic and Statistical QoS Guarantees. INFOCOM 2000:225-234
2129 Christian Frei, Boi Faltings: Abstraction and Constraint Satisfaction Techniques for Planning Bandwidth Allocation. INFOCOM 2000:235-244
2128 Neil T. Spring, Maureen Chesire, Mark Berryman, Vivek Sahasranaman, Thomas E. Anderson, Brian N. Bershad: Receiver Based Management of Low Bandwidth Access Links. INFOCOM 2000:245-254
2127 Rahul Garg, Huzur Saran: Fair Bandwidth Sharing Among Virtual Networks: A Capacity Resizing Approach. INFOCOM 2000:255-264
2126 Yuri Breitbart, Minos N. Garofalakis, Cliff Martin, Rajeev Rastogi, S. Seshadri, Abraham Silberschatz: Topology Discovery in Heterogeneous IP Networks. INFOCOM 2000:265-274
2125 Wolfgang Theilmann, Kurt Rothermel: Dynamic Distance Maps of the Internet. INFOCOM 2000:275-284
2124 Mark Stemm, Srinivasan Seshan, Randy H. Katz: A Network Measurement Architecture for Adaptive Applications. INFOCOM 2000:285-294
2123 Sugih Jamin, Cheng Jin, Yixin Jin, Danny Raz, Yuval Shavitt, Lixia Zhang: On the Placement of Internet Instrumentation. INFOCOM 2000:295-304
2122 Robert D. Doverspike, Steven J. Phillips, Jeffery Westbrook: Transport Network Architectures in an IP World. INFOCOM 2000:305-314
2121 JaeOok Lee, Sun Kang: Satellite over Satellite (SOS) Network: A Novel Architecture for Satellite Network. INFOCOM 2000:315-321
2120 Célio Albuquerque, Brett J. Vickers, Tatsuya Suda: Network Border Patrol. INFOCOM 2000:322-331
2119 Zhiruo Cao, Zheng Wang, Ellen W. Zegura: Performance of Hashing-Based Schemes for Internet Load Balancing. INFOCOM 2000:332-341
2118 Aimin Sang, San-qi Li: A Predictability Analysis of Network Traffic. INFOCOM 2000:342-351
2117 Ashok Erramilli, Onuttom Narayan, Arnold L. Neidhardt, Iraj Saniee: Performance Impacts of Multi-Scaling in Wide-Area TCP/IP Traffic. INFOCOM 2000:352-359
2116 Robert Morris, Dong Lin: Variance of Aggregated Web Traffic. INFOCOM 2000:360-366
2115 Claudio Casetti, Michela Meo: A New Approach to Model the Stationary Behavior of TCP Connections. INFOCOM 2000:367-375
2114 Seong-Jun Oh, Tava Lennon Olsen, Kimberly M. Wasserman: Distributed Power Control and Spreading Gain Allocation in CDMA Data Networks. INFOCOM 2000:379-385
2113 Nicholas Bambos, Sunil Kandukuri: Power Controlled Multiple Access (PCMA) in Wireless Communication Networks. INFOCOM 2000:386-395
2112 Carla-Fabiana Chiasserini, Ramesh R. Rao: Energy Efficient Battery Management. INFOCOM 2000:396-403
2111 Ram Ramanathan, Regina Hain: Topology Control of Multihop Wireless Networks Using Transmit Power Adjustment. INFOCOM 2000:404-413
2110 Nemo Semret, Raymond R.-F. Liao, Andrew T. Campbell, Aurel A. Lazar: Peering and Provisioning of Differentiated Internet Services. INFOCOM 2000:414-420
2109 Thyagarajan Nandagopal, Narayanan Venkitaraman, Raghupathy Sivakumar, Vaduvur Bharghavan: Relative Delay Differentiation and Delay Class Adaptation in Core-Stateless Networks. INFOCOM 2000:421-430
2108 William Aiello, Yishay Mansour, S. Rajagopolan, Adi Rosén: Competitive Queue Policies for Differentiated Services. INFOCOM 2000:431-440
2107 Yang Guo, Weibo Gong, Donald F. Towsley: Time-Stepped Hybrid Simulation (TSHS) for Large Scale Networks. INFOCOM 2000:441-450
2106 Tina Wong, Randy H. Katz, Steven McCanne: An Evaluation on Using Preference Clustering in Large-Scale Multicast Applications. INFOCOM 2000:451-460
2105 R. Gopalakrishnan, Jim Griffioen, Gísli Hjálmtýsson, Cormac J. Sreenan, Su Wen: A Simple Loss Differentiation Approach to Layered Multicast. INFOCOM 2000:461-469
2104 Brian Neil Levine, Jon Crowcroft, Christophe Diot, J. J. Garcia-Luna-Aceves, James F. Kurose: Consideration of Receiver Interest for IP Multicast Delivery. INFOCOM 2000:470-479
2103 Bin Wang, Jennifer C. Hou: QoS-Based Multicast Routing for Distributing Layered Video to Heterogeneous Receivers in Rate-based Networks. INFOCOM 2000:480-489
2102 Timothy Griffin, Gordon T. Wilfong: A Safe Path Vector Protocol. INFOCOM 2000:490-499
2101 Eylem Ekici, Ian F. Akyildiz, Michael D. Bender: Datagram Routing Algorithm for LEO Satellite Networks. INFOCOM 2000:500-508
2100 Rasti Slosiar, David Latin: A Polynomial-Time Algorithm for the Establishment of Primary and Alternate Paths in ATM Networks. INFOCOM 2000:509-518
2099 Bernard Fortz, Mikkel Thorup: Internet Traffic Engineering by Optimizing OSPF Weights. INFOCOM 2000:519-528
2098 Sundar Iyer, Amr Awadallah, Nick McKeown: Analysis of a Packet Switch with Memories Running at Slower than the Line Rate. INFOCOM 2000:529-537
2097 Ranjita Bhagwan, Bill Lin: Fast and Scalable Priority Queue Architecture for High-Speed Network Switches. INFOCOM 2000:538-547
2096 Dimitrios N. Serpanos, Panayotis Antoniadis: FIRM: A Class of Distributed Scheduling Algorithms for High-Speed ATM Switches with Multiple Input Queues. INFOCOM 2000:548-555
2095 J. G. Dai, Balaji Prabhakar: The Throughput of Data Switches with and without Speedup. INFOCOM 2000:556-564
2094 Sung-Ju Lee, William Su, Julian Hsu, Mario Gerla, Rajive Bagrodia: A Performance Comparison Study of Ad Hoc Wireless Multicast Protocols. INFOCOM 2000:565-574
2093 Amotz Bar-Noy, Boaz Patt-Shamir, Igor Ziper: Broadcast Disks with Polynomial Cost Functions. INFOCOM 2000:575-584
2092 Jeffrey E. Wieselthier, Gam D. Nguyen, Anthony Ephremides: On the Construction of Energy-Efficient Broadcast and Multicast Trees in Wireless Networks. INFOCOM 2000:585-594
2091 Rodrigo Garcés, J. J. Garcia-Luna-Aceves: Collision Avoidance and Resolution Multiple Access for Multichannel Wireless Networks. INFOCOM 2000:595-602
2090 Matthew Andrews: Probabilistic End-to-End Delay Bounds for Earliest Deadline First Scheduling. INFOCOM 2000:603-612
2089 Danny Raz, Yuval Shavitt: Optimal Partition of QoS requirements with Discrete Cost Functions. INFOCOM 2000:613-622
2088 Viktória Elek, Gunnar Karlsson, Robert Rönngren: Admission Control Based on End-to-End Measurements. INFOCOM 2000:623-630
2087 Vijay Sivaraman, Fabio M. Chiussi: Providing End-to-End Statistical Delay Guarantees with Earliest Deadline First Scheduling and Per-Hop Traffic Shaping. INFOCOM 2000:631-640
2086 Nancy Miller, Peter Steenkiste: Collecting Network Status Information for Network-Aware Applications. INFOCOM 2000:641-650
2085 Kelvin Li, Sugih Jamin: A Measurement-Based Admission-Controlled Web Server. INFOCOM 2000:651-659
2084 Jussi Kangasharju, Keith W. Ross: A Replicated Architecture for the Domain Name System. INFOCOM 2000:660-669
2083 B. Scott Michel, Konstantinos Nikoloudakis, Peter L. Reiher, Lixia Zhang: URL Forwarding and Compression in Adaptive Web Caching. INFOCOM 2000:670-678
2082 Yetik Serbest, Sangkyu Park, Aimin Sang, San-qi Li: A Simple Adaptive SVC Caching Scheme for Voice Trunking Over ATM (VTOA) Applications. INFOCOM 2000:679-687
2081 Hanoch Levy, Tsippy Mendelson, Gilad Goren: Optimal Use of Virtual Paths for Connection Setup Reduction: The Single Link Problem. INFOCOM 2000:688-696
2080 Helen J. Wang, Anthony D. Joseph, Randy H. Katz: A Signaling System Using Lightweight Call Sessions. INFOCOM 2000:697-706
2079 Aravind Srinivasan, K. G. Ramakrishnan, Krishnan Kumaran, Murali Aravamudan, Shamim A. Naqvi: Optimal Design of Signaling Networks for Internet Telephony. INFOCOM 2000:707-716
2078 Ragip Kurceren, James W. Modestino: A Joint Source-Channel Coding Approach to Network Transport of Digital Video. INFOCOM 2000:717-726
2077 Yu-Chee Tseng, Chi-Ming Hsieh, Ming-Hour Yang, Wen-Hwa Liao, Jang-Ping Sheu: Data Broadcasting and Seamless Channel Transition for Highly-Demanded Videos. INFOCOM 2000:727-736
2076 Despina Saparilla, Keith W. Ross: Optimal Streaming of Layered Video. INFOCOM 2000:737-746
2075 Kang-Won Lee, Rohit Puri, Tae-eun Kim, Kannan Ramchandran, Vaduvur Bharghavan: An Integrated Source Coding and Congestion Control Framework for Video Streaming in the Internet. INFOCOM 2000:747-756
2074 Yuguang Fang, Imrich Chlamtac, Hong-Bing Fei: An Active Mobility Database Failure Recovery Scheme and Performance Analysis for PCS Networks. INFOCOM 2000:757-764
2073 Yigal Bejerano, Israel Cidon: An Anchor Chain Scheme for IP Mobility Management. INFOCOM 2000:765-774
2072 Paramvir Bahl, Venkata N. Padmanabhan: RADAR: An In-Building RF-Based User Location and Tracking System. INFOCOM 2000:775-784
2071 Zuji Mao, Christos Douligeris: High Throughput Database Structures for Location Management in PCS Networks. INFOCOM 2000:785-794
2070 Yatin Chawathe, Steven McCanne, Eric A. Brewer: RMX: Reliable Multicast for Heterogeneous Networks. INFOCOM 2000:795-804
2069 Injong Rhee, Srinath R. Joshi, Minsuk Lee, S. Muthukrishnan, Volkan Ozdemir: Layered Multicast Recovery. INFOCOM 2000:805-813
2068 Katherine Guo, Injong Rhee: Message Stability Detection for Reliable Multicast. INFOCOM 2000:814-823
2067 Kevin C. Almeroth: A Long-Term Analysis of Growth and Usage Patterns in the Multicast Backbone (MBone). INFOCOM 2000:824-833
2066 Venkata Duvvuri, Prashant J. Shenoy, Renu Tewari: Adaptive Leases: A Strong Consistency Mechanism for the World Wide Web. INFOCOM 2000:834-843
2065 Jim Challenger, Arun Iyengar, Karen Witting, Cameron Ferstat, Paul Reed: A Publishing System for Efficiently Creating Dynamic Web Content. INFOCOM 2000:844-853
2064 Edith Cohen, Haim Kaplan: Prefetching the Means for Document Transfer: A New Approach for Reducing Web Latency. INFOCOM 2000:854-863
2063 Pablo Rodriguez, Andreas Kirpal, Ernst Biersack: Parallel-Access for Mirror Sites in the Internet. INFOCOM 2000:864-873
2062 Yehuda Afek, Anat Bremler-Barr: Trainet: A New Label Switching Scheme. INFOCOM 2000:874-883
2061 Murali S. Kodialam, T. V. Lakshman: Minimum Interference Routing with Applications to MPLS Traffic Engineering. INFOCOM 2000:884-893
2060 Hiroyuki Saito, Yasuhiro Miyao, Makiko Yoshida: Traffic Engineering Using Multiple Multipoint-to-Point LSPs. INFOCOM 2000:894-901
2059 Murali S. Kodialam, T. V. Lakshman: Dynamic Routing of Bandwidth Guaranteed Tunnels with Restoration. INFOCOM 2000:902-911
2058 Sem C. Borst, Onno J. Boxma, Predrag R. Jelenkovic: Asymptotic Behavior of Generalized Processor Sharing with Long-Tailed Traffic Sources. INFOCOM 2000:912-921
2057 Zhiruo Cao, Zheng Wang, Ellen W. Zegura: Rainbow Fair Queueing: Fair Bandwidth Sharing Without Per-Flow State. INFOCOM 2000:922-931
2056 Krishnan Kumaran, Geoffrey Margrave, Debasis Mitra, Keith R. Stanley: Novel Techniques for Design and Control of Generalized Processor Sharing Schedulers for Multiple QoS Classes. INFOCOM 2000:932-941
2055 Rong Pan, Balaji Prabhakar, Konstantinos Psounis: CHOKE, A Stateless Active Queue Management Scheme for Approximating Fair Bandwidth Allocation. INFOCOM 2000:942-951
2054 Chuanhai Liu, Jörg Nonnenmacher: Broadcast Audience Estimation. INFOCOM 2000:952-960
2053 Surendar Chandra, Carla Schlatter Ellis, Amin Vahdat: Differentiated Multimedia Web Services Using Quality Aware Transcoding. INFOCOM 2000:961-969
2052 Phil Wang, Yechiam Yemini, Danilo Florissi, John A. Zinky, Patricia Florissi: Experimental QoS Performances of Multimedia Applications. INFOCOM 2000:970-979
2051 Reza Rejaie, Haobo Yu, Mark Handley, Deborah Estrin: Multimedia Proxy Caching Mechanism for Quality Adaptive Streaming Applications in the Internet. INFOCOM 2000:980-989
2050 Ashwin Sridharan, Kumar N. Sivarajan: Blocking in All-Optical Networks. INFOCOM 2000:990-999
2049 Tibor Cinkler, Dániel Marx, Claus Popp Larsen, Dániel Fogaras: Heuristic Algorithms for Joint Configuration of the Optical and Electrical Layer in Multi-Hop Wavelength Routing Networks. INFOCOM 2000:1000-1009
2048 Aradhana Narula-Tam, Eytan Modiano: Dynamic Load Balancing for WDM-based Packet Networks. INFOCOM 2000:1010-1019
2047 Liwu Liu, Xiang-Yang Li, Peng-Jun Wan, Ophir Frieder: Wavelength Assignment in WDM Rings to Minimize SONET ADMs. INFOCOM 2000:1020-1025
2046 Vinay J. Ribeiro, Rudolf H. Riedi, Matthew S. Crouse, Richard G. Baraniuk: Multiscale Queuing Analysis of Long-Range-Dependent Network Traffic. INFOCOM 2000:1026-1035
2045 Heejune Ahn, Jae-kyoon Kim, Song Chong, Bara Kim, Bong Dae Choi: A Video Traffic Model Based on the Shifting-Level Process: the Effects of SRD and LRD on Queueing Behavior. INFOCOM 2000:1036-1045
2044 JiaFu He, Khosrow Sohraby: On the Queueing Analysis of Dispersed Periodic Messages. INFOCOM 2000:1046-1054
2043 D. Manjunath, Biplab Sikdar: Variable Length Packet Switches: Delay Analysis of Crossbar Switches under Poisson and Self Similar Traffic. INFOCOM 2000:1055-1064
2042 Anastasios Stamoulis, Georgios B. Giannakis: Packet Fair Queueing Scheduling Based on Multirate Multipath-Transparent CDMA for Wireless Networks. INFOCOM 2000:1067-1076
2041 Dongxu Shen, Chuanyi Ji: Admission of Multimedia Traffic for Third Generation CDMA Network. INFOCOM 2000:1077-1086
2040 Zhimei Jiang, Li-Fung Chang, N. K. Shankaranarayanan: Providing Multiple Service Classes For Bursty Data Traffic in Cellular Networks. INFOCOM 2000:1087-1096
2039 David A. Eckhardt, Peter Steenkiste: Effort-limited Fair (ELF) Scheduling for Wireless Networks. INFOCOM 2000:1097-1106
2038 Randeep Bhatia, Jorge Lobo, Madhur Kohli: Policy Evaluation for Network Management. INFOCOM 2000:1107-1116
2037 George Apostolopoulos, David Aubespin, Vinod G. J. Peris, Prashant Pradhan, Debanjan Saha: Design, Implementation and Performance of a Content-Based Switch. INFOCOM 2000:1117-1126
2036 Shashidhar Merugu, Samrat Bhattacharjee, Ellen W. Zegura, Kenneth L. Calvert: Bowman: A Node OS for Active Networks. INFOCOM 2000:1127-1136
2035 Ralph Keller, Sumi Choi, Dan Decasper, Marcel Dasen, George Fankhauser, Bernhard Plattner: An Active Router Architecture for Multicast Video Distribution. INFOCOM 2000:1137-1146
2034 Shunsaku Nagata, Naotaka Morita, Hiromi Noguchi, Kou Miyake: An Analysis of the Impact of Suspending Cell Discarding in TCP-over-ATM. INFOCOM 2000:1147-1156
2033 Amit Aggarwal, Stefan Savage, Thomas E. Anderson: Understanding the Performance of TCP Pacing. INFOCOM 2000:1157-1165
2032 Richard J. La, Venkat Anantharam: Charge-Sensitive TCP and Rate Control in the Internet. INFOCOM 2000:1166-1175
2031 Robert Morris: Scalable TCP Congestion Control. INFOCOM 2000:1176-1183
2030 Pankaj Gupta, Balaji Prabhakar, Stephen P. Boyd: Near Optimal Routing Lookups with Bounded Worst Case Performance. INFOCOM 2000:1184-1192
2029 Anja Feldmann, S. Muthukrishnan: Tradeoffs for Packet Classification. INFOCOM 2000:1193-1202
2028 Hari Adiseshu, Subhash Suri, Guru M. Parulkar: Detecting and Resolving Packet Filter Conflicts. INFOCOM 2000:1203-1212
2027 Thomas Y. C. Woo: A Modular Approach to Packet Classification: Algorithms and Results. INFOCOM 2000:1213-1222
2026 Robert Boorstyn, Almut Burchard, Jörg Liebeherr, Chaiwat Oottamakorn: Effective Envelopes: Statistical Bounds on Multiplexed Traffic in Packet Networks. INFOCOM 2000:1223-1232
2025 Lee Breslau, Sugih Jamin, Scott Shenker: Comments on the Performance of Measurement-Based Admission Control Algorithms. INFOCOM 2000:1233-1242
2024 Róbert Szabó, Peter Barta, Felician Németh, József Bíró: Call Admission Control in Generalized Processor Sharing (GPS) Schedulers Using Non-Rate Proportional Weighting of Sessions. INFOCOM 2000:1243-1252
2023 Go Hasegawa, Takahiro Matsuo, Masayuki Murata, Hideo Miyahara: Comparisons of Packet Scheduling Algorithms for Fair Service Among Connections on the Internet. INFOCOM 2000:1253-1262
2022 Michela Meo, Marco Ajmone Marsan: Approximate Analytical Models for Dual-Band GSM Networks Design and Planning. INFOCOM 2000:1263-1272
2021 Ying-Dar Jason Lin, Yu-Ching Hsu: Multihop Cellular: A New Architecture for Wireless Communications. INFOCOM 2000:1273-1282
2020 Wen-Tsuen Chen, Li-Chi Huang: RSVP Mobility Support: A Signaling Protocol for Integrated Services Internet with Mobile Hosts. INFOCOM 2000:1283-1292
2019 Ben Liang, Zygmunt J. Haas: Virtual Backbone Generation and Maintenance in Ad Hoc Network Mobility Management. INFOCOM 2000:1293-1302
2018 Milan Vojnovic, Jean-Yves Le Boudec, Catherine Boutremans: Global Fairness of Additive-Increase and Multiplicative-Decrease with Heterogeneous Round-Trip Times. INFOCOM 2000:1303-1312
2017 Raman Muthukrishnan, Subhajit Dasgupta, Anujan Varma, Lampros Kalampoukas, K. K. Ramakrishnan: Design, Implementation and Evaluation of an Explicit Rate Allocation Algorithm in an ATM Switch. INFOCOM 2000:1313-1322
2016 Srisankar S. Kunniyur, Rayadurgam Srikant: End-to-End Congestion Control Schemes: Utility Functions, Random Losses and ECN Marks. INFOCOM 2000:1323-1332
2015 Mark J. Karol, S. Jamaloddin Golestani, David Lee: Prevention of Deadlocks and Livelocks in Lossless, Backpressured Packet Networks. INFOCOM 2000:1333-1342
2014 Volkan Ozdemir, S. Muthukrishnan, Injong Rhee: Scalable, Low-Overhead Network Delay Estimation. INFOCOM 2000:1343-1350
2013 Nick G. Duffield, Francesco Lo Presti: Multicast Inference of Packet Delay Variance at Interior Network Links. INFOCOM 2000:1351-1360
2012 Sandra G. Dykes, Kay A. Robbins, Clinton L. Jeffery: An Empirical Evaluation of Client-Side Server Selection Algorithms. INFOCOM 2000:1361-1370
2011 Ramesh Govindan, Hongsuda Tangmunarunkit: Heuristics for Internet Map Discovery. INFOCOM 2000:1371-1380
2010 G. Robert Malan, David Watson, Farnam Jahanian, Paul Howell: Transport and Application Protocol Scrubbing. INFOCOM 2000:1381-1390
2009 Apostolos Dailianas, Yechiam Yemini, Danilo Florissi, Hao Huang: MarketNet: Market-Based Protection of Network Systems and Services - An Application to SNMP Protection. INFOCOM 2000:1391-1400
2008 Macià Mut Puigserver, Josep Lluís Ferrer-Gomila, Llorenç Huguet i Rotger: Certified Electronic Mail Protocol Resistant to a Minority of Malicious Third Parties. INFOCOM 2000:1401-1405
2007 Patrick Drew McDaniel, Sugih Jamin: Windowed Certificate Revocation. INFOCOM 2000:1406-1414
2006 Thomas Bonald, Martin May, Jean-Chrysostome Bolot: Analytic Evaluation of RED Performance. INFOCOM 2000:1415-1424
2005 Sanjeewa Athuraliya, David E. Lapsley, Steven H. Low: An Enhanced Random Early Marking Algorithm for Internet Flow Control. INFOCOM 2000:1425-1434
2004 Victor Firoiu, Marty Borden: A Study of Active Queue Management for Congestion Control. INFOCOM 2000:1435-1444
2003 Jun Xu, Mukesh Singhal, Joanne DeGroat: A Novel Cache Architecture to Support Layer-Four Packet Classification at Memory Access Speeds. INFOCOM 2000:1445-1454
2002 Cedric Adjih, Philippe Jacquet, Philippe Robert: Differentiated Admission Control in Large Networks. INFOCOM 2000:1455-1460
2001 Giuseppe Bianchi, Antonio Capone, Chiara Petrioli: Throughput Analysis of End-to-End Measurement-Based Admission Control in IP. INFOCOM 2000:1461-1470
2000 Coskun Cetinkaya, Edward W. Knightly: Egress Admission Control. INFOCOM 2000:1471-1480
1999 Yue Ma, James J. Han, Kishor S. Trivedi: Call Admission Control for Reducing Dropped Calls in Code Division Multiple Access (CDMA) Cellular Systems. INFOCOM 2000:1481-1490
1998 Saswati Sarkar, Leandros Tassiulas: Fair Allocation of Discrete Bandwidth Layers in Multicast Networks. INFOCOM 2000:1491-1500
1997 Andreas Pitsillides, George Stylianou, Constantinos S. Pattichis, Y. Ahmet Sekercioglu, Athanasios V. Vasilakos: Bandwidth Allocation for Virtual Paths (BAVP): Investigation of Performance of Classical Constrained and Genetic Algorithm Based Optimisation Techniques. INFOCOM 2000:1501-1510
1996 Haïkel Yaïche, Ravi Mazumdar, Catherine Rosenberg: Distributed Algorithms for Fair Bandwidth Allocation to Elastic Services in Broadband Networks. INFOCOM 2000:1511-1517
1995 Moses Charikar, Joseph Naor, Baruch Schieber: Resource Optimization in QoS Multicast Routing of Real-Time Multimedia. INFOCOM 2000:1518-1527
1994 Tilo Hamann, Jean C. Walrand: A New Fair Window Algorithm for ECN-Capable TCP (New-ECN). INFOCOM 2000:1528-1536
1993 Tom Goff, James Moronski, Dhananjay S. Phatak, Vipul Gupta: Freeze-TCP: A True End-to-End TCP Enhancement Mechanism for Mobile Environments. INFOCOM 2000:1537-1545
1992 Urs Hengartner, Jürg Bolliger, Thomas R. Gross: TCP Vegas Revisited. INFOCOM 2000:1546-1555
1991 Reuven Cohen, Yaniv Hamo: Balanced Packet Discard for Improving TCP Performance in ATM Networks. INFOCOM 2000:1556-1565
1990 Srihari Nelakuditi, Zhi-Li Zhang, Rose P. Tsang: Adaptive Proportional Routing: A Localized QoS Routing Approach. INFOCOM 2000:1566-1575
1989 Daniel Zappala: Alternate Path Routing for Multicast. INFOCOM 2000:1576-1585
1988 Eitan Altman, Tamer Basar, Tania Jiménez, Nahum Shimkin: Competitive Routing in Networks with Polynomial Cost. INFOCOM 2000:1586-1593
1987 Shigang Chen, Klara Nahrstedt, Yuval Shavitt: A QoS-Aware Multicast Routing Protocol. INFOCOM 2000:1594-1603
1986 Marco Ajmone Marsan, Emilio Leonardi, Marco Mellia, Fabio Neri: On the Stability of Input-Buffer Cell Switches with Speed-Up. INFOCOM 2000:1604-1613
1985 Cheng-Shang Chang, Wen-Jyh Chen, Hsiang-Yi Huang: Birkhoff-von Neumann Input Buffered Crossbar Switches. INFOCOM 2000:1614-1623
1984 Mark W. Goudreau, Stavros G. Kolliopoulos, Satish Rao: Scheduling Algorithms for Input-Queued Switches: Randomized Techniques and Experimental Evaluation. INFOCOM 2000:1624-1643
1983 Vahid Tabatabaee, Leonidas Georgiadis, Leandros Tassiulas: QoS Provisioning and Tracking Fluid Policies in Input Queueing Switches. INFOCOM 2000:1624-1633
1982 Ion Stoica, T. S. Eugene Ng, Hui Zhang: REUNITE: A Recursive Unicast Approach to Multicast. INFOCOM 2000:1644-1653
1981 David Thaler, Mark Handley: On the Aggregatability of Multicast Forwarding State. INFOCOM 2000:1654-1663
1980 Chunhung Richard Lin, Kai-Min Wang: Mobile Multicast Support in IP Networks. INFOCOM 2000:1664-1672
1979 Reuven Cohen, Eyal Felstaine, Roy Emek: Framework for Multicast in Hierarchical Networks. INFOCOM 2000:1673-1682
1978 Tsunyi Tuan, Kihong Park: Multiple Time Scale Redundancy Control for QoS-Sensitive Transport of Real-Time Traffic. INFOCOM 2000:1683-1692
1977 Zhenqiang Sun, Shigetomo Kimura, Yoshihiko Ebihara: Adaptive Two-Level Unequal Error Protection Convolutional Code Scheme for Wireless ATM Networks. INFOCOM 2000:1693-1697
1976 Daji Qiao, Kang G. Shin: A Two-Step Adaptive Error Recovery Scheme for Video Transmission over Wireless Networks. INFOCOM 2000:1698-1704
1975 Jonathan Rosenberg, Lili Qiu, Henning Schulzrinne: Integrating Packet FEC into Adaptive Voice Playout Buffer Algorithms on the Internet. INFOCOM 2000:1705-1714
1974 Andras Veres, Miklós Boda: The Chaotic Nature of TCP Congestion Control. INFOCOM 2000:1715-1723
1973 Alhussein A. Abouzeid, Sumit Roy, Murat Azizoglu: Stochastic Modeling of TCP over Lossy Links. INFOCOM 2000:1724-1733
1972 Patrick Brown: Resource sharing of TCP connections with different round trip times. INFOCOM 2000:1734-1741
1971 Neal Cardwell, Stefan Savage, Thomas E. Anderson: Modeling TCP Latency. INFOCOM 2000:1742-1751
1970 Brett Schein, Eytan Modiano: Quantifying the Benefit of Configurability in Circuit-Switched WDM Ring Networks. INFOCOM 2000:1752-1760
1969 Mohan Gurusamy, Arun K. Somani: Routing Dependable Connections with Specified Failure Restoration Guarantees in WDM Networks. INFOCOM 2000:1761-1770
1968 Guangzhi Li, Rahul Simha: On the Wavelength Assignment Problem in Multifiber WDM Star and Ring Networks. INFOCOM 2000:1771-1780
1967 Xijun Zhang, John Wei, Chunming Qiao: Constrained Multicast Routing in WDM Networks with Sparse Light Splitting. INFOCOM 2000:1781-1790
1966 Attila Vidács, Jorma T. Virtamo: Parameter Estimation of Geometrically Sampled Fractional Brownian Traffic. INFOCOM 2000:1791-1796
1965 Steven Wright, Yannis Viniotis: Burstiness-Class Based Queuing in ATM Networks Supporting Delay QoS Bounds. INFOCOM 2000:1797-1806
1964 Natwar Modani, Parijat Dube, Anurag Kumar: Measurement Based Optimal Source Shaping with a Shaping+Multiplexing Delay Constraint. INFOCOM 2000:1807-1816
1963 Yitzhak Birk, Noam Bloch: Improving Network Performance with Prioritized Dispersal. INFOCOM 2000:1817-1826
1962 Ravi Jain, Thomas Raleigh, Danny Yang, Li-Fung Chang, Charles Graff, Michael Bereschinsky, Mitesh Patel: Enhancing Survivability of Mobile Internet Access Using Mobile IP with Location Registers. INFOCOM 1999:3-11
1961 Wanjiun Liao: Mobile Internet Telephony: Mobile Extensions to H323. INFOCOM 1999:12-19
1960 Yuguang Fang, Imrich Chlamtac: A New Mobility Model and Its Application in the Channel Holding Time Characterization in PCS Network. INFOCOM 1999:20-27
1959 Zohar Naor, Hanoch Levy: Cell Identification Codes for Tracking Mobile Users. INFOCOM 1999:28-35
1958 David Starobinski, Moshe Sidi: Stochastically Bounded Burstiness for Communication Networks. INFOCOM 1999:36-42
1957 Cheng-Shang Chang: Deterministic Traffic Specification via Projections under the Min-Plus Algebra. INFOCOM 1999:43-50
1956 Puqi Perry Tang, Tsung-Yuan Charles Tai: Network Traffic Characterization Using Token Bucket Model. INFOCOM 1999:51-62
1955 Cheng-Shang Chang, Rene L. Cruz: A Time Varying Filtering Theory for Constrained Traffic Regulation and Dynamic Service Guarantees. INFOCOM 1999:63-70
1954 Rajesh Krishnan, Ram Ramanathan, Martha Steenstrup: Optimization Algorithms for Large Self-Structuring Networks. INFOCOM 1999:71-78
1953 V. Fayet, Denis A. Khotimsky, Tony Przygienda: Hop-by-Hop Routing with Node-Dependent Topology Information. INFOCOM 1999:79-87
1952 Richard Draves, Christopher King, Venkatachary Srinivasan, Brian Zill: Constructing Optimal IP Routing Tables. INFOCOM 1999:88-97
1951 Anthony Lauck, Charles R. Kalmanek, K. K. Ramakrishnan: SUBMARINE: An Architecture for IP Routing over Large NBMA Networks. INFOCOM 1999:98-106
1950 Anja Feldmann, Ramón Cáceres, Fred Douglis, Gideon Glass, Michael Rabinovich: Performance of Web Proxy Caching in Heterogeneous Bandwidth Environments. INFOCOM 1999:107-116
1949 Mun Choon Chan, Thomas Y. C. Woo: Cache-Based Compaction: A New Technique for Optimizing Web Transfer. INFOCOM 1999:117-125
1948 Lee Breslau, Pei Cao, Li Fan, Graham Phillips, Scott Shenker: Web Caching and Zipf-like Distributions: Evidence and Implications. INFOCOM 1999:126-134
1947 Eric Levy-Abegnoli, Arun Iyengar, Junehwa Song, Daniel M. Dias: Design and Performance of a Web Server Accelerator. INFOCOM 1999:135-143
1946 Santosh Krishnan, Abhijit K. Choudhury, Fabio M. Chiussi: Dynamic Partitioning: A Mechanism for Shared-Memory Management. INFOCOM 1999:144-152
1945 Hiroshi Saito: Performance Evaluation and Dimensioning for AAL2CLAD. INFOCOM 1999:153-160
1944 Srinidhi Varadarajan, Tzi-cker Chiueh: Automatic Fault Detection and Recovery in Real Time Switched Ethernet Networks. INFOCOM 1999:161-169
1943 Chuanyi Ji, Sheng Ma, Xusheng Tian: Approximation Capability of Independent Wavelet Models to Heterogeneous Network Traffic. INFOCOM 1999:170-177
1942 Bhargav R. Bellur, Richard G. Ogier: A Reliable, Efficient Topology Broadcast Protocol for Dynamic Networks. INFOCOM 1999:178-186
1941 Ji-Her Ju, Victor O. K. Li: TDMA Scheduling Design of Multihop Packet Radio Networks Based on Latin Squares. INFOCOM 1999:187-193
1940 Zhenyu Tang, J. J. Garcia-Luna-Aceves: Hop Reservation Multiple Access (HRMA) for Ad-Hoc Networks. INFOCOM 1999:194-201
1939 Prasun Sinha, Raghupathy Sivakumar, Vaduvur Bharghavan: CEDAR: a Core-Extraction Distributed Ad Hoc Routing Algorithm. INFOCOM 1999:202-209
1938 Paul Francis, Sugih Jamin, Vern Paxson, Lixia Zhang, Daniel F. Gryniewicz, Yixin Jin: An Architecture for a Global Internet Host Distance Estimation Service. INFOCOM 1999:210-217
1937 Craig Labovitz, G. Robert Malan, Farnam Jahanian: Origins of Internet Routing Instability. INFOCOM 1999:218-226
1936 Sue B. Moon, Paul Skelly, Donald F. Towsley: Estimation and Removal of Clock Skew from Network Delay Measurements. INFOCOM 1999:227-234
1935 Kevin Lai, Mary Baker: Measuring Bandwidth. INFOCOM 1999:235-245
1934 Dean H. Lorenz, Ariel Orda: Optimal Partition of QoS Requirements on Unicast Paths and Multicast Trees. INFOCOM 1999:246-253
1933 Arnaud Legout, Jörg Nonnenmacher, Ernst Biersack: Bandwidth Allocation Policies for Unicast and Multicast Flows. INFOCOM 1999:254-261
1932 Murali S. Kodialam, Steven H. Low: Resource Allocation in a Multicast Tree. INFOCOM 1999:262-266
1931 Amotz Bar-Noy, Yaron Shilo: Optimal Broadcasting of Two Files over an Asymmetric Channel. INFOCOM 1999:267-274
1930 John W. Byers, Michael Luby, Michael Mitzenmacher: Accessing Multiple Mirror Sites in Parallel: Using Tornado Codes to Speed Up Downloads. INFOCOM 1999:275-283
1929 Edith Cohen, Balachander Krishnamurthy, Jennifer Rexford: Efficient Algorithms for Predicting Requests to Web Servers. INFOCOM 1999:284-293
1928 Jim Challenger, Arun Iyengar, Paul Dantzig: A Scalable System for Consistently Caching Dynamic Web Data. INFOCOM 1999:294-303
1927 Andy Myers, Peter A. Dinda, Hui Zhang: Performance Characteristics of Mirror Servers on the Internet. INFOCOM 1999:304-312
1926 Ilia Baldine, George N. Rouskas: Dynamic Reconfiguration Policies for WDM Networks. INFOCOM 1999:313-320
1925 Yuhong Zhu, George N. Rouskas, Harry G. Perros: Blocking in Wavelength Routing Networks, Part 1: The Single Path Case. INFOCOM 1999:321-328
1924 Tushar Tripathi, Kumar N. Sivarajan: Computing Approximate Blocking Probabilities in Wavelength Routed All-Optical Networks with Limited-Range Wavelength Conversion. INFOCOM 1999:329-336
1923 Achille Pattavina, Guido Maier: Photonic Rearrangeable Networks with Zero Switching-Element Crosstalk. INFOCOM 1999:337-344
1922 Maya Yajnik, Sue B. Moon, James F. Kurose, Donald F. Towsley: Measurement and Modeling of the Temporal Dependence in Packet Loss. INFOCOM 1999:345-352
1921 Sylvia Ratnasamy, Steven McCanne: Inference of Multicast Routing Trees and Bottleneck Bandwidths Using End-to-end Measurements. INFOCOM 1999:353-360
1920 Timothy X. Brown: Classifying Loss Rates in Broadband Networks. INFOCOM 1999:361-370
1919 Ramón Cáceres, Nick G. Duffield, Joseph Horowitz, Donald F. Towsley, Tian Bu: Multicast-Based Inference of Network-Internal Characteristics: Accuracy of Packet Loss Estimation. INFOCOM 1999:371-379
1918 Matthew Andrews, Lisa Zhang: Minimizing End-to-End Delay in High-Speed Networks with a Simple Coordinated Schedule. INFOCOM 1999:380-388
1917 Norio Matsufuru, Reiji Aibara: Efficient Fair Queueing for ATM Networks Using Uniform Round Robin. INFOCOM 1999:389-397
1916 Hoon-Tong Ngin, Chen-Khong Tham, Wee-Seng Soh: Generalised Minimum Queueing Delay: An Adaptive Multi-Rate Service Discipline for ATM Networks. INFOCOM 1999:398-404
1915 David A. Hayes, Michael P. Rumsewicz, Lachlan L. H. Andrew: Quality of Service Driven Packet Scheduling Disciplines for Real-Time Applications: Looking Beyond Fairness. INFOCOM 1999:405-412
1914 Reiner Ludwig, Bela Rathonyi: Link Layer Enhancements for TCP/IP over GSM. INFOCOM 1999:415-422
1913 Xiaowei Yang: A Model for Window Based Flow Control in Packet-Switched Networks. INFOCOM 1999:423-430
1912 Carlos M. D. Pazos, Juan C. Sanchez-Agrelo, Mario Gerla: Using Back-Pressure to Improve TCP Performance with Many Flows. INFOCOM 1999:431-438
1911 George Xylomenos, George C. Polyzos: TCP and UDP Performance over a Wireless LAN. INFOCOM 1999:439-446
1910 Ray-I Chang, Meng Chang Chen, Jan-Ming Ho, Ming-Tat Ko: An Effective and Efficient Traffic Smoothing Scheme for Delivery of Online VBR Media Streams. INFOCOM 1999:447-454
1909 Subhabrata Sen, Donald F. Towsley, Zhi-Li Zhang, Jayanta K. Dey: Optimal Multicast Smoothing of Streaming Video over an Internetwork. INFOCOM 1999:455-463
1908 Despina Saparilla, Keith W. Ross, Martin Reisslein: Periodic Broadcasting with VBR-Encoded Video. INFOCOM 1999:464-471
1907 Zhi-Li Zhang, Srihari Nelakuditi, Rahul Aggarwal, Rose P. Tsang: Efficient Selective Frame Discard Algorithms for Stored Video Delivery across Resource Constrained Networks. INFOCOM 1999:472-479
1906 Debasis Mitra, John A. Morrison, K. G. Ramakrishnan: Virtual Private Networks: Joint Resource Allocation and Routing Design. INFOCOM 1999:480-490
1905 András Faragó, Imrich Chlamtac, Stefano Basagni: Virtual Path Network Topology Optimization Using Random Graphs. INFOCOM 1999:491-496
1904 Seung Hyong Rhee, Takis Konstantopoulos: A Decentralized Model for Virtual Path Capacity Allocation. INFOCOM 1999:497-504
1903 Abel Dasylva, R. Srikant: Bounds on the Performance of Admission Control and Routing Policies for General Topology Networks with Multiple Call Classes. INFOCOM 1999:505-512
1902 Aniruddha S. Gokhale, Douglas C. Schmidt: Techniques for Optimizing CORBA Middleware for Distributed Embedded Systems. INFOCOM 1999:513-521
1901 Prashant R. Chandra, Allan Fisher, Peter Steenkiste: A Signaling Protocol for Structured Resource Allocation. INFOCOM 1999:522-533
1900 José Carlos Brustoloni: Interoperation of Copy Avoidance in Network and File I/O. INFOCOM 1999:534-542
1899 Jia-Ru Li, Sungwon Ha, Vaduvur Bharghavan: HPF: A Transport Protocol for Heterogeneous Packet Flows in the Internet. INFOCOM 1999:543-550
1898 Sylvain Delas, Ravi Mazumdar, Catherine Rosenberg: Cell Loss Asymptotics in Priority Queues Accessed by a Large Number of Independent Stationary Sources. INFOCOM 1999:551-558
1897 Ahmed R. Bashandy, Edwin K. P. Chong, Arif Ghafoor: Network Modeling and Jitter Control for Multimedia Communication over Broadband Network. INFOCOM 1999:559-566
1896 Norbert Vicari, Robert Schedel: Performance of the GFR-Service with Constant Available Bandwidth. INFOCOM 1999:567-574
1895 Khosrow Sohraby, Aleksandr Privalov: End-to-End Jitter Analyisis in Networks of Periodic Flows. INFOCOM 1999:575-583
1894 Guohong Cao, Mukesh Singhal: Distributed Fault-Tolerant Channel Allocation for Mobile Cellular Networks. INFOCOM 1999:584-591
1893 Sanket Nesargi, Ravi Prakash: Distributed Wireless Channel Allocation in Networks with Mobile Base Stations. INFOCOM 1999:592-600
1892 Giannis F. Marias, Dimitris Skyrianoglou, Lazaros F. Merakos: A Centralized Approach to Dynamic Channel Assignment in Wireless ATM LANs. INFOCOM 1999:601-608
1891 Suresh Kalyanasundaram, Junyi Li, Edwin K. P. Chong, Ness B. Shroff: Channel Sharing Scheme for Packet-Switched Cellular Networks. INFOCOM 1999:609-616
1890 Jinwoo Choe, Ness B. Shroff: Queueing Analysis of High-Speed Multiplexers including Long-Range Dependent Arrival Processes. INFOCOM 1999:617-624
1889 Predrag R. Jelenkovic: Network Multiplexer with Truncated Heavy-Tailed Arrival Streams. INFOCOM 1999:625-632
1888 Tim Daniëls, Chris Blondia: Asymptotoic Behavior of a Discrete-Time Queue with Long Range Dependent Input. INFOCOM 1999:633-640
1887 John N. Daigle, Matthew Roughan: Queue-Length Distributions for Multi-Priority Queueing Systems. INFOCOM 1999:641-648
1886 Qingming Ma, Peter Steenkiste: Supporting Dynamic Inter-Class Resource Sharing: A Multi-Class QoS Routing Algorithm. INFOCOM 1999:649-660
1885 Johnny Chen, Peter Druschel, Devika Subramanian: A New Approach to Routing with Dynamic Metrics. INFOCOM 1999:661-670
1884 Eyal Felstaine, Reuven Cohen, Ofer Hadar: Crankback Prediction in Hierarchical ATM Networks. INFOCOM 1999:671-679
1883 George Apostolopoulos, Roch Guérin, Sanjay Kamat: Implementation and Performance Measurements of QoS Routing Extensions to OSPF. INFOCOM 1999:680-688
1882 Isabella Chang, Robert Engel, Dilip D. Kandlur, Dimitrios E. Pendarakis, Debanjan Saha: Key Management for Secure Internet Multicast Using Boolean Function Minimization Techniques. INFOCOM 1999:689-698
1881 Guido Appenzeller, Mema Roussopoulos, Mary Baker: User-Friendly Access Control for Public Network Ports. INFOCOM 1999:699-707
1880 Ran Canetti, Juan A. Garay, Gene Itkis, Daniele Micciancio, Moni Naor, Benny Pinkas: Multicast Security: A Taxonomy and Some Efficient Constructions. INFOCOM 1999:708-716
1879 George Apostolopoulos, Vinod G. J. Peris, Debanjan Saha: Transport Layer Security: How Much Does It Really Cost? INFOCOM 1999:717-725
1878 Andrea Fumagalli, Isabella Cerutti, Marco Tacca, Francesco Masetti, Rajesh Jagannathan, Sridhar Alagar: Survivable Networks Based on Optimal Routing and WDM Self-Healing Rings. INFOCOM 1999:726-733
1877 Ornan Ori Gerstel, Philip Lin, Galen H. Sasaki: Combined WDM and SONET Network Design. INFOCOM 1999:734-743
1876 S. Ramamurthy, Biswanath Mukherjee: Survivable WDM Mesh Networks, Part 1 - Protection. INFOCOM 1999:744-751
1875 Muriel Médard, Steven G. Finn, Richard A. Barry: WDM Loop-back Recovery in Mesh Networks. INFOCOM 1999:752-759
1874 Joy Kuri, Sneha Kumar Kasera: Reliable Multicast in Multi-Access Wireless LANs. INFOCOM 1999:760-767
1873 Shlomi Dolev, Ephraim Korach, Dmitry Yukelson: The Sound of Silence: Guessing Games for Saving Energy in Mobile Environment. INFOCOM 1999:768-775
1872 Mario Joa-Ng, I-Tai Lu: Spread Spectrum Medium Access Protocol with Collision Avoidance in Mobile Ad-hoc Wireless Networks. INFOCOM 1999:776-783
1871 J. J. Garcia-Luna-Aceves, Ewerton L. Madruga: A Multicast Routing Protocol for Ad-Hoc Networks. INFOCOM 1999:784-792
1870 Zhiruo Cao, Ellen W. Zegura: Utility Max-Min: An Application-Oriented Bandwidth Allocation Scheme. INFOCOM 1999:793-801
1869 Gustavo de Veciana, Tae-Jin Lee, Takis Konstantopoulos: Stability and Performance Analysis of Networks Supporting Services with Rate Control - Could the Internet Be Unstable? INFOCOM 1999:802-810
1868 Wei Kang Tsai, Yuseok Kim: Re-Examining Maxmin Protocols: A Fundamental Study on Convergence, Complexity, Variations, and Performance. INFOCOM 1999:811-818
1867 Omar Ait-Hellal, Eitan Altman: Performance Evaluation of Congestion Phenomena in the Rate Based Flow Control Mechanism for ABR. INFOCOM 1999:819-826
1866 Saswati Sarkar, Leandros Tassiulas: A Framework for Routing and Congestion Control in Multicast Networks. INFOCOM 1999:827-836
1865 Xi Zhang, Kang G. Shin, Debanjan Saha, Dilip D. Kandlur: Scalable Flow Control for Multicast ABR Services. INFOCOM 1999:837-846
1864 Michael J. Donahoo, Mostafa H. Ammar, Ellen W. Zegura: Multiple-Channel Multicast Scheduling for Scalabel Bulk-Data Transport. INFOCOM 1999:847-855
1863 Supratik Bhattacharyya, Donald F. Towsley, James F. Kurose: The Loss Path Multiplicity Problem in Multicast Congestion Control. INFOCOM 1999:856-863
1862 Shaogang Chen, Kihong Park: An Architecture for Noncooperative QoS Provision in Many-Switch Systems. INFOCOM 1999:864-872
1861 Roch Guérin, L. Li, Stephen J. Nadas, P. Pan, Vinod G. J. Peris: The Cost of QoS Support in Edge Devices - An Experimental Study. INFOCOM 1999:873-882
1860 Israel Ben-Shahar, Ariel Orda, Nahum Shimkin: Best-Effort Resource Sharing by Users with QoS Requirements. INFOCOM 1999:883-890
1859 Yannis A. Korilis, Ariel Orda: Incentive Compatible Pricing Strategies for QoS Routing. INFOCOM 1999:891-899
1858 Eytan Modiano, Richard A. Barry: Design and Analysis of an Asynchronous WDM Local Area Network Using a Master/Slave Scheduler. INFOCOM 1999:900-907
1857 K. R. Venugopal, M. Shiva Kumar, P. Sreenivasa Kumar: A Heuristic for Placement of Limited Range Wavelength Converters in All-Optical Networks. INFOCOM 1999:908-915
1856 Sashisekaran Thiagarajan, Arun K. Somani: An Efficient Algorithm for Optimal Wavelength Converter Placement on Wavelength-Routed Networks with Arbitrary Topologies. INFOCOM 1999:916-923
1855 Izhak Rubin, Jing Ling: All-Optical Cross-Connect Meshed-Ring Communications Networks Using a Reduced Number of Wavelengths. INFOCOM 1999:924-931
1854 Junyi Li, Ness B. Shroff, Edwin K. P. Chong: A Static Power Control Scheme for Wireless Cellular Networks. INFOCOM 1999:932-939
1853 Junshan Zhang, Edwin K. P. Chong: CDMA Systems with Random Spreading in Fading Channels: Network Capacity and Power Control. INFOCOM 1999:940-947
1852 Kin K. Leung: A Kalman-Filter Method for Power Control in Broadband Wireless Networks. INFOCOM 1999:948-956
1851 Chi Wan Sung, Wing Shing Wong: Power Control for Multirate Multimedia CDMA Systems. INFOCOM 1999:957-964
1850 Timur Friedman, Donald F. Towsley: Multicast Session Membership Size Estimation. INFOCOM 1999:965-972
1849 Paolo Narváez, Kai-Yeung Siu, Hong-Yi Tzeng: New Dynamic SPT Algorithm Based on a Ball-and-String Model. INFOCOM 1999:973-981
1848 Shiwen Chen, Bülent Yener, Yoram Ofek: Performance Trade-offs in Reliable Group Multicast Protocols. INFOCOM 1999:982-989
1847 S. Jamaloddin Golestani, Krishan K. Sabnani: Fundamental Observations on Multicast Congestion Control in the Internet. INFOCOM 1999:990-1000
1846 Jeong Geun Kim, Marwan Krunz: Quality of Service over Wireless ATM Links. INFOCOM 1999:1003-1010
1845 Andreas Terzis, Mani B. Srivastava, Lixia Zhang: A Simple QoS Signaling Protocol for Mobile Hosts in the Integrated Services Internet. INFOCOM 1999:1011-1018
1844 Abdul Rahman Aljadhai, Taieb Znati: A Framework for Call Admission Control and QoS Support in Wireless Environments. INFOCOM 1999:1019-1026
1843 Rahul Jain, Edward W. Knightly: A Framework for Design & Evaluation of Admission Control Algorithms in Multi-Service Mobile Networks. INFOCOM 1999:1027-1035
1842 Reza Jafari, Khosrow Sohraby: Performance Analysis of a Priority Based ATM Multiplexer with Correlated Arrivals. INFOCOM 1999:1036-1043
1841 Dapeng Wu, H. Jonathan Chao: Efficient Bandwidth Allocation and Call Admission Control for VBR Service Using UPC Parameters. INFOCOM 1999:1044-1052
1840 Thorsten Kurz, Patrick Thiran, Jean-Yves Le Boudec: Regulation of a Connection Admission Control Algorithm. INFOCOM 1999:1053-1060
1839 Martin Reisslein, Keith W. Ross, Srinivas Rajagopal: Guaranteeing Statistical QoS to Regulated Traffic: The Single Node Case. INFOCOM 1999:1061-1072
1838 R. Sriram, G. Manimaran, C. Siva Ram Murthy: A Rearrangeable Algorithm for the Construction of Delay-Constrained Dynamic Multicast Trees. INFOCOM 1999:1073-1080
1837 François Baccelli, Daniel Kofman, Jean-Louis Rougier: Self Organizing Hierarchical Multicast Trees and Their Optimization. INFOCOM 1999:1081-1089
1836 Deborah Estrin, Mark Handley, Ahmed Helmy, Polly Huang, David Thaler: A Dynamic Bootstrap Mechanism for Rendezvous-based Multicast Routing. INFOCOM 1999:1090-1098
1835 Mario Baldi, Yoram Ofek: Ring versus Tree Embedding for Real-time Group Multicast. INFOCOM 1999:1099-1106
1834 X. W. Huang, Rosen Sharma, Srinivasan Keshav: The ENTRAPID Protocol Development Environment. INFOCOM 1999:1107-1115
1833 Amit B. Kulkarni, Gary J. Minden: Active Networking Services for Wired/Wireless Networks. INFOCOM 1999:1116-1123
1832 Michael W. Hicks, Jonathan T. Moore, D. Scott Alexander, Carl A. Gunter, Scott Nettles: PLANet: An Active Internetwork. INFOCOM 1999:1124-1133
1831 Shie Yuan Wang, H. T. Kung: A Simple Methodology for Constructing an Extensible and High-Fidelity TCP/IP Network Simulators. INFOCOM 1999:1134-1143
1830 Matthew Andrews, Sanjeev Khanna, Krishnan Kumaran: Integrated Scheduling of Unicast and Multicast Traffic in an Input-Queued Switch. INFOCOM 1999:1144-1151
1829 Shizhao Li, Nirwan Ansari: Input-Queued Switching with QoS Guarantees. INFOCOM 1999:1152-1159
1828 András Rácz, Gábor Fodor, Zoltán Turányi: Weighted Fair Early Packet Discard at an ATM Switch Output Port. INFOCOM 1999:1160-1168
1827 Shang-Tse Chuang, Ashish Goel, Nick McKeown, Balaji Prabhakar: Matching Output Queueing with a Combined Input Output Queued Switch. INFOCOM 1999:1169-1178
1826 Junyi Li, Ness B. Shroff, Edwin K. P. Chong: A Study of a Channel Sharing Scheme in Wireless Cellular Networks Inclucing Handoffs. INFOCOM 1999:1179-1186
1825 Miquel Oliver, Joan Borràs: Performance Evaluation of Variable Reservation Policies for Hand-Off Prioritization in Mobile Networks. INFOCOM 1999:1187-1194
1824 Jun Li, Roy D. Yates, Dipankar Raychaudhuri: Performance Analysis on Path Rerouting Algorithms for Handoff Control in Mobile ATM Networks. INFOCOM 1999:1195-1203
1823 Parameswaran Ramanathan, Krishna M. Sivalingam, Prathima Agrawal, Shalinee Kishore: Resource Allocation during Handoff through Dynamic Schemes for Mobile Multimedia Wireless Networks. INFOCOM 1999:1204-1211
1822 Nihal Pekergin: Stochastic Bounds on Delays of Fair Queueing Algorithms. INFOCOM 1999:1212-1219
1821 Anwar Elwalid, Debasis Mitra: Design of Generalized Processor Sharing Schedulers Which Statistically Multiplex Heterogeneous QoS Classes. INFOCOM 1999:1220-1230
1820 Alexander L. Stolyar, K. K. Ramakrishnan: The Stability of a Flow Merge Point with Non-Interleaving Cut-Through Scheduling Disciplines. INFOCOM 1999:1231-1238
1819 Costas Courcoubetis, Antonis Dimakis, George D. Stamoulis: Traffic Equivalence and Substitution in a Multiplexer. INFOCOM 1999:1239-1247
1818 Dan Rubenstein, Sneha Kumar Kasera, Donald F. Towsley, James F. Kurose: Improving Reliable Multicast Using Active Parity Encoding Services (APES). INFOCOM 1999:1248-1255
1817 Adam M. Costello, Steven McCanne: Search Party: Using Randomcast for Reliable Multicast with Local Recovery. INFOCOM 1999:1256-1264
1816 Injong Rhee, Nallathambi Balaguru, George N. Rouskas: MTCP: Scalable TCP-like Congestion Control for Reliable Multicast. INFOCOM 1999:1265-1273
1815 Kang-Won Lee, Sungwon Ha, Vaduvur Bharghavan: IRMA: A Reliable Multicast Architecture for the Internet. INFOCOM 1999:1274-1281
1814 Bo Li, Mordecai J. Golin, Giuseppe F. Italiano, Xin Deng, Kazem Sohraby: On the Optimal Placement of Web Proxies in the Internet. INFOCOM 1999:1282-1290
1813 Jeffrey M. Gilbert, Robert W. Brodersen: Globally Progressive Interactive Web Delivery. INFOCOM 1999:1291-1299
1812 Jürg Bolliger, Thomas R. Gross, Urs Hengartner: Bandwidth Modeling for Network-Aware Applications. INFOCOM 1999:1300-1309
1811 Subhabrata Sen, Jennifer Rexford, Donald F. Towsley: Proxy Prefix Caching for Multimedia Streams. INFOCOM 1999:1310-1319
1810 Wu-chang Feng, Dilip D. Kandlur, Debanjan Saha, Kang G. Shin: A Self-Configuring RED Gateway. INFOCOM 1999:1320-1328
1809 Go Hasegawa, Masayuki Murata, Hideo Miyahara: Fairness and Stability of Congestion Control Mechanisms of TCP. INFOCOM 1999:1329-1336
1808 Reza Rejaie, Mark Handley, Deborah Estrin: RAP: An End-to-End Rate-Based Congestion Control Mechanism for Realtime Streams in the Internet. INFOCOM 1999:1337-1345
1807 Teunis J. Ott, T. V. Lakshman, Larry H. Wong: SRED: Stabilized RED. INFOCOM 1999:1346-1355
1806 Xusheng Tian, Chuanyi Ji: Bounding the Performance of Dynamic Channel Allocation with QoS Provisioning for Distributed Admission Control in Wireless Networks. INFOCOM 1999:1356-1363
1805 Lachlan L. H. Andrew: Measurement-Based Band Allocation in Multiband CDMA. INFOCOM 1999:1364-1371
1804 Masoud Sajadieh, Frank R. Kschischang: A Reduced Complexity Decoding Scheme for Wireless Applications. INFOCOM 1999:1372-1376
1803 Ben Liang, Zygmunt J. Haas: Predictive Distance-Based Mobility Management for PCS Networks. INFOCOM 1999:1377-1384
1802 Martin May, Jean-Chrysostome Bolot, Alain Jean-Marie, Christophe Diot: Simple Performance Models of Differentiated Services Schemes for the Internet. INFOCOM 1999:1385-1394
1801 Laurent Massoulié, James Roberts: Bandwidth Sharing: Objectives and Algorithms. INFOCOM 1999:1395-1403
1800 Jingyu Qiu, Edward W. Knightly: Inter-Class Resource Sharing using Statistical Service Envelopes. INFOCOM 1999:1404-1411
1799 Farooq Anjum, Leandros Tassiulas: Fair Bandwidth Sharing among Adaptive and Non-Adaptive Flows in the Internet. INFOCOM 1999:1412-1420
1798 Tzi-cker Chiueh, Prashant Pradhan: High Performance IP Routing Table Lookup using CPU Caching. INFOCOM 1999:1421-1428
1797 Nen-Fu Huang, Shi-Ming Zhao, Jen-Yi Pan, Chi-An Su: A Fast IP Routing Lookup Scheme for Gigabit Switching Routers. INFOCOM 1999:1429-1436
1796 Gene Cheung, Steven McCanne: Optimal Routing Table Design for IP Address Lookups Under Memory Constraints. INFOCOM 1999:1437-1444
1795 Peter Parnes, Kåre Synnes, Dick Schefström: A Framework for Management and Control of Distributed Applications Using Agents and IP-Multicast. INFOCOM 1999:1445-1452
1794 Jean-Chrysostome Bolot, Sacha Fosse-Parisis, Donald F. Towsley: Adaptive FEC-Based Error Control for Internet Telephony. INFOCOM 1999:1453-1460
1793 Sumit Gupta, A. L. Narasimha Reddy: A Client Oriented, IP Level Redirection Mechanism. INFOCOM 1999:1461-1469
1792 Laurent Gautier, Christophe Diot, James F. Kurose: End-to-end Transmission Control Mechanisms for Multiparty Interactive Applications on the Internet. INFOCOM 1999:1470-1479
1791 Victor Firoiu, James F. Kurose, Donald F. Towsley: Performance Evaluation of ATM Shortcut Connections in Overlaid IP/ATM Networks. INFOCOM 1999:1480-1487
1790 Yael Dubinsky, Adrian Segall: A Flexible Rerouting Protocol in ATM Networks. INFOCOM 1999:1488-1496
1789 Hao Che, San-qi Li: MPOA Flow Classification Design and Analysis. INFOCOM 1999:1497-1504
1788 Indra Widjaja, Haining Wang, Steven Wright, Amalendu Chatterjee: Scalability Evaluation of Multi-Protocol Over ATM (MPOA). INFOCOM 1999:1505-1512
1787 Matthew Roughan, Darryl Veitch: Measuring Long-Range Dependence under Changing Traffic Conditions. INFOCOM 1999:1513-1521
1786 Yetik Serbest, San-qi Li: Unified Measurement Functions for Traffic Aggregation and Link Capacity Assessment. INFOCOM 1999:1522-1531
1785 Nick G. Duffield: Asymptotic Sampling Properties of Effective Bandwidth Estimation for Admission Control. INFOCOM 1999:1532-1538
1784 Matthias Grossglauser, David N. C. Tse: A Time-Scale Decomposition Approach to Measurement-Based Admission Control. INFOCOM 1999:1539-1547
1783 Subir Varma: Performance and Buffering Requirements of TCP Applications in Asymmetric Networks. INFOCOM 1999:1548-1555
1782 Jeonghoon Mo, Richard J. La, Venkat Anantharam, Jean C. Walrand: Analysis and Comparison of TCP Reno and Vegas. INFOCOM 1999:1556-1563
1781 Archan Misra, Teunis J. Ott: The Window Distribution of Idealized TCP Congestion Avoidance with Variable Packet Loss. INFOCOM 1999:1564-1572
1780 Theodore Faber, Joseph D. Touch, Wei Yue: The TIME-WAIT State in TCP and Its Effect on Busy Servers. INFOCOM 1999:1573-1583
1779 Dean H. Lorenz, Ariel Orda: QoS Routing in Networks with Uncertain Parameters. INFOCOM 1998:3-10
1778 Nageswara S. V. Rao, Stephen Gordon Batsell: QoS Routing Via Multiple Paths Using Bandwidth Reservation. INFOCOM 1998:11-18
1777 Sachin Mithal: Bounds on End-to-End Performance via Greedy, Multi-Path Routing in Integrated Services Networks. INFOCOM 1998:19-26
1776 Ariel Orda: Routing with End to End QoS Guarantees in Broadband Networks. INFOCOM 1998:27-34
1775 David N. C. Tse, Stephen V. Hanly: Effective Bandwidths in Wireless Networks with Multiuser Receivers. INFOCOM 1998:35-42
1774 Pang Leang Hiew, Moshe Zukerman: Teletraffic Issues Related to Channel Allocation in Digital Mobile Cellular Networks. INFOCOM 1998:43-50
1773 Philip A. Whiting, Sem C. Borst: Performance Bounds for Dynamic Channel Assignment Schemes Operating under Varying Re-Use Constraints. INFOCOM 1998:51-58
1772 Saswati Sarkar, Kumar N. Sivarajan: Channel Assignment Algorithms Satisfying Co-Channel and Adjacent Channel Reuse Constraints in Cellular Mobile Networks. INFOCOM 1998:59-68
1771 Ornan Ori Gerstel, Rajiv Ramaswami, Galen H. Sasaki: Cost Effective Traffic Grooming in WDM Rings. INFOCOM 1998:69-77
1770 Ilia Baldine, George N. Rouskas: Dynamic Load Balancing in Broadcast WDM Networks with Tuning Latencies. INFOCOM 1998:78-85
1769 Eytan Modiano: Unscheduled Multicasts in WDM Broadcast-and-Select Networks. INFOCOM 1998:86-93
1768 Ornan Ori Gerstel, Philip Lin, Galen H. Sasaki: Wavelength Assignment in a WDM Ring: To Minimize Cost of Embedded SONET Rings. INFOCOM 1998:94-101
1767 Mario Gerla, Prasasth Palnati, Emilio Leonardi, Fabio Neri: Minimum Distance Routing in the Bidirectional Shufflenet. INFOCOM 1998:102-109
1766 Philip P. To, Tony T. Lee: The Multi-Directional Shuffle-Exchange Network: A Novel Topology for Regular Network Architectures. INFOCOM 1998:110-117
1765 M. Mehdi Vaez, Chin-Tau A. Lea: Strictly and Wide-Sense Nonblocking Photonic Switching Under Croddtalk Constraint. INFOCOM 1998:118-125
1764 Italo Busi, Achille Pattavina: Strict-Sense Non-Blocking Conditions for Shuffle/Exchange Networks with Vertical Replication. INFOCOM 1998:126-133
1763 Giuseppe Anastasi, Luciano Lenzini, Enzo Mingozzi: Stability and Performance Analysis of HIPERLAN. INFOCOM 1998:134-141
1762 Federico Calì, Marco Conti, Enrico Gregori: IEEE 80211 Wireless LAN: Capacity Analysis and Protocol Enahncement. INFOCOM 1998:142-149
1761 Jyh-Chen Chen, Krishna M. Sivalingam, Prathima Agrawal, Shalinee Kishore: A Comparison of MAC Protocols for Wireless Local Networks BAsed on Battery Power Consumption. INFOCOM 1998:150-157
1760 Rodrigo Garcés, J. J. Garcia-Luna-Aceves: A Near-Optimum Channel Access Protocol Based on Incremental Collision Resolution and Distributed Transmission Queues. INFOCOM 1998:158-165
1759 Eitan Altman, Tamer Basar, R. Srikant: Robust Rate Control for ABR Sources. INFOCOM 1998:166-173
1758 Sharat Prasad, Kamran Kiasaleh, Poras T. Balsara: LAPLUS: An Efficient, Effective and Stable Switch Algorithm for Flow Control of the Available Bit Rate ATM Service. INFOCOM 1998:174-182
1757 Lotfi Benmohamed, Yung-Terng Wang: A Control-Theoretic ABR Explicit Rate Algorithm for ATM Switches with Per-VC Queueing. INFOCOM 1998:183-191
1756 H. T. Kung, Shie Yuan Wang: Zero Queueing Flow Control and Applications. INFOCOM 1998:192-200
1755 Sheng Ma, Chuanyi Ji: Modeling Video Traffic in the Wavelet Domain. INFOCOM 1998:201-208
1754 Bongseog Jang, Charles Thomson: Threshold Autoregressive Models for VBR MPEG Video Traces. INFOCOM 1998:209-216
1753 Alfio Lombardo, Giacomo Morabito, Giovanni Schembra: An Accurate and Treatable Markov Model of MPEG-Video Traffic. INFOCOM 1998:217-224
1752 Marc Willebeek-LeMair, Zon-Yin Shae, Yuan-Chi Chang: Robust H263 Video Coding for Transmission over the Internet. INFOCOM 1998:225-232
1751 Jonathan Rosenberg, Henning Schulzrinne: Timer Reconsideration for Enhanced RTP Scalability. INFOCOM 1998:233-241
1750 Lampros Kalampoukas, Anujan Varma, K. K. Ramakrishnan: Explicit Window Adaptation: A Method to Enhance TCP Performance. INFOCOM 1998:242-251
1749 Hari Balakrishnan, Venkata N. Padmanabhan, Srinivasan Seshan, Mark Stemm, Randy H. Katz: TCP Behavior of a Busy Internet Server: Analysis and Improvements. INFOCOM 1998:252-262
1748 Dong Lin, H. T. Kung: TCP Fast Recovery Strategies: Analysis and Improvements. INFOCOM 1998:263-271
1747 Fabio M. Chiussi, Andrea Francini: Implementing Fair Queueing in ATM Switches: The Discrete-Rate Approach. INFOCOM 1998:272-281
1746 Donpaul C. Stephens, Hui Zhang: Implementing Distributed Packet Fair Queueing in a Scalable Switch Architecture. INFOCOM 1998:282-290
1745 François Toutain: Decoupled Generalized Processor Sharing: A Fair Queueing Principle for Adaptive Multimedia Applications. INFOCOM 1998:291-298
1744 Bernhard Suter, T. V. Lakshman, Dimitrios Stiliadis, Abhijit K. Choudhury: Design Considerations for Supporting TCP with Per-Flow Queueing. INFOCOM 1998:299-306
1743 Norival R. Figueira, Joseph Pasquale: Remote-Queueing Multiple Access (RQMA): Providing Quality of Service for Wireless Communication. INFOCOM 1998:307-314
1742 Marco Listanti, Fabrizio Mascitelli, Andrea Mobilia: D2MA: A Distributed Access Protocol for Wireless ATM Networks. INFOCOM 1998:315-321
1741 Chenxi Zhu, M. Scott Corson: A Five-Phase Reervation Protocol (FPRP) for Mobile Ad Hoc Networks. INFOCOM 1998:322-331
1740 Yitzhak Birk, Yaron Keren: Judicious Use of Redundant Transmissions Multi-Channel ALOHA Networks with Deadlines. INFOCOM 1998:332-338
1739 Nikolay B. Likhanov, Ravi Mazumdar: Cell Loss Asmptotics in Buffer Fed with Large Number of Independent Stationary Sources. INFOCOM 1998:339-346
1738 Srinivas Rajagopal, Martin Reisslein, Keith W. Ross: Packet Multiplexers with Adversarial Regulated Traffic. INFOCOM 1998:347-355
1737 Matthew Roughan, Darryl Veitch, Michael P. Rumsewicz: Computing Queue-Length Distributions for Power-Law Queues. INFOCOM 1998:356-363
1736 Jinwoo Choe, Ness B. Shroff: New Bounds and Approximations Using Extreme Value Theory for the Queue Length Distribution in High-Speed Networks. INFOCOM 1998:364-371
1735 Indra Widjaja, Anwar Elwalid: Performance Issues in VC-Merge Capable Switches for IP over ATM Networks. INFOCOM 1998:372-380
1734 Hao Che, San-qi Li, Arthur Y. M. Lin: Adaptive Resource Management for Flow-Based IP/ATM Hybrid Switching Systems. INFOCOM 1998:381-389
1733 Kam Lee, Allan Fisher: Flow-Aware Gateway Support for IP-over-ATM. INFOCOM 1998:390-400
1732 Fahad Hoymany, Daniel Mossé: A Simulation Study of Packet Forwarding Methods over ATM: SBR Evaluation. INFOCOM 1998:401-408
1731 Yuliang Zheng, Hideki Imai: Compact and Unforgeable Key Establishment over an ATM Network. INFOCOM 1998:411-418
1730 Thomas Y. C. Woo, Simon S. Lam: Designing a Distributed Authorization Service. INFOCOM 1998:419-429
1729 George Pavolv, Antonio Liotta, Paola Abbi, Stefano Ceri: CMIS/P++: Extensions to CMIS/P for Increased Expressiveness and Efficiency in the Manipulation of Management Information. INFOCOM 1998:430-438
1728 Yannis A. Korilis, Theodora A. Varvarigou, Sudhir R. Ahuja: Incentive-Compatible Pricing Strategies in Noncooperative Networks. INFOCOM 1998:439-446
1727 Mingwei Xu, Jianping Wu: An Extension to Concurrent TTCN. INFOCOM 1998:447-454
1726 Anindya Basu, J. Gregory Morrisett, Thorsten von Eicken: Promela++: A Language for Constructing Correct and Efficient Protocols. INFOCOM 1998:455-462
1725 José Carlos Brustoloni, Peter Steenkiste: User-Level Protocol Servers with Kernel-Level Performance. INFOCOM 1998:463-471
1724 Jan-Peter Richter, Hermann de Meer: Towards Formal Semantics for QoS Support. INFOCOM 1998:472-479
1723 Jean-Chrysostome Bolot, Sacha Fosse-Parisis: Adding Voice to a Distributed Game on the Internet. INFOCOM 1998:480-487
1722 Jonathan Rosenberg, Henning Schulzrinne: Internet Telephony Gateway Location. INFOCOM 1998:488-496
1721 Michael S. Borella, Gregory B. Brewster: Measurement and Analysis of Long-Range Dependent Behavior of Internet Packet Delay. INFOCOM 1998:497-504
1720 Matthew Podolsky, Cynthia Romer, Steven McCanne: Simulation of FEC-Based Error Control for Packet Audio on the Internet. INFOCOM 1998:505-515
1719 Yonghwan Kim, San-qi Li: Performance Analysis of Feedback Controlled Data Packet Transmission over High-Speed Networks. INFOCOM 1998:516-524
1718 Nick G. Duffield, Steven H. Low: The Cost of Quality in Networks of Aggregate Traffic. INFOCOM 1998:525-532
1717 Leandros Tassiulas: Linear Complexity Algorithms for Maximum Througput in Radio Networks and Input Queued Switches. INFOCOM 1998:533-539
1716 Rei Y. C. Brockett, Izhak Rubin: Transport Layer Adaptable Rate Control (TARC): Analysis of a Transport Layer Flow Control Mechanism for High Speed Networks. INFOCOM 1998:540-547
1715 Moncef Elaoud, Parameswaran Ramanathan: Adaptive Use of Error-Correcting Codes for Real-Time Communication in Wireless Networks. INFOCOM 1998:548-555
1714 Seong-Jun Oh, Kimberly M. Wasserman: Adaptive Resource Management for DS-CDMA Networks Subject to Energy Constraints. INFOCOM 1998:556-563
1713 Paul Lettieri, Mani B. Srivastava: Adaptive Frame Length Control for Improving Wireless Link Throughput, Range and Energy Efficiency. INFOCOM 1998:564-571
1712 Christina Fragouli, Vijay Sivaraman, Mani B. Srivastava: Controlled Multimedia Wireless Link Sharing via Enhanced Class-Based Queueing with Channel-State-Dependent Packet Scheduling. INFOCOM 1998:572-580
1711 Li-Wei H. Lehman, Stephen J. Garland, David L. Tennenhouse: Active Reliable Multicast. INFOCOM 1998:581-589
1710 Ulana Legedza, David Wetherall, John V. Guttag: Improving the Performance of Distributed Applications Using Active Networks. INFOCOM 1998:590-599
1709 Samrat Bhattacharjee, Kenneth L. Calvert, Ellen W. Zegura: Self-Organizing Wide-Area Network Caches. INFOCOM 1998:600-608
1708 Dan Decasper, Bernhard Plattner: DAN: Distributed Code Caching for Active Networks. INFOCOM 1998:609-616
1707 Eitan Altman, Ariel Orda, Nahum Shimkin: Bandwidth Allocation for Guaranteed versus Best Effort Service Categories. INFOCOM 1998:617-624
1706 Rene L. Cruz: SCED+: Efficient Management of Quality of Service Guarantees. INFOCOM 1998:625-634
1705 Edward W. Knightly: Enforceable Quality of Service Guarantees for Bursty Traffic Streams. INFOCOM 1998:635-642
1704 Ching-Fong Su, Gustavo de Veciana: On Statistical Multiplexing, Traffic Mixes, and VP Management. INFOCOM 1998:643-650
1703 Demet Aksoy, Michael J. Franklin: Scheduling for Large-Scale On-Demand Data Broadcasting. INFOCOM 1998:651-659
1702 Yuewei Wang, Zhi-Li Zhang, David Hung-Chang Du, Dongli Su: A Network-Conscious Approach to End-to-End Video Delivery over Wide Area Networks Using Proxy Servers. INFOCOM 1998:660-667
1701 Pedro Cuenca, Antonio Jose Garrido del Solo, Francisco J. Quiles, Luis Orozco-Barbosa: Some Proposals to Improve Error Resilience in the MPEG-2 Video Transmission over ATM Networks. INFOCOM 1998:668-675
1700 Zhimei Jiang, Leonard Kleinrock: A General Optimal Video Smoothing Algorithm. INFOCOM 1998:676-684
1699 Michael Montgomery, Gustavo de Veciana: Hierarchical Source Routing through Clouds. INFOCOM 1998:685-692
1698 David Thaler, Chinya V. Ravishankar: Distributed Top-Down Hierarchy Construction. INFOCOM 1998:693-701
1697 Jochen Behrens, J. J. Garcia-Luna-Aceves: Hierarchical Routing Using Link Vectors. INFOCOM 1998:702-710
1696 Jining Tian, Gerald W. Neufeld: Forwarding State Reduction for Sparse Mode Multicase Communication. INFOCOM 1998:711-719
1695 Zohar Naor, Hanoch Levy: Minimizing the Wireless Cost of Tracking Mobile Users: An Adaptive Threshold Scheme. INFOCOM 1998:720-727
1694 Yingwei Cui, Derek Lam, Jennifer Widom, Donald C. Cox: Efficient PCS Call Setup Protocols. INFOCOM 1998:728-736
1693 Thomas Y. C. Woo, Thomas F. La Porta, Jamal Golestani, Naveen Agarwal: Update and Search Algorithms for Wireless Two-Way Messaging: Design and Performance. INFOCOM 1998:737-747
1692 Nen-Fu Huang, Chi-An Su, Han-Chieh Chao: Architectures and Handoff Schemes for CATV-Based Personal Communications Network. INFOCOM 1998:748-755
1691 Atri Indiresan, Ashish Mehra, Kang G. Shin: The END: A Network Adapter Design Tool. INFOCOM 1998:756-764
1690 Bobby Krupczak, Mostafa H. Ammar, Kenneth L. Calvert: Implementing Protocols in Java: The Price of Portability. INFOCOM 1998:765-773
1689 James Hall, Roberto Sabatino, Simon Crosby, Ian M. Leslie, Richard Black: A Comparative Study of High Speed Networks. INFOCOM 1998:774-782
1688 Zongming Fei, Samrat Bhattacharjee, Ellen W. Zegura, Mostafa H. Ammar: A Novel Server Selection Technique for Improving the Response Time of a Replicated Service. INFOCOM 1998:783-791
1687 Adisak Mekkittikul, Nick McKeown: A Practical Scheduling Algorithm to Achieve 100% Throughput in Input-Queued Switches. INFOCOM 1998:792-799
1686 Massoud R. Hashemi, Alberto Leon-Garcia: A Multicast Single-Queue Switch with a Novel Copy Mechanism. INFOCOM 1998:800-807
1685 Youngmi Joo, Nick McKeown: Doubling Memory Bandwidth for Network Buffers. INFOCOM 1998:808-815
1684 Jason P. Jue, Biswanath Mukherjee: Multiconfiguration Multihop Protocols (MMPs): A New Class of Protocols for Packet-Switched WDM Optical Networks. INFOCOM 1998:816-823
1683 Israel Cidon, Tony Hsiao, Asad Khamisy, Abhay K. Parekh, Raphael Rom, Moshe Sidi: OPENET: An Open and Efficient Control Platform for ATM Networks. INFOCOM 1998:824-831
1682 Gísli Hjálmtýsson, K. K. Ramakrishnan: UNITE - An Architecture for Lightweight Signalling in ATM Networks. INFOCOM 1998:832-840
1681 Po L. Tien, Maria C. Yuang: Intelligent Voice Smoother for VBR Voice over ATM Networks. INFOCOM 1998:841-848
1680 Sarit Mukherjee, Daniel Reininger, Bhaskar Sengupta: An Adaptive Connection Admission Control Policy for VBR+ Service Class. INFOCOM 1998:849-857
1679 Steven H. Low: Equilibrium Allocation of Variable Resources for Elastic Traffics. INFOCOM 1998:858-864
1678 Edward Bortnikov, Reuven Cohen: Schemes for Scheduling of Control Messages by Hierarchical Protocols. INFOCOM 1998:865-872
1677 Albert G. Greenberg, Damon Wischik: Admission Control for Booking Ahead Shared Resources. INFOCOM 1998:873-882
1676 Robert Engel, Dilip D. Kandlur, Ashish Mehra, Debanjan Saha: Exploring the Performance Impact of QoS Support in TCP/IP Protocol Stacks. INFOCOM 1998:883-892
1675 Vishal Sharma, Emmanouel A. Varvarigos: Limited Wavelength Translation in All-Optical WDM Mesh Networks. INFOCOM 1998:893-901
1674 Suresh Subramaniam, Murat Azizoglu, Arun K. Somani: On the Optimal Placement of Wavelength Converters in Wavelength-Routed Networks. INFOCOM 1998:902-909
1673 Murat Alanyali, Ender Ayanoglu: Provisioning Algorithms for WDM Optical Networks. INFOCOM 1998:910-918
1672 Rajesh M. Krishnaswamy, Kumar N. Sivarajan: Design of Logical Topologies: A Linear Formulation for Wavelength Routed Optical Networks with No Wavelength Changers. INFOCOM 1998:919-927
1671 Hong-Bin Chiou, Zsehong Tsai: Performance of ATM Switches with Age Priority Packet Discarding under the ON-OFF Source Model. INFOCOM 1998:931-938
1670 Jen M. Hah, Maria C. Yuang: A Delay and Loss Versatile Scheduling Discipline in ATM Switches. INFOCOM 1998:939-946
1669 Cathy A. Fulton, San-qi Li, Arthur Y. M. Lin: Impact Analysis of Packet-Level Scheduling on an ATM Shared-Memory Switch. INFOCOM 1998:947-954
1668 Qiyong Bian, Kohei Shiomoto, Jonathan S. Turner: Dynamic Flow Switching, A New Communication Service for ATM Networks. INFOCOM 1998:955-963
1667 Jörg Nonnenmacher, Ernst Biersack: Optimal Multicast Feedback. INFOCOM 1998:964-971
1666 Jörg Nonnenmacher, Martin S. Lacher, Matthias Jung, Ernst Biersack, Georg Carle: How Bad is Reliable Multicast without Local Recovery? INFOCOM 1998:972-979
1665 Shiwen Chen, Oktay Günlük, Bülent Yener: Optimal Packing of Group Multi-Casting. INFOCOM 1998:980-987
1664 Sneha Kumar Kasera, James F. Kurose, Donald F. Towsley: A Comparison of Server-Based and Receiver-Based Local Recovery Approaches for Scalable Reliable Multicast. INFOCOM 1998:988-995
1663 Lorenzo Vicisano, Luigi Rizzo, Jon Crowcroft: TCP-Like Congestion Control for Layered Multicast Data Transfer. INFOCOM 1998:996-1003
1662 Sonia Fahmy, Raj Jain, Rohit Goyal, Bobby Vandalore, Shivkumar Kalyanaraman, Sastri Kota, Pradeep Samudra: Feedback Consolidation Algorithms for ABR Point-to-Multipoint Connections in ATM Networks. INFOCOM 1998:1004-1013
1661 Ibrahim Matta, Azer Bestavros: A Load Profiling Approach to Routing Guaranteed Bandwidth Flows. INFOCOM 1998:1014-1021
1660 Chen-Khong Tham, Wee-Seng Soh: Multi-Service Connection Admission Control Using Modular Neural Networks. INFOCOM 1998:1022-1029
1659 Vanu G. Bose, Alok B. Shah, Michael Ismert: Software Radios for Wireless Networking. INFOCOM 1998:1030-1036
1658 David A. Maltz, Pravin Bhagwat: MSOCKS: An Architecture for Transport Layer Mobility. INFOCOM 1998:1037-1045
1657 Kuang-Yeh Wang, Satish K. Tripathi: Mobile-End Transport Protocol: An Alternative to TCP/IP Over Wireless Links. INFOCOM 1998:1046-1053
1656 Kurt Tutschku: Demand-based Radio Network Planning of Cellular Mobile Communication Systems. INFOCOM 1998:1054-1061
1655 Xue Li, Sanjoy Paul, Mostafa H. Ammar: Layered Video Multicast with Retransmissions (LVMR): Evaluation of Hierarchical Rate Control. INFOCOM 1998:1062-1072
1654 Brett J. Vickers, Célio Albuquerque, Tatsuya Suda: Adaptive Multicast of Multi-Layered Video: Rate-Based and Credit-Based Approaches. INFOCOM 1998:1073-1083
1653 Mario Baldi, Yoram Ofek: End-to-End Delay of Videoconferencing over Packet Switched Networks. INFOCOM 1998:1084-1092
1652 Nick G. Duffield, K. K. Ramakrishnan, Amy R. Reibman: SAVE: An Algorithm for Smoothed Adaptive Video over Explicit Rate Networks. INFOCOM 1998:1093-1102
1651 T. S. Eugene Ng, Ion Stoica, Hui Zhang: Packet Fair Queueing Algorithms for Wireless Networks with Location-Dependent Errors. INFOCOM 1998:1103-1111
1650 Fabio M. Chiussi, Andrea Francini: Minimum Delay Self-Clocked Fair Queueing for Packet-Switched Networks. INFOCOM 1998:1112-1121
1649 Nick G. Duffield, T. V. Lakshman, Dimitrios Stiliadis: On Adaptive Bandwidth Sharing with Rate Guarantees. INFOCOM 1998:1122-1130
1648 Wei Zhao, Taruni Seth, Michelle Y. Kim, Marc Willebeek-LeMair: Optimal Bandwidth/Delay Tradeoff for Feasible-Region-Based Scalabel Multimedia Scheduling. INFOCOM 1998:1131-1138
1647 Bui A. J. Banh, Gary J. Anido, Eryk Dutkiewicz: Handover Re-routing Schemes for Connection Oriented Services in Mobile ATM Networks. INFOCOM 1998:1139-1146
1646 Ramachandran Ramjee, Thomas F. La Porta, James F. Kurose, Donald F. Towsley: User Agent Migration Policies in Multimedia Wireless Networks. INFOCOM 1998:1147-1155
1645 Chiung-Shien Wu, Gin-Kou Ma: Data Transfer Scheme for Wireless Real-Time Communications. INFOCOM 1998:1156-1163
1644 Mohammad Ali Arad, Alberto Leon-Garcia: A Generalized Processor Sharing Approach to Time Scheduling in Hybrid CDMA/TDMA. INFOCOM 1998:1164-1171
1643 Supratik Bhattacharyya, James F. Kurose, Donald F. Towsley, Ramesh Nagarajan: Efficient Rate-Controlled Bulk Data Transfer Using Multiple Multicast Groups. INFOCOM 1998:1172-1179
1642 Marinho P. Barcellos, Paul D. Ezhilchelvan: An End-to-End Reliable Multicast Protocol Using Polling for Scaleability. INFOCOM 1998:1180-1187
1641 Christos Papadopoulos, Guru M. Parulkar, George Varghese: An Error Control Scheme for Large-Scale Multicast Applications. INFOCOM 1998:1188-1196
1640 Jörg Liebeherr, Bhupinder Singh Sethi: A Scalable Control Topology for Multicast Communications. INFOCOM 1998:1197-1204
1639 Anja Feldmann, Jennifer Rexford, Ramón Cáceres: Reducing Overhead in Flow-Switched Networks: An Empirical Study of Web Traffic. INFOCOM 1998:1205-1213
1638 Kevin C. Almeroth, Mostafa H. Ammar, Zongming Fei: Scalable Delivery of Web Pages Using Cyclic Best-Effort Multicast. INFOCOM 1998:1214-1221
1637 James C. Hu, Sumedh Mungee, Douglas C. Schmidt: Techniques for Developing and Measuring High Performance Web Servers over High Speed ATM Networks. INFOCOM 1998:1222-1231
1636 Mark Crovella, Paul Barford: The Network Effects of Prefetching. INFOCOM 1998:1232-1239
1635 Pankaj Gupta, Steven Lin, Nick McKeown: Routing Lookups in Hardware at Memory Access Speeds. INFOCOM 1998:1240-1247
1634 Butler W. Lampson, Venkatachary Srinivasan, George Varghese: IP Lookups Using Multiway and Multicolumn Search. INFOCOM 1998:1248-1256
1633 Yitzhak Birk, Tomer Kol: Informed-Source Coding-on-Demand (ISCOD) over Broadcast Channels. INFOCOM 1998:1257-1264
1632 Oran Sharon, Michael Spratt: A CSMA/CD Compatible MAC for Real-Time Transmissions Based on Varying Collision Intervals. INFOCOM 1998:1265-1272
1631 Krishnan Kumaran, Sanjeev Khanna: On Wireless Spectrum Estimation and Generalized Graph Coloring. INFOCOM 1998:1273-1283
1630 Arunabha Sen, Tom Roxborough, Sirisha Medidi: Upper and Lower Bounds of a Class of Channel Assignment Problems in Cellular Networks. INFOCOM 1998:1284-1291
1629 Young Yong Kim, San-qi Li: Modeling Fast Fading Channel Dynamics for Packet Data Performance Analysis. INFOCOM 1998:1292-1300
1628 Qian Zhang, Tan F. Wong, James S. Lehnert: Stability of a Type-II Hybrid ARQ Protocol for DS-SSMA Packet Radio Systems. INFOCOM 1998:1301-1308
1627 Hanoch Levy, Tzippi Mendelson, Moshe Sidi, Joseph Keren-Zvi: Sizing Exit Buffers in ATM Networks under CBR Traffic. INFOCOM 1998:1309-1316
1626 George C. Lin, Tatsuya Suda: On the Impact of Long-Range-Dependent Traffic in Dimensioning ATM Network Buffer. INFOCOM 1998:1317-1324
1625 Aleksandr Privalov, Khosrow Sohraby: Per-Stream Jitter Analysis in CBR ATM Multiplexors. INFOCOM 1998:1325-1332
1624 Sebastià Galmés, Ramón Puigjaner: On the Capabilities of On-Off Models to Capture Arbitrary ATM Sources. INFOCOM 1998:1333-1340
1623 Duke P. Hong, Tatsuya Suda: Performance of ERICA and QFC for Transporting Bursty TCP Sources with Bursty Interfering Traffic. INFOCOM 1998:1341-1349
1622 Baruch Awerbuch, Yuval Shavitt: Converging to Approximated Max-Min Flow Fairness in Logarithmic Time. INFOCOM 1998:1350-1357
1621 Santosh Paul Abraham, Anurag Kumar: A Stochastic Approximation Approach for Max-Min Fair Adaptive Rate Control of ABR Sessions with MCRs. INFOCOM 1998:1358-1365
1620 Yiwei Thomas Hou, Henry H.-Y. Tzeng, Shivendra S. Panwar: A Generalized Max-Min Rate Allocation Policy and Its Distributed Implementation Using ABR Flow Control Mechanism. INFOCOM 1998:1366-1375
1619 Peter Kim: Deterministic Service Guarantees in 80212 Networks, Part 2: the Cascaded Network Case. INFOCOM 1998:1376-1383
1618 Milosh V. Ivanovich, Moshe Zukerman: Evaluation of Priority and Scheduling Schemes for an IEEE 80214 MAC Protocol Loaded by Real Traffic. INFOCOM 1998:1384-1391
1617 Dolors Sala, John O. Limb, Sunil U. Khaunte: Adaptive Control Mechanism for Cable Modems MAC Protocols. INFOCOM 1998:1392-1399
1616 Mark D. Corner, Nada Golmie, Jörg Liebeherr, David H. Su: A Priority Scheme for the IEEE 80214 MAC Protocol for Hybrid Fiber-Coax Networks. INFOCOM 1998:1400-1407
1615 William T. Zaumen, J. J. Garcia-Luna-Aceves: Loop-Free Multipath Routing Using Generalized Diffusing Computations. INFOCOM 1998:1408-1417
1614 Johnny Chen, Peter Druschel, Devika Subramanian: An Efficient Multipath Forwarding Method. INFOCOM 1998:1418-1425
1613 Hwa-Chun Lin, Shou-Chuan Lai: VTDM - A Dynamic Multicast Routing Algorithm. INFOCOM 1998:1426-1432
1612 Sung-Pil Hong, Heesang Lee, Bum Hwan Park: An Efficient Multicast Routing Algorithm for Delay-Sensitive Applications with Dynamic Membership. INFOCOM 1998:1433-1440
1611 Marwan Krunz, Armand M. Makowski: A Source Model for VBR Video Traffic Based on M/G/infinity Input Processes. INFOCOM 1998:1441-1448
1610 Krishnan Kumaran, Debasis Mitra: Performance and Fluid Simulations of a Novel Shared Buffer Management System. INFOCOM 1998:1449-1461
1609 Predrag R. Jelenkovic: Long-Tailed Loss Rates in a Single Server Queue. INFOCOM 1998:1462-1469
1608 Jae Yong Lee, Young Han Kim: Performance Analysis of a Hybrid Priority Control Scheme for Input and Output Queueing ATM Switches. INFOCOM 1998:1470-1477
1607 Thomas J. Chaney, J. Andrew Fingerhut, Margaret Flucke, Jonathan S. Turner: Design of a Gigabit ATM Switch. INFOCOM 1997:2-11
1606 Peter Y. Yan, Kyeong Soo Kim, Manju V. Hegde, Paul S. Min: Multi-Channel Deflection Crossbar (MCDC): A VLSI Optimized Architecture for Multi-Channel ATM Switching. INFOCOM 1997:12-19
1605 Haoran Duan, John W. Lockwood, Sung-Mo Kang, J. D. Will: A High-Performance OC-12/OC-48 Queue Design Prototype for Input-buffered ATM Switches. INFOCOM 1997:20-28
1604 Massoud R. Hashemi, Alberto Leon-Garcia: A General Purpose Cell Sequencer/Scheduler for ATM Switches. INFOCOM 1997:29-37
1603 T. V. Lakshman, Partho Pratim Mishra, K. K. Ramakrishnan: Transporting Compressed Video over ATM Networks with Explicit Rate Feedback Control. INFOCOM 1997:38-47
1602 Marcel Graf: VBR Video over ATM: Reducing Network Resource Requirements through Endsystem Traffic Shaping. INFOCOM 1997:48-57
1601 Wu-chi Feng, Jennifer Rexford: A Comparison of Bandwidth Smoothing Techniques for the Transmission of Prerecorded Compressed Video. INFOCOM 1997:58-66
1600 Marwan Krunz, Satish K. Tripathi: Exploiting the Temporal Structure of MPEG Video for the Reduction of Bandwidth Requirements. INFOCOM 1997:67-74
1599 Roch Guérin, Ariel Orda: QoS-based Routing in Networks with Inaccurate Information: Theory and Algorithms. INFOCOM 1997:75-83
1598 Hussein F. Salama, Douglas S. Reeves, Yannis Viniotis: A Distributed Algorithm for Delay-Constrained Unicast Routing. INFOCOM 1997:84-91
1597 Israel Cidon, Raphael Rom, Yuval Shavitt: Multi-Path Routing Combined with Resource Reservation. INFOCOM 1997:92-100
1596 Shree Murthy, J. J. Garcia-Luna-Aceves: Loop-Free Internet Routing Using Hierarchical Routing Trees. INFOCOM 1997:101-108
1595 Chi-Jiun Su, Leandros Tassiulas: Broadcast Scheduling for Information Distribution. INFOCOM 1997:109-117
1594 Chunhung Richard Lin, Mario Gerla: Asynchronous Multimedia Multihop Wireless Networks. INFOCOM 1997:118-125
1593 Brian P. Crow, Indra Widjaja, Jeong Geun Kim, Prescott Sakai: Investigation of the IEEE 80211 Medium Access Control (MAC). INFOCOM 1997:126-133
1592 Rodrigo Garcés, J. J. Garcia-Luna-Aceves: Collision Avoidance and Resolution Multiple Access with Transmission Groups. INFOCOM 1997:134-142
1591 Mohammad Peyravian, Ajay D. Kshemkalyani: Connection Preemption: Issues, Algorithms, and a Simulation Study. INFOCOM 1997:143-151
1590 Marko Schuba: A Performance Evaluation of Connectionless Overlay Networks for ATM. INFOCOM 1997:152-159
1589 Chengzhi Li, Amitava Raha, Wei Zhao: Stability in ATM Networks. INFOCOM 1997:160-167
1588 Silvia Giordano, Jean-Yves Le Boudec, Philippe Oechslin, Stephan Robert: VBR over VBR: The Homogeneous, Loss-Free Case. INFOCOM 1997:168-176
1587 Hao Che, San-qi Li: Fast Algorithms for Measurement-Based Traffic Modeling. INFOCOM 1997:177-186
1586 Predrag R. Jelenkovic, Aurel A. Lazar: Multiplexing On-Off Sources with Subexponential On Periods: Part 1. INFOCOM 1997:187-195
1585 Allan T. Andersen, Bo Friis Nielsen: An Application of Superpositions of Two-State Markovian Sources to the Modelling of Self-Similar Behaviour. INFOCOM 1997:196-204
1584 Gilberto Mayor, John A. Silvester: Time Scale Analysis of an ATM Queueing System with Long-Range Dependent Traffic. INFOCOM 1997:205-212
1583 Anshul Kantawala, Guru M. Parulkar, John D. DeHart, Ted Marz: Supporting DIS Applications Using ATM Multipoint Connection Caching. INFOCOM 1997:213-221
1582 Puneet Sharma, Deborah Estrin, Sally Floyd, Van Jacobson: Scalabel Timers for Soft State Protocols. INFOCOM 1997:222-229
1581 Ruibing Hao, Jianping Wu: Toward Formal TTCN-Based Test Execution. INFOCOM 1997:230-235
1580 Dsun-Chie Twu, Kwang-Cheng Chen: Adaptive Control Strategy for the Multi-Layer Collision Resolution Protocol. INFOCOM 1997:236-243
1579 Jon Armitage, Olivier Crochat, Jean-Yves Le Boudec: Design of a Survivable WDM Photonic Network. INFOCOM 1997:244-252
1578 Rajgopal Kannan: A Pipelined Single-Bit Controlled Sorting Network with O(N log2N). INFOCOM 1997:253-260
1577 Byrav Ramamurthy, Jason Iness, Biswanath Mukherjee: Minimizing the Number of Optical Amplifiers Needed to Support a Multi-Wavelength Optical LAN/MAN. INFOCOM 1997:261-268
1576 Dhritiman Banerjee, Biswanath Mukherjee: Wavelenth-Routed Optical Networks: Linear Formulation, Resource Budgeting Tradeoffs, and a Reconfiguration Study. INFOCOM 1997:269-276
1575 Charles E. Rohrs, Randall A. Berry: A Linear Control Approach to Explicit Rate Feedback in ATM Networks. INFOCOM 1997:277-282
1574 Y. Zhao, San-qi Li, S. Sigarto: A Linear Dynamic Model for Design of Stable Explicit-Rate ABR. INFOCOM 1997:283-292
1573 Aleksandar Kolarov, Gopalakrishnan Ramamurthy: A Control Theoretic Approach to the Design of Closed Loop Rate Based Flow Control for High Speed ATM Networks. INFOCOM 1997:293-301
1572 Hongyi Zhang, Oliver W. W. Yang, H. T. Mouftah: Design of Robust Congestion Controllers for ATM Networks. INFOCOM 1997:302-309
1571 Victor Firoiu, James F. Kurose, Donald F. Towsley: Efficient Admission Control for EDF Schedulers. INFOCOM 1997:310-317
1570 Duan-Shin Lee: Generalized Longest Queue First: An Adaptive Scheduling Discipline for ATM Networks. INFOCOM 1997:318-325
1569 Dimitrios Stiliadis, Anujan Varma: A General Methodology for Designing Efficient Traffic Scheduling and Shaping Algorithms. INFOCOM 1997:326-335
1568 Cheng-Shong Wu, Jin-Chyang Jiau, Kim-Joan Chen: Characterizing Traffic Behavior and Providing End-to-End Service Guarantees within ATM Networks. INFOCOM 1997:336-344
1567 Kazutaka Murakami, Hyong S. Kim: Comparative Study on Restoration Schemes of Survivable ATM Networks. INFOCOM 1997:345-352
1566 Yijun Xiong, Lorne Mason: Restoration Strategies and Spare Capacity Requirements in Self-Healing ATM Networks. INFOCOM 1997:353-360
1565 Chao-Ju Hou: Design of a Fast Restoration Mechanism for Virtual Path-Based ATM Networks. INFOCOM 1997:361-369
1564 Stavros D. Nikolopoulos, Andreas Pitsillides, David Tipper: Addressing Network Survivability Issues by Finding the K-Best Paths through a Trellis Graph. INFOCOM 1997:370-377
1563 Wei Kang Tsai, Y. Ge, Garng M. Huang: Stability Analysis of Intelligent Marking EPRCA for ABR Congestion. INFOCOM 1997:380-387
1562 Geoffrey G. Xie, Simon S. Lam: Real-Time Block Transfer under a Link Sharing Hierarchy. INFOCOM 1997:388-397
1561 Dong Lin: Constant-Time Dynamic ATM Bandwidth Scheduling for Guaranteed and Best Effort Services with Overbooking. INFOCOM 1997:398-405
1560 Fabio M. Chiussi, Ye Xia, Vijay P. Kumar: Virtual Queueing Techniques for ABR Service: Improving ABR/VBR Interaction. INFOCOM 1997:406-418
1559 Minothi Parulekar, Armand M. Makowski: M/G/infinity Input Processes: A Versatile Class of Models for Network Traffic. INFOCOM 1997:419-426
1558 Brian L. Mark, David L. Jagerman, Gopalakrishnan Ramamurthy: Peakedness Measures for Traffic Characterization in High-Speed Networks. INFOCOM 1997:427-435
1557 Cheng-Shang Chang: A Filtering Theory for Deterministic Traffic Regulation. INFOCOM 1997:436-443
1556 Anwar Elwalid, Debasis Mitra: Traffic Shaping at a Network Node: Theory, Optimum Design, Admission Control. INFOCOM 1997:444-454
1555 Robert Morris: Bulk Multicast Transport Protocol. INFOCOM 1997:455-462
1554 Dante DeLucia, Katia Obraczka: Multicast Feedback Suppression Using Representatives. INFOCOM 1997:463-470
1553 Jörg Nonnenmacher, Ernst Biersack: Performance Modelling of Reliable Multicast Transmission. INFOCOM 1997:471-479
1552 Miki Yamamoto, James F. Kurose, Donald F. Towsley, Hiromasa Ikeda: A Delay Analysis of Sender-Initiated and Receiver-Initiated Reliable Multicast Protocols. INFOCOM 1997:480-488
1551 Rajiv Ramaswami, Galen H. Sasaki: Multiwavelength Optical Networks with Limited Wavelength Conversion. INFOCOM 1997:489-498
1550 Suresh Subramaniam, Arun K. Somani, Murat Azizoglu, Richard A. Barry: A Performance Model for Wavelength Conversion with Non-Poisson Traffic. INFOCOM 1997:499-506
1549 Ornan Ori Gerstel, Rajiv Ramaswami, Galen H. Sasaki: Fault Tolerant Multiwavelength Optical Rings with Limited Wavelenght Conversion. INFOCOM 1997:507-515
1548 Hiroaki Harai, Masayuki Murata, Hideo Miyahara: Performance of Alternative Routing Methods in All-Optical Switching Networks. INFOCOM 1997:516-524
1547 Cathy W. Chan, Soung C. Liew: Performance of Multicasting Closed Interconnection Networks. INFOCOM 1997:525-532
1546 Massoud R. Hashemi, Alberto Leon-Garcia: The Single Queue Switch. INFOCOM 1997:533-540
1545 Israel Cidon, Asad Khamisy, Moshe Sidi: Analysis of Queueing Displacement Using Switch Port Speedup. INFOCOM 1997:541-548
1544 Jinwoo Choe, Ness B. Shroff: A New Method to Determine the Queue Length Distribution at an ATM Multiplexer. INFOCOM 1997:549-556
1543 Subhash Suri, George Varghese, Girish P. Chandranmenon: Leap Forward Virtual Clock: A New Fair Queueing Scheme with Guaranteed Delays and Throughput Fairness. INFOCOM 1997:557-565
1542 Yoshihiro Ohba: QLWFQ: A Queue Lenght Based Weighted Fair Queueing Algorithm in ATM Networks. INFOCOM 1997:566-575
1541 Dallas E. Wrege, Jörg Liebeherr: A Near-Optimal Packet Scheduler for QoS Networks. INFOCOM 1997:576-583
1540 Sergey Gorinsky, Sanjoy K. Baruah, Thomas J. Marlowe, Alexander D. Stoyenko: Exact and Efficient Analysis of Schedulability in Fixed-Packet Networks: A Generic Approach. INFOCOM 1997:584-591
1539 Bruce A. Mah: An Empirical Model of HTTP Network Traffic. INFOCOM 1997:592-600
1538 Gísli Hjálmtýsson, Alan G. Konheim: Analyzing a Two-Stage Entry Monitor for High-Speed Networks. INFOCOM 1997:601-610
1537 Alexander Schill, Sabine Kühn, Frank Breiter: Resource Reservation in Advance in Heterogeneous Networks with Partial ATM Infrastructures. INFOCOM 1997:611-618
1536 Koling Chang, Robert Morris, H. T. Kung: NFS Dynamics Over Flow-Controlled Wide Area Networks. INFOCOM 1997:619-625
1535 Jung-Shyr Wu, Ming-Tzong Sze, Jen-Kung Chung: Uplink and Downlink Capacity Analysis for Two-Tier CDMA Cellular Systems. INFOCOM 1997:626-633
1534 John M. Rulnick, Nicholas Bambos: Power Control and Time Division: The CDMA versus TDMA Question. INFOCOM 1997:634-641
1533 Xiao Hua Chen, T. Lang, Juhani Oksman: On Algorithms Searching for Quasi-Optimal Subfamilies of GMW Sequences Suitable for CDMA Applications. INFOCOM 1997:642-648
1532 Subir K. Biswas, Bhaskar Sengupta: Call Admissibility for Multirate Traffic in Wireless ATM Networks. INFOCOM 1997:649-657
1531 Ariel Orda, Nahum Shimkin: Incentive Pricing in Multi-Class Communication Networks. INFOCOM 1997:659-666
1530 Jelena V. Misic, Samuel T. Chanson: Charging Schemes for ATM Networks Based on Virtual Effective Bandwidths. INFOCOM 1997:667-674
1529 Francesco Lo Presti, Zhi-Li Zhang, James F. Kurose, Donald F. Towsley: Source Time Scale and Optimal Buffer/Bandwidth Trade-Off for Regulated Traffic in an ATM Node. INFOCOM 1997:675-682
1528 Mario Baldi, Yoram Ofek, Bülent Yener: Adaptive Real-Time Group Multicast. INFOCOM 1997:683-691
1527 Yutaka Ishibashi, Akihiro Tsuji, Shuji Tasaka: A Group Synchronization Mechanism for Stored Media in Multicast Communications. INFOCOM 1997:692-700
1526 Madhu Sudan, Nachum Shacham: Gateway Based Approach for Conducting Multiparty Multimedia Sessions over Heterogeneous Signaling Domains. INFOCOM 1997:701-710
1525 Giuseppe Bianchi, Riccardo Melen: Non Stationary Request Distribution in Video on Demand Networks. INFOCOM 1997:711-717
1524 Hung-Min Sun, Shiuh-Pyng Shieh: Secret Sharing in Graph-Based Prohibited Structures. INFOCOM 1997:718-724
1523 Philippe A. Janson, Gene Tsudik, Moti Yung: Scalability and Flexibility in Authentication Services: The KryptoKnight Approach. INFOCOM 1997:725-736
1522 Taekyoung Kwon, Myeongho Kang, JooSeok Song: An Adaptable and Reliable Authentication Protocol for Communication Networks. INFOCOM 1997:737-744
1521 Steven H. Low, Nicholas F. Maxemchuk: An Algorithm to Compute Collusion Paths. INFOCOM 1997:745-751
1520 Marco Ajmone Marsan, Andrea Bianco, Emilio Leonardi, Fabio Neri, S. Toniolo: MetaRing Fairness Control Schemes in All-Optical WDM Rings. INFOCOM 1997:752-760
1519 Marco Ajmone Marsan, Andrea Bianco, Emilio Leonardi, A. Morabito, Fabio Neri: SR3: A Bandwidth-Reservation MAC Protocol for Multimedia Applications over All-Optical WDM Multi-Rings. INFOCOM 1997:761-768
1518 Imrich Chlamtac, Viktória Elek, Andrea Fumagalli, Csaba Szabó: Scalable WDM Network Architecture Based on Photonic Slot Routing and Switched Delay Lines. INFOCOM 1997:769-776
1517 Rajgopal Kannan, Radim Bartos, Kyungsook Y. Lee, Harry F. Jordan: STWnet: A High Bandwidth Space-Time-Wavelength Multiplexed Optical Switching Network. INFOCOM 1997:777-784
1516 David Lee, K. K. Ramakrishnan, W. Melody Moh, A. Udaya Shankar: Performance and Correctness of the ATM ABR Rate Control Scheme. INFOCOM 1997:785-794
1515 Lalita A. Kulkarni, San-qi Li: Performance Analysis of Rate Based Feedback Control for ATM Networks. INFOCOM 1997:795-804
1514 Cathy A. Fulton, San-qi Li, Chang Soo Lim: An ABR Feedback Control Scheme with Tracking. INFOCOM 1997:805-814
1513 Michael Ritter: The Effect of Bottleneck Service Rate Variations on the Performance of the ABR Flow Control. INFOCOM 1997:815-822
1512 Zubin Dittia, Guru M. Parulkar, Jerome R. Cox Jr.: The APIC Approach to High Performance Network Interface Design: Protected DMA and Other Techniques. INFOCOM 1997:823-831
1511 Malathi Veeraraghavan, Gagan L. Choudhury, Madhu Kshirsagar: Implementation and Analysis of PCC (Parallel Connection Control). INFOCOM 1997:832-841
1510 Chiang-Ling Ng, Seung-Woo Seo, Hisashi Kobayashi: Performance Analysis of Generalized Multihop Shuffle Networks. INFOCOM 1997:842-849
1509 Ramesh Govindan, Anoop Reddy: An Analysis of Internet Inter-Domain Topology and Route Stability. INFOCOM 1997:850-857
1508 Maryann P. Maher, Suresh K. Bhogavilli: Implementation and Analysis of IP Multicast over ATM. INFOCOM 1997:858-866
1507 Matthias Grossglauser, K. K. Ramakrishnan: SEAM: Scalable and Efficient ATM Multicast. INFOCOM 1997:867-875
1506 Ehud Aharoni, Reuven Cohen: Restricted Dynamic Steiner Trees for Scalable Multicast in Datagram Networks. INFOCOM 1997:876-883
1505 Clay Shields, J. J. Garcia-Luna-Aceves: The Ordered Core Based Tree Protocol. INFOCOM 1997:884-891
1504 Xuefeng Dong, Ten-Hwang Lai: An Efficient Priority-Based Dynamic Channel Allocation Strategy for Mobile Cellular Networks. INFOCOM 1997:892-899
1503 S. Ramanathan: A Unified Framework and Algorithm for (T/F/C)DMA Channel Assignment in Wireless Networks. INFOCOM 1997:900-907
1502 Junyi Li, Ness B. Shroff, Edwin K. P. Chong: Channel Carrying: A Novel Handoff Scheme for Mobile Cellular Networks. INFOCOM 1997:908-915
1501 Yi-Bing Lin, Imrich Chlamtac: Effects of Erlang Call Holding Times on PCS Call Completion. INFOCOM 1997:916-922
1500 Yijun Xiong, Lorne Mason: Multicast ATM Switches Using Buffered MIN Structure: A Performance Study. INFOCOM 1997:924-931
1499 Kuochen Wang, Ming-Howe Cheng: Design and Performance Analysis of a Growable Multicast ATM Switch. INFOCOM 1997:932-938
1498 Jaehyung Park, Lillykutty Jacob, Hyunsoo Yoon: Performance Analysis of a Multicast Switch Based on Multistage Interconnection Networks. INFOCOM 1997:939-946
1497 Raymond H. Lin, Cheuk H. Lam, Tony T. Lee: Performance and Complexity of Multicast Cross-Path ATM Switches. INFOCOM 1997:947-954
1496 Chung-Ju Chang, Song-Yaor Lin, Ray-Guang Cheng, Yow-Ren Shiue: PSD-Based Neural-Net Connection Admission Control. INFOCOM 1997:955-962
1495 Gopalakrishnan Ramamurthy, Qiang Ren: Multi-Class Connection Admission Control Policy for High Speed ATM Switches. INFOCOM 1997:963-972
1494 Sugih Jamin, Scott Shenker, Peter B. Danzig: Comparison of Measurement-Based Call Admission Control Algorithms for Controlled-Load Service. INFOCOM 1997:973-980
1493 David N. C. Tse, Matthias Grossglauser: Measurement-Based Call Admission Control: Analysis and Simulation. INFOCOM 1997:981-989
1492 Kien A. Hua, Simon Sheu, James Zijun Wang: Earthworm: A Network Memory Management Technique for Large-Scale Distributed Multimedia Applications. INFOCOM 1997:990-997
1491 Hiroaki Higaki, Kenji Shima, Takayuki Tachikawa, Makoto Takizawa: Checkpoint and Rollback in Asynchronous Distributed Systems. INFOCOM 1997:998-1005
1490 Lavy Libman, Ariel Orda: Atomic Resource Sharing in Noncooperative Networks. INFOCOM 1997:1006-1013
1489 Robert L. Carter, Mark Crovella: Server Selection Using Dynamic Path Characterization in Wide-Area Networks. INFOCOM 1997:1014-1021
1488 Young Yong Kim, San-qi Li: Performance Evaluation of Packet Data Services over Cellular Voice Networks. INFOCOM 1997:1022-1029
1487 Sunghyun Choi, Kang G. Shin: A Cellular Wireless Local Area Network with QoS Guarantees for Heterogeneous Traffic. INFOCOM 1997:1030-1037
1486 Huayan Amy Wang, Mischa Schwartz: Performance Analysis of Multicast Flow Control Algorithms over Combined Wired/Wireless Networks. INFOCOM 1997:1038-1045
1485 Anup Kumar Talukdar, B. R. Badrinath, Arup Acharya: On Accommodating Mobile Hosts in an Integrated Services Packet Network. INFOCOM 1997:1046-1053
1484 Jennifer Rexford, Flavio Bonomi, Albert G. Greenberg, Albert Wong: A Scalable Architecture for Fair Leaky-Bucket Shaping. INFOCOM 1997:1054-1062
1483 Norival R. Figueira, Joseph Pasquale: Rate-Function Scheduling. INFOCOM 1997:1063-1071
1482 Shigeo Shioda, Hiroshi Saito: Real-Time Cell Loss Ratio Estimation and its Applications to ATM Traffic Controls. INFOCOM 1997:1072-1079
1481 Yih Huang, Philip K. McKinley: Switch-Aided Flooding Operations in ATM Networks. INFOCOM 1997:1080-1087
1480 Fumio Ishizaki, Tetsuya Takine: Bounds for the Tail Distribution in a Queue with the Superposition of General Periodic Markov Sources. INFOCOM 1997:1088-1095
1479 Anja Feldmann, Ward Whitt: Fitting Mixtures of Exponentials to Long-Tail Distributions to Analyze Network Performance Models. INFOCOM 1997:1096-1104
1478 Nail Akar, Khosrow Sohraby: Finite and Infinite QBD Chains: A Simple and Unifying Algorithmic Approach. INFOCOM 1997:1105-1113
1477 Yoshihiro Yamada, Naoto Miyoshi, Toshiharu Hasegawa: Sensitivity Analysis of the Loss Probability in a Stationary Gradual Queue for High-Speed Networks. INFOCOM 1997:1114-1121
1476 José Carlos Brustoloni, Peter Steenkiste: Copy Emulation in Checksummed, Multiple-Packet Communication. INFOCOM 1997:1122-1130
1475 Srinivasan Keshav, Samuel P. Morgan: SMART Retransmission: Performance with Overload and Random Losses. INFOCOM 1997:1131-1138
1474 Shimpei Yagyu, Hideaki Takagi: Performance Characteristics of the D Channel Access Control Scheme. INFOCOM 1997:1139-1146
1473 Cynthia S. Hood, Chuanyi Ji: Proactive Network Fault Detection. INFOCOM 1997:1147-1155
1472 Chiung-Shien Wu, Gin-Kou Ma, Po-Ning Chen: Architecture for Two-Way Data Services over Residential Area CATV Networks. INFOCOM 1997:1157-1164
1471 Ying-Dar Jason Lin, Chia-Jen Wu, Wei-Ming Yin: PCUP: Pipelined Cyclic Upstream Protocol over Hybrid Fiber Coax. INFOCOM 1997:1165-1173
1470 Jia-Wei Liao, Jun-Yao Wang, Wei-Tsong Lee, Ling-Yang Kung: Multiple Priority CSMA-type Mulitchannel Local Area Network. INFOCOM 1997:1174-1181
1469 Andrew Muir, J. J. Garcia-Luna-Aceves: Group Allocation Multiple Access with Collision Detection. INFOCOM 1997:1182-1190
1468 Yael Lapid, Raphael Rom, Moshe Sidi: Analysis of Packet Discarding Policies in High-Speed Networks. INFOCOM 1997:1191-1198
1467 T. V. Lakshman, Upamanyu Madhow, Bernhard Suter: Window-Based Error Recovery and Flow Control with a Slow Acknowledgement Channel: A Study of TCP/IP Performance. INFOCOM 1997:1199-1209
1466 Azer Bestavros, Gitae Kim: TCP Boston: A Fragmentation-Tolerant TCP Protocol for ATM Networks. INFOCOM 1997:1210-1217
1465 H. T. Kung, Shie Yuan Wang: Client-Server Performance on Flow-Controlled ATM Networks: A Web Database of Simulation Results. INFOCOM 1997:1218-1226
1464 Lampros Kalampoukas, Anujan Varma, K. K. Ramakrishnan: Two-Way TCP Traffic over ATM: Effects and Analysis. INFOCOM 1997:1227-1236
1463 Mengjou Lin, Alagu Periyannan, David Singer: Key to the Success of Asynchronous Transfer Mode: An Application Programming Interface. INFOCOM 1997:1237-1244
1462 Stefan Böcking: Object-Oriented Network Protocols. INFOCOM 1997:1245-1252
1461 Masahide Nakamura, Yoshiaki Kakuda, Tohru Kikuno: Analyzing Non-Determinism in Telecommunication Services Using P-Invariant of Petri-Net Model. INFOCOM 1997:1253-1260
1460 Bin Wang, Chao-Ju Hou, Ching-Chih Han: On Dynamically Establishing and Terminating Isochronous Message Streams in WDMA-Based Local Area Lightwave Networks. INFOCOM 1997:1261-1269
1459 Vijay Sivaraman, George N. Rouskas: HiPeR-l: High Performance Reservation Protocol with look-Ahead for Broadcast WDM Networks. INFOCOM 1997:1270-1277
1458 Arun K. Somani, Murat Azizoglu: All-Optical LAN Interconnection with a Wavelength Selective Router. INFOCOM 1997:1278-1285
1457 Hongsik Choi, Hyeong-Ah Choi, Murat Azizoglu: On the All-to-All Broadcast Problem in Optical Networks. INFOCOM 1997:1286-1294
1456 Xi Zhang, Kang G. Shin, Qin Zheng: Integrated Rate and Credit Feedback Control for ABR Service in ATM Networks. INFOCOM 1997:1295-1303
1455 Nina Taft Plotkin, Jaroslaw J. Sydir: The Rate Mismatch Problem in Heterogeneous ABR Flow Control. INFOCOM 1997:1304-1314
1454 Nasir Ghani, Jon W. Mark: Queueing Analysis of a Distributed Explicit Rate Allocation Algorithm for ABR Services. INFOCOM 1997:1315-1323
1453 Prashant R. Chandra, Allan Fisher, Corey Kosak, Peter Steenkiste: Experimental Evaluation of ATM Congestion Control Mechanisms. INFOCOM 1997:1324-1332
1452 Kevin C. Almeroth, Asit Dan, Dinkar Sitaram, William H. Tetzlaff: Long Term Resource Allocation in Video Delivery Systems. INFOCOM 1997:1333-1340
1451 Senthil Sengodan, Victor O. K. Li: A Shared Buffer Architecture for Interactive VOD Servers. INFOCOM 1997:1341-1348
1450 Wanjiun Liao, Victor O. K. Li: The Split and Merge (SAM) Protocol for Interactive Video-on-Demand Systems. INFOCOM 1997:1349-1356
1449 Kien A. Hua, James Zijun Wang, Simon Sheu: BiHOP: A Bidirectional Highly Optimized Pipelining Technique for Large-Scale Multimedia Servers. INFOCOM 1997:1357-1364
1448 Christian Roche, Prasasth Palnati, Mario Gerla, Fabio Neri, Emilio Leonardi: Performance of Congestion Control Mechanisms in Wormhole Routing Networks. INFOCOM 1997:1365-1372
1447 Eric W. M. Wong, Andy K. M. Chan, Tak-Shing Peter Yum: Re-Routing in Circuit Switched Networks. INFOCOM 1997:1373-1379
1446 George Xylomenos, George C. Polyzos: IP Multicasting for Point-to-Point Local Distribution. INFOCOM 1997:1380-1387
1445 Samrat Bhattacharjee, Mostafa H. Ammar, Ellen W. Zegura, Viren Shah, Zongming Fei: Application-Layer Anycasting. INFOCOM 1997:1388-1396
1444 Nen-Fu Huang, Yao-Tzung Wang, Bo Li, Te-Lung Liu: Virtual LAN Internetworking over ATM Networks for Mobile Stations. INFOCOM 1997:1397-1404
1443 Vincent D. Park, M. Scott Corson: A Highly Adaptive Distributed Routing Algorithm for Mobile Wireless Networks. INFOCOM 1997:1405-1413
1442 Nabil Kahale, Paul E. Wright: Dynamic Global Packet Routing in Wireless Networks. INFOCOM 1997:1414-1421
1441 Ian F. Akyildiz, Wei Yen, Bülent Yener: A New Hierarchical Routing Protocol for Dynamic Multihop Wireless Networks. INFOCOM 1997:1422-1429
1440 Jonathan C. L. Liu, Jenwei Hsieh, David Hung-Chang Du, Mengjou Lin: Performance of a Storage System for Supporting Different Video Types and Qualities. INFOCOM 1996:2-9
1439 Ryozo Kishimoto: Agent Communication System for Multimedia Communication Services. INFOCOM 1996:10-17
1438 Yasushi Negishi, Kiyokuni Kawachiya, Kazuya Tago: A Portable Communication System for Video-On-Demand Applications Using the Existing Infrastructure. INFOCOM 1996:18-26
1437 Jack Y. B. Lee, P. C. Wong: A Server Array Approach for Video-On-Demand Service on Local Area Networks. INFOCOM 1996:27-34
1436 Moshe Sidi, David Starobinski: New Call Block versus Handoff Blocking in Cellular Networks. INFOCOM 1996:35-42
1435 Ramachandran Ramjee, Ramesh Nagarajan, Donald F. Towsley: On Optimal Call Admission Control in Cellular Networks. INFOCOM 1996:43-50
1434 Roberto Beraldi, Salvatore Marano, Carlo Mastroianni: A Reversible Hierarchical Scheme for Microcellular Systems with Overlaying Macrocells. INFOCOM 1996:51-58
1433 Dario Lucatti, Achille Pattavina, Vittorio Trecordi: Bounds and Performance of Reuse Partitioning in Cellular Networks. INFOCOM 1996:59-66
1432 Arup Acharya, Ajay V. Bakre, B. R. Badrinath: IP Multicast Extensions for Mobile Internetworking. INFOCOM 1996:67-74
1431 David Thaler, Chinya V. Ravishankar: Distributed Center-Location Algorithms: Proposals and Comparisons. INFOCOM 1996:75-84
1430 Tom Billhartz, J. Bibb Cain, Ellen Farrey-Goudreau, Doug Fieg, Stephen Gordon Batsell: Performance and Resource Cost Comparisons for the CBT and PIM Multicast Routing Protocols in DIS Environments. INFOCOM 1996:85-93
1429 Victor Firoiu, Donald F. Towsley: Call Admission and Resource Reservation for Multicast Sessions. INFOCOM 1996:94-101
1428 Leonidas Georgiadis, Roch Guérin, Vinod G. J. Peris, Kumar N. Sivarajan: Efficient Network QoS Provisioning Based on Per Node Traffic Shaping. INFOCOM 1996:102-110
1427 Dimitrios Stiliadis, Anujan Varma: Latency-Rate Servers: A General Model for Analysis of Traffic Scheduling Algorithms. INFOCOM 1996:111-119
1426 Jon C. R. Bennett, Hui Zhang: WF2Q: Worst-Case Fair Weighted Fair Queueing. INFOCOM 1996:120-128
1425 Matthias Grossglauser, Srinivasan Keshav: On CBR Service. INFOCOM 1996:129-137
1424 Rajiv Ramaswami, Adrian Segall: Distributed Network Control for Wavelength Routed Optical Networks. INFOCOM 1996:138-147
1423 Suresh Subramaniam, Murat Azizoglu, Arun K. Somani: Connectivity and Sparse Wavelength Conversion in Wavelength-Routing Networks. INFOCOM 1996:148-155
1422 Gibong Jeong, Ender Ayanoglu: Comparison of Wavelength-Interchanging and Wavelength-Selective Cross-Connects in Multiwavelength All-Optical Networks. INFOCOM 1996:156-163
1421 Chien Chen, Subrata Banerjee: A New Model for Optimal Routing and Wavelength Assignment in Wavelength Division Multiplexed Optical Networks. INFOCOM 1996:164-171
1420 Wlodzimierz Dobosiewicz, Pawel Gburzynski: A Bounded-Hop-Count Deflection Scheme for Manhattan-Street Networks. INFOCOM 1996:172-179
1419 Amitava Raha, Sanjay Kamat, Wei Zhao: Admission Control for Hard Real-Time Connections in ATM LANs. INFOCOM 1996:180-188
1418 Chung-Sheng Li, Yoram Ofek, Moti Yung: Time-Driven Priority Flow Control for Real-Time Heterogeneous Internetworking. INFOCOM 1996:189-197
1417 Ting-li Ling, Ness B. Shroff: Scheduling Real-Time Traffic in ATM Networks. INFOCOM 1996:198-205
1416 Ritesh Ahuja, Srinivasan Keshav, Huzur Saran: Design, Implementation, and Performance of a Native Mode ATM Transport Layer. INFOCOM 1996:206-214
1415 James D. Salehi, James F. Kurose, Donald F. Towsley: The Effectiveness of Affinity-Based Scheduling in Multiprocessor Networking. INFOCOM 1996:215-223
1414 Trevor Blackwell: Fast Decoding of Tagged Message Formats. INFOCOM 1996:224-231
1413 Jean-Chrysostome Bolot, Andrés Vega-García: Control Mechanisms for Packet Audio in the Internet. INFOCOM 1996:232-239
1412 D. Manjunath, Mart L. Molle: Passive Estimation Algorithms for Queueing Delays in LANs and Other Polling Systems. INFOCOM 1996:240-247
1411 Ahmed E. Kamal: Efficient Solution of Multiple Server Queues with Application to the Modeling of ATM Concentrators. INFOCOM 1996:248-254
1410 Wei-Ping Wang, David Tipper, Sujata Banerjee: A Simple Approximation for Modeling Nonstationary Queues. INFOCOM 1996:255-262
1409 Ron Addie, Darren Platt, Moshe Zukerman: Performance of a Pi Persistent Protocol Subject to Correlated Gaussian Traffic. INFOCOM 1996:263-270
1408 Nick McKeown, Balaji Prabhakar: Scheduling Multicast Cells in an Input-Queued Switch. INFOCOM 1996:271-278
1407 Tony T. Lee, Soung-Yue Liew: Parallel Routing Algorithms in Benes-Clos Networks. INFOCOM 1996:279-286
1406 Jonathan S. Turner: Maintaining High Throughput during Overload in ATM Switches. INFOCOM 1996:287-295
1405 Nick McKeown, Venkat Anantharam, Jean C. Walrand: Achieving 100% Throughput in an Input-Queued Switch. INFOCOM 1996:296-302
1404 Malathi Veeraraghavan, Madhu Kshirsagar, Gagan L. Choudhury: Concurrent ATM Connection Setup Reducing Need for VP Provisioning. INFOCOM 1996:303-311
1403 Nikos G. Aneroussis, Aurel A. Lazar: Virtual Path Control for ATM Networks with Call Level Quality of Servie Guarantees. INFOCOM 1996:312-319
1402 Chao-Ju Hou: Routing Virtual Circuits with Timing Requirements in Virtual Path Based ATM Networks. INFOCOM 1996:320-328
1401 Ariel Orda, Giovanni Pacifici, Dimitrios E. Pendarakis: An Adaptive Virtual Path Allocation Policy for Broadband Networks. INFOCOM 1996:329-336
1400 Ram Ramanathan: An Algorithm for Multicast Tree Generation in Networks with Asymmetric Links. INFOCOM 1996:337-344
1399 Srini B. Tridandapani, Biswanath Mukherjee: Multicast Traffic in Multi-Hop Lightwave Networks: Performance Analysis and an Argument for Channel Sharing. INFOCOM 1996:345-352
1398 George N. Rouskas, Ilia Baldine: Multicast Routing with End-to-End Delay and Delay Variation Constraints. INFOCOM 1996:353-360
1397 Fred Bauer, Anujan Varma: ARIES: A Rearrangeable Inexpensive Edge-Based On-Line Steiner Algorithm. INFOCOM 1996:361-368
1396 Pedro I. Sánchez, Ravi Mazumdar: Source Policing for ATM Systems Based on Peakedness Rate. INFOCOM 1996:369-376
1395 Tsern-Huei Lee, Kuen-Chu Lai, Ming-Ying Tsai: Definition of Burstiness and Quantization for Delay Sensitive Traffic Streams. INFOCOM 1996:377-383
1394 Brian L. Mark, Gopalakrishnan Ramamurthy: Real-Time Estimation of UPC Parameters for Arbitrary Traffic Sources in ATM Networks. INFOCOM 1996:384-392
1393 Hassan Naser, Alberto Leon-Garcia: A Simulation Study of Delay and Delay Variation in ATM Networks, Part 1: CBR Traffic. INFOCOM 1996:393-400
1392 Mark W. Janoska, Terence D. Todd: A Single-Hop Wavelength Routed LAN/MAN Architecture. INFOCOM 1996:402-409
1391 Milan Kovacevic: On Torus Topologies with Random Extra Links. INFOCOM 1996:410-418
1390 Imrich Chlamtac, Andrea Fumagalli, Chang-Jin Suh: A Delay Line Receiver Architecture for All-Optical Networks. INFOCOM 1996:419-426
1389 Anuradha Venkateswaran, Abhijit Sengupta: On a Scalable Topology for Lightwave Networks. INFOCOM 1996:427-434
1388 Chuck Brown, Kamilo Feher: A Flexible Modem Structure for Increased Capacity and Multimedia Transmission in GSM PCS. INFOCOM 1996:435-442
1387 John M. Rulnick, Nicholas Bambos: Mobile Power Management for Maximum Battery Life in Wireless Communication Networks. INFOCOM 1996:443-450
1386 Dongsoo Har, Henry L. Bertoni: Effect of the Local Propagation Model on the LOS Microcellular System Design. INFOCOM 1996:451-456
1385 Guu-chang Yang: Partitioning Frequency-Hopping Codes for CDMA Cellular Systems. INFOCOM 1996:457-463
1384 Thomas Magedanz, Kurt Rothermel, Sven Krause: Intelligent Agents: An Emerging Technology for Next Generation Telecommunications? INFOCOM 1996:464-472
1383 Glenn Mansfield, M. Ouchi, K. Jayanthi, Y. Kimura, Kohei Ohta, Yoshiaki Nemoto: Techniques for Automated Network Map Generation Using SNMP. INFOCOM 1996:473-480
1382 Ihsan Khan, Graham Knight: SNMP and OSI Management Information Modeling and Translation: A Case Study. INFOCOM 1996:481-488
1381 Tianning Zhang, Stefan Covaci: The Semantics of Network Management Information. INFOCOM 1996:489-496
1380 Le-Sheng Chou, Cheng-Shang Chang: Experiments of the Theory of Effective Bandwidth for Markov Sources and Video Trades. INFOCOM 1996:497-504
1379 Emilie T. Saulnier, Kenneth S. Vastola: Modeling Heterogeneous Sources on Multiple Time Scales. INFOCOM 1996:505-512
1378 Michael Montgomery, Gustavo de Veciana: On the Relevance of Time Scales in Performance Oriented Traffic Characterizations. INFOCOM 1996:513-520
1377 Predrag R. Jelenkovic, Aurel A. Lazar: Evaluating the Queue Length Distribution of an ATM Multiplexer with Multiple Time Scale Arrivals. INFOCOM 1996:521-528
1376 Yasser Rasheed, Alberto Leon-Garcia: AAL1 with FEC for the Transport of CBR MPEG2 Video over ATM Networks. INFOCOM 1996:529-536
1375 Dallas E. Wrege, Jörg Liebeherr: Video Traffic Characterization for Multimedia Networks with a Deterministic Service. INFOCOM 1996:537-544
1374 Olen L. Stokes, Arne A. Nilsson: Analysis of MPEG-1 Transmission through B-ISDN ATM Networks. INFOCOM 1996:545-552
1373 Shun Yan Cheung, Mostafa H. Ammar, Xue Li: On the Use of Destination Set Grouping to Improve Fairness in Multicast Video Distribution. INFOCOM 1996:553-560
1372 Ness B. Shroff, Mischa Schwartz: Improved Loss Calculations at an ATM Multiplexer. INFOCOM 1996:561-568
1371 Saverio Mascolo, Dirceu Cavendish, Mario Gerla: ATM Rate Based Congestion Control Using a Smith Predictor: An EPRCA Implementation. INFOCOM 1996:569-576
1370 Siavash Khorsandi, Alberto Leon-Garcia: Robust Non-Probabilistic Bounds for Delay and Throughput in Credit-Based Flow Control. INFOCOM 1996:577-584
1369 Rajesh S. Pazhyannur, Rajeev Agrawal: Feedback Based Flow Control in ATM Networks with Multiple Propagation Delays. INFOCOM 1996:585-593
1368 Ellen W. Zegura, Kenneth L. Calvert, Samrat Bhattacharjee: How to Model an Internetwork. INFOCOM 1996:594-602
1367 Biswaroop Guha, Biswanath Mukherjee: Network Security via Reverse Engineering of TCP Code: Vulnerability Analysis and Proposed Solutions. INFOCOM 1996:603-610
1366 Sabyasachi Basu, Amarnath Mukherjee, Steve Klivansky: Time Series Models for Internet Traffic. INFOCOM 1996:611-620
1365 Rahmi Marasli, Paul D. Amer, Phillip T. Conrad: Retransmission-Based Partially Reliable Transport Service: An Analytic Model. INFOCOM 1996:621-629
1364 Debanjan Saha, Sarit Mukherjee, Satish K. Tripathi: Carry-Over Round Robin: A Simple Cell Scheduling Mechanism for ATM Networks. INFOCOM 1996:630-637
1363 Jennifer Rexford, Albert G. Greenberg, Flavio Bonomi: Hardware-Efficient Fair Queueing Architectures for High-Speed Networks. INFOCOM 1996:638-646
1362 M. Vishnu, Jon W. Mark: HOL-EDD: A Flexible Service Scheduling Scheme for ATM Networks. INFOCOM 1996:647-654
1361 Seok-Kyu Kweon, Kang G. Shin: Traffic-Controlled Rate-Monotonic Priority Scheduling of ATM Cells. INFOCOM 1996:655-662
1360 Ka Lun Eddie Law, Alberto Leon-Garcia: ATM Multiplexers and Output Port Controllers with Distributed Control and Flexible Queueing Disciplines. INFOCOM 1996:663-670
1359 Blair R. Collier, Hyong S. Kim: Efficient Analysis of Shared Buffer Management Strategies in ATM Networks under Non-Uniform Bursty Traffic. INFOCOM 1996:671-678
1358 Abhijit K. Choudhury, Ellen L. Hahne: Dynamic Queue Length Thresholds in a Shared Memory ATM Switch. INFOCOM 1996:679-687
1357 Yu-Sheng Lin, C. Bernard Shung: Queue Management for Shared Buffer and Shared Multi-Buffer ATM Switches. INFOCOM 1996:688-695
1356 Flaminio Borgonovo, Michele Zorzi: Slotted ALOHA and CDPA: A Comparison of Channel Access Performance. INFOCOM 1996:696-703
1355 Martin Horneffer, Dieter Plassmann: Directed Antennas in the Mobile Broadband System. INFOCOM 1996:704-712
1354 Zhao Liu, Mark J. Karol, Magda El Zarki, Kai Y. Eng: A Demand-Assignment Access Control for Multi-Code DS-CSMA Wireless Packet (ATM) Networks. INFOCOM 1996:713-721
1353 Giuseppe Anastasi, Davide Grillo, Luciano Lenzini, Enzo Mingozzi: A Bandwidth Reservation Protocol for Speech/Data Integration in TDMA-Based Advanced Mobile Systems. INFOCOM 1996:722-729
1352 Yi Qian, David Tipper, Deep Medhi: A Nonstationary Analysis of Bandwidth Access Control Schemes for Heterogeneous Traffic in B-ISDN. INFOCOM 1996:730-737
1351 Yonghwan Kim, San-qi Li: Timescale of Interest in Traffic Measurement for Link Bandwidth Allocation Design. INFOCOM 1996:738-748
1350 Wai Chung Chan, Evaggelos Geraniotis: Near-Optimal Bandwidth Allocation for Multi-Media Virtual Circuit Switched Networks. INFOCOM 1996:749-757
1349 Hideyuki Shimonishi, Tetsuya Takine, Masayuki Murata, Hideo Miyahara: Performance Analysis of Fast Reservation Protocol with Generalized Bandwidth Reservation Method. INFOCOM 1996:758-767
1348 Richard G. Ogier, Nina Taft Plotkin, Irfan Khan: Neural Network Methods with Traffic Descriptor Compression for Call Admission Control. INFOCOM 1996:768-776
1347 Ray-Guang Cheng, Chung-Ju Chang: A Neural-Net Based Fuzzy Admission Controller for an ATM Network. INFOCOM 1996:777-784
1346 Andreas Pitsillides, Petros A. Ioannou, David Tipper: Integrated Control of Connection Admission, Flow Rate, and Bandwidth for ATM Based Networks. INFOCOM 1996:785-793
1345 François Toutain, Oliver Huber: A General Preemption-Based Admission Policy Using a Smart Market Approach. INFOCOM 1996:794-801
1344 Amit K. Chatterjee, Vijay K. Konangi: Asymmetric ATM Switch Modules with Imbalanced Traffic. INFOCOM 1996:802-809
1343 Hong Shi, Charles A. Zukowski, Omar Wing: VLSI Design Optimization of Input/Output-Buffered Broadband ATM Switches. INFOCOM 1996:810-817
1342 Jeen-Fong Lin, Sheng-De Wang: High-Performance Low-Cost Non-Blocking Switch for ATM. INFOCOM 1996:818-821
1341 Chunming Qiao: Analysis of Space-Time Tradeoffs in Photonic Switching Networks. INFOCOM 1996:822-829
1340 Fabio M. Chiussi, Ye Xia, Vijay P. Kumar: Backpressure in Shared-Memory-Based ATM Switches under Multiplexed Bursty Sources. INFOCOM 1996:830-843
1339 Dakang Wu: An Efficient Signaling Structure for ATM Networks. INFOCOM 1996:844-854
1338 Reuven Cohen: An Improved SSCOP-Like Scheme for Avoiding Unnecessary Retransmissions and Achieving Ideal Throughput. INFOCOM 1996:855-862
1337 Panos Georgatsos, David Griffin: A Management System for Load Balancing through Adaptive Routing in Multi-Service ATM Networks. INFOCOM 1996:863-870
1336 Danny J. Mitzel, Deborah Estrin, Scott Shenker, Lixia Zhang: A Study of Reservation Dynamics in Integrated Services Packet Networks. INFOCOM 1996:871-879
1335 Yehuda Afek, Menashe Cohen, Eyal Haalman, Yishay Mansour: Dynamic Bandwidth Allocation Policies. INFOCOM 1996:880-887
1334 Hong Jiang, Scott Jordan: A Pricing Model for High Speed Networks with Guaranteed Quality of Service. INFOCOM 1996:888-895
1333 Chi-Chung Hui, Samuel T. Chanson, Pui-Man Chui, Ka-Ming Lau: BALANCE - A Flexible Parallel Load Balancing System for Heterogeneous Computing Systems and Networks. INFOCOM 1996:896-903
1332 Dolors Sala, John O. Limb: A Protocol for Efficient Transfer of Data over Fiber/Cable Systems. INFOCOM 1996:904-911
1331 Bernhard Albert, Anura P. Jayasumana: Hierarchical FDDI - An Approach for FFOL. INFOCOM 1996:912-919
1330 Sijing Zhang, Alan Burns, Andy J. Wellings: An Efficient and Practical Local Synchronous Bandwidth Allocation Scheme for the Timed-Token MAC Protocol. INFOCOM 1996:920-927
1329 Alain J. Mayer, Yoram Ofek, Moti Yung: Approximating Max-Min Fair Rates via Distributed Local Scheduling with Partial Information. INFOCOM 1996:928-936
1328 Andrew Muir, J. J. Garcia-Luna-Aceves: Distributed Queue Packet Scheduling Algorithms for WDM-Based Networks. INFOCOM 1996:938-945
1327 Krishna M. Sivalingam, Patrick W. Dowd: A Lightweight Media Access Protocol for WDM-Based Distributed Shared Memory System. INFOCOM 1996:946-953
1326 Jennifer M. Yates, Jonathan P. R. Lacey, David Everitt, Mark Summerfield: Limited-Range Wavelength Translation in All-Optical Networks. INFOCOM 1996:954-961
1325 Anlu Yan, Aura Ganz, C. Mani Krishna: A Distributed Adaptive Protocol Providing Real-Time Service on WDM-Based Lans. INFOCOM 1996:962-969
1324 Indra Widjaja, Marcel F. Neuts, Jian-Min Li: Conditional Overflow Probability and Profile Curve for ATM Congestion Detection. INFOCOM 1996:970-977
1323 Chang-Yu Wang, Dimitris Logothetis, Kishor S. Trivedi, Yannis Viniotis: Transient Behavior of ATM Networds under Overloads. INFOCOM 1996:978-985
1322 Aurelio La Corte, Alfio Lombardo, Giovanni Schembra: Skew Performance Evaluation in an ATM Multimedia Multiplexer. INFOCOM 1996:986-993
1321 Debasis Mitra, John A. Morrison, K. G. Ramakrishnan: ATM Network Design and Optimization: A Multirate Loss Network Framework. INFOCOM 1996:994-1003
1320 Chin-Tau A. Lea, Kai-Wei Ke: Quantization and Cost Computation of MDP-Based Admission and Routing. INFOCOM 1996:1004-1011
1319 Oliver T. W. Yu, Victor C. M. Leung: Signaling Network Architecture and Transaction Protocols to Support Realtime Connection Rerouting in ATM/B-ISDNs. INFOCOM 1996:1012-1019
1318 Hongbin Ji, Joseph Y. Hui, Ezhan Karasan: GoS-Based Pricing and Resource Allocation for Multimedia Broadband Networks. INFOCOM 1996:1020-1027
1317 Shree Murthy, J. J. Garcia-Luna-Aceves: Congestion-Oriented Shortest Multipath Routing. INFOCOM 1996:1028-1036
1316 Geping Chen, Ioannis Stavrakakis: ATM Traffic Management with Diversified Loss and Delay Requirements. INFOCOM 1996:1037-1044
1315 Adrian E. Conway, Catherine Rosenberg: Weighted Fair Blocking Mechanisms for Discrete-Time Multiplexing. INFOCOM 1996:1045-1053
1314 Kenji Kawahara, Kouichirou Kitajima, Tetsuya Takine, Yuji Oie: Performance Evaluation of Selective Cell Discard Schemes in ATM Networks. INFOCOM 1996:1054-1061
1313 Tao Yang, Jie Pan: A Measurement-Based Loss Scheduling Scheme. INFOCOM 1996:1062-1071
1312 Henry V. Todd, James S. Meditch: Encapsulation Protocols for MPEG Video in ATM Networks. INFOCOM 1996:1072-1079
1311 Pawan Goyal, Harrick M. Vin, Chia Shen, Prashant J. Shenoy: A Reliable, Adaptive Network Protocol for Video Transport. INFOCOM 1996:1080-1090
1310 Edward W. Knightly: H-BIND: A New Approach to Providing Statistical Performance Guarantees to VBR Traffic. INFOCOM 1996:1091-1099
1309 Sherif El-Henaoui, Rosangela Coelho, Samir Tohmé: A Bandwidth Allocation Protocol for MPEG VBR Traffic in ATM Networks. INFOCOM 1996:1100-1107
1308 Izhak Rubin, Cheon Won Choi: Delay Analysis for Forward Signaling Channels in Wireless Cellular Network. INFOCOM 1996:1108-1115
1307 Arunabha Sen, Mark L. Huson: A New Model for Scheduling Packet Radio Networks. INFOCOM 1996:1116-1124
1306 Yuming Lu, Robert W. Brodersen: Unified Power Control, Error Correction Coding and Scheduling for a CDMA Downlink System. INFOCOM 1996:1125-1132
1305 Pravin Bhagwat, Partha P. Bhattacharya, Arvind Krishna, Satish K. Tripathi: Enhancing Throughput over Wireless LANs Using Channel State Dependent Packet Scheduling. INFOCOM 1996:1133-1140
1304 T. Ramalingom, Krishnaiyan Thulasiraman, Anindya Das: Context Independent Unique Sequences Generation for Protocol Testing. INFOCOM 1996:1141-1148
1303 Bobby Krupczak, Mostafa H. Ammar, Kenneth L. Calvert: Multi-Subsystem Protocol Architectures: Motivation and Experience with an Adapter-Based Approach. INFOCOM 1996:1149-1156
1302 Masahide Nakamura, Yoshiaki Kakuda, Tohru Kikuno: An Integration-Oriented Approach for Designing Communication Protocols from Component-Based Service Specifications. INFOCOM 1996:1157-1164
1301 Hakim Kahlouche, Jean-Jacques Girardot: A Stepwise Refinement Based Approach for Synthesizing Protocol Specifications in an Interpreted Petri Net Model. INFOCOM 1996:1165-1173
1300 Danny H. K. Tsang, Wales Kin Fai Wong: A New Rate-Based Switch Algorithm for ABR Traffic to Achieve Max-Min Fairness with Analytical Approximation Delay Adjustment. INFOCOM 1996:1174-1181
1299 Anna Charny, K. K. Ramakrishnan: Time Scale Analysis of Explicit Rate Allocation in ATM Networks. INFOCOM 1996:1182-1189
1298 Michael Ritter: Network Buffer Requirements of the Rate-Based Control Mechanism. INFOCOM 1996:1190-1197
1297 Anna Charny, K. K. Ramakrishnan, Anthony Lauck: Scalability Issues for Distributed Explicit Rate Allocation in ATM Networks. INFOCOM 1996:1198-1205
1296 Marco Ajmone Marsan, Andrea Bianco, Emilio Leonardi, Michela Meo, Fabio Neri: On the Capacity of MAC Protocols for All-Optical WDM Multi-Rings with Tunable Transmitters and Fixed Receivers. INFOCOM 1996:1206-1216
1295 George N. Rouskas, Vijay Sivaraman: On the Design of Optimal TDM Schedules for Broadcast WDM Networks. INFOCOM 1996:1217-1224
1294 Chao-Ju Hou, Bin Wang, Ching-Chih Han: Design and Analysis of a WDMA Protocol for Passive Star-Coupled Lightwave Networks. INFOCOM 1996:1225-1233
1293 Krishna M. Sivalingam, Jie Wang: Performance of a MAC Protocol for WDM Networks with On-Line Scheduling. INFOCOM 1996:1234-1241
1292 T. V. Lakshman, Arnold L. Neidhardt, Teunis J. Ott: The Drop from Front Strategy in TCP and in TCP over ATM. INFOCOM 1996:1242-1250
1291 Peter Newman, Thomas L. Lyon, Greg Minshall: Flow Labelled IP: A Connectionless Approach to ATM. INFOCOM 1996:1251-1260
1290 Jenwei Hsieh, David Hung-Chang Du, James A. MacDonald, Joseph P. Thomas, Jack Pugaczewski, Jeff Kays, Melissa Wiklund: Experimental Study of Extended HIPPI Connections over ATM Networks. INFOCOM 1996:1261-1268
1289 Hongqing Li, Kai-Yeung Siu, Hong-Yi Tzeng, Chinatsu Ikeda, Hiroshi Suzuki: A Simulation Study of TCP Performance in ATM Networks with ABR and UBR Services. INFOCOM 1996:1269-1276
1288 Victor W. C. Yau, Krzysztof Pawlikowski: A Conflict-Free Traffic Assignment Algorithm Using Forward Planning. INFOCOM 1996:1277-1284
1287 Yannis A. Korilis, Aurel A. Lazar, Ariel Orda: The Role of the Manager in a Noncooperative Network. INFOCOM 1996:1285-1293
1286 Ornan Ori Gerstel, Israel Cidon, Shmuel Zaks: Efficient Support for the Client/Server Paradigm over Heterogeneous ATM Networks. INFOCOM 1996:1294-1301
1285 Sang-Baeg Kim: An Optimal VP-Based Multicast Routing in ATM Networks. INFOCOM 1996:1302-1309
1284 Francesco Lo Presti, Zhi-Li Zhang, Donald F. Towsley: Bounds, Approximations and Applications for A Two-Queue GPS System. INFOCOM 1996:1310-1317
1283 Nail Akar, Khosrow Sohraby: A New Paradigm in Teletraffic Analysis of Communication Networks. INFOCOM 1996:1318-1326
1282 Wing Cheong Lau, San-qi Li: Sojourn-Time Analysis on Nodal Congestion in Broadband Networks and Its Impact on QoS Specifications. INFOCOM 1996:1327-1337
1281 Zhen Liu, Philippe Nain, Donald F. Towsley: Bounds on Finite Horizon QoS Metrics with Application to Call Admission. INFOCOM 1996:1338-1345
1280 Simon S. Lam, Geoffrey G. Xie: Group Priority Scheduling. INFOCOM 1996:1346-1356
1279 Jean M. McManus, Keith W. Ross: Video on Demand over ATM: Constant-Rate Transmission and Transport. INFOCOM 1996:1357-1362
1278 Antonio Iera, Salvatore Marano, Antonella Molinaro: Call-Level and Burst-Level Priorities for an Effective Management of Multimedia Services in UMTS. INFOCOM 1996:1363-1370
1277 Pawan Goyal, Harrick M. Vin: Network Algorithms and Protocol for Multimedia Servers. INFOCOM 1996:1371-1379
1276 Chai-Keong Toh: Performance Evaluation of Crossover Switch Discovery Algorithms for Wireless ATM LANs. INFOCOM 1996:1380-1387
1275 Kevin Q. Brown, Suresh Singh: A Network Architecture for Mobile Computing. INFOCOM 1996:1388-1396
1274 Ian F. Akyildiz, Joseph S. M. Ho, Mehmet Ulema: Performance Analysis of the Anchor Radio System Handover Method for Personal Access Communications System. INFOCOM 1996:1397-1404
1273 Bora A. Akyol, Donald C. Cox: Handling Mobility in a Wireless ATM Network. INFOCOM 1996:1405-1413
1272 John C.-H. Lin, Sanjoy Paul: RMTP: A Reliable Multicast Transport Protocol. INFOCOM 1996:1414-1424
1271 Matthias Grossglauser: Optimal Deterministic Timeouts for Reliable Scalable Multicast. INFOCOM 1996:1425-1432
1270 Yoram Ofek, Bülent Yener: Reliable Concurrent Multicast from Bursty Sources. INFOCOM 1996:1433-1441
1269 Alex Koifman, Stephen Zabele: Ramp: A Reliable Adaptive Multicast Protocol. INFOCOM 1996:1442-1451
1268 Minothi Parulekar, Armand M. Makowski: Trail Probabilities for a Multiplexer with Self-Similar Traffic. INFOCOM 1996:1452-1459
1267 Gerhard Haßlinger, Michael Adam: Modelling and Performance Analysis of Traffic in ATM Networks Including Autocorrelation. INFOCOM 1996:1460-1467
1266 Bong K. Ryu, Steven B. Lowen: Point Process Approaches to Modeling and Analysis of Self-Similar Traffic - Part 1: Model Construction. INFOCOM 1996:1468-1475
1265 Abdelnaser Mohammad Adas: Supporting Real Time VBR Video Using Dynamic Reservation Based on Linear Prediction. INFOCOM 1996:1476-1483
1264 Andrzej Jajszczyk, Michal Roszkiewicz: An Assigned-Buffer ATM Switching Architecture. INFOCOM 1995:2-7
1263 Einir Valdimarsson: Queueing Analysis for Shared Buffer Switching Networks for Non-Uniform Traffic. INFOCOM 1995:8-15
1262 Bin Zhou, Mohammed Atiquzzaman: Performance Analysis of Finite Output-Buffered Multistage ATM Switching Fabrics. INFOCOM 1995:16-23
1261 Leonidas Georgiadis, Israel Cidon, Roch Guérin, Asad Khamisy: Optimal Buffer Sharing. INFOCOM 1995:24-31
1260 Christian Roche, Nina Taft Plotkin: The Converging Flows Problem: An Analytical Study. INFOCOM 1995:32-39
1259 Jing-Fei Ren, Jon W. Mark: Design and Analysis of a Credit-Based Controller for Congestion Control in B-ISDN/ATM Networks. INFOCOM 1995:40-48
1258 Guven Mercankosk, Tim Moors, Antonio Cantoni: Multiplexing Spacer Outputs on Cell Emissions. INFOCOM 1995:49-55
1257 Sandeep Sibal, Kavitha Parthasarathy, Kenneth S. Vastola: Sensing the State of Voice Sources to Improve Multiplexer Performance. INFOCOM 1995:56-63
1256 Reuven Elbaum, Moshe Sidi: Topological Design of Local Area Networks Using Genetic Algorithms. INFOCOM 1995:64-71
1255 Sang-Baeg Kim: An Optimal Establishment of Virtual Path Connections for ATM Networks. INFOCOM 1995:72-79
1254 Carsten Lund, Steven Phillips, Nick Reingold: Adaptive Hodling Policies for IP over ATM Networks. INFOCOM 1995:80-87
1253 Bülent Yener, Yoram Ofek, Moti Yung: Topological Design of Loss-Free Switch-Based LANs. INFOCOM 1995:88-96
1252 Nicholas Bambos, Shou C. Chen, Gregory J. Pottie: Radio Link Admission Algorithms for Wireless Networks with Power Control and Active Link Quality Protection. INFOCOM 1995:97-104
1251 Manjari Asawa, Wayne E. Stark: Optimal Scheduling of Soft Handoffs in DS/CDMA Communication Systems. INFOCOM 1995:105-112
1250 Partha P. Bhattacharya, Leonidas Georgiadis, Arvind Krishna: Distributed Channel Allocation for PCN with Bursty Traffic. INFOCOM 1995:113-120
1249 Michele Zorzi: Mobile Radio Slotted ALOHA with Capture and Diversity. INFOCOM 1995:121-128
1248 Michael S. Borella, Biswanath Mukherjee: Efficient Scheduling of Nonuniform Packet Traffic in a WDM/TDM Local Lightwave Network with Arbitrary Transceiver Tuning Latencies. INFOCOM 1995:129-137
1247 Murat Azizoglu, Richard A. Barry, Ahmed Mokhtar: The Effects of Tuning Time in Bandwidth-Limited Optical Broadcast Networks. INFOCOM 1995:138-145
1246 Mario Gerla, B. Kannan, Prasasth Palnati: Protocols for an Optical Star Interconnect for High Speed Mesh Networks. INFOCOM 1995:146-153
1245 Eugene M. Foo, Thomas G. Robertazzi: A Distributed Global Queue Transmission Strategy for a WDM Optical Fiber Network. INFOCOM 1995:154-161
1244 Randall Landry, Ioannis Stavrakakis: Traffic Shaping of a Tagged Stream in an ATM Network: Approximate End-to-End Analysis. INFOCOM 1995:162-169
1243 Chih-Hsien Chou, Evaggelos Geraniotis: Efficient Computation of End-to-End Performance Measures for Multi-Link ATM Networks with Multi-Media Traffic. INFOCOM 1995:170-178
1242 Zubin Dittia, Jerome R. Cox Jr., Guru M. Parulkar: Design of the APIC: A High Performance ATM Host-Network Interface Chip. INFOCOM 1995:179-187
1241 Baiju V. Patel, Chatschik Bisdikian: On the Performance Behavior of ATM End-Stations. INFOCOM 1995:188-196
1240 Cheng-Shang Chang, Jay Cheng: Computable Exponential Bounds for Intree Networks with Routing. INFOCOM 1995:197-204
1239 Shigeki Shiokawa, Iwao Sasase: Performance Analysis of Mean Internodal Distance of Connective Semi-Random Networks. INFOCOM 1995:205-211
1238 James Kadirire, Graham Knight: Comparison of Dynamic Multicast Routing Algorithms for Wide-Area Packet Switched (Asynchronous Transfer Mode) Networks. INFOCOM 1995:212-219
1237 Cesar A. Johnston, D. J. Smith, Kenneth C. Young Jr.: ATMTraP: An Asynchronous Transfer Mode Traffic and Performance Measurement Tool. INFOCOM 1995:220-229
1236 Murat Alanyali, Bruce Hajek: On Simple Algorithms for Dynamic Load Balancing. INFOCOM 1995:230-238
1235 H. T. Kung, Koling Chang: Receiver-Oriented Adaptive Buffer Allocation in Credit-Based Flow Control for ATM Networks. INFOCOM 1995:239-252
1234 Giampiero Pecelli, B. G. Kim: Dynamic Behavior of Feedback Congestion Control Schemes. INFOCOM 1995:253-260
1233 Anthony J. McAuley: Error Control for Messaging Applications in a Wireless Environment. INFOCOM 1995:261-268
1232 Wei Kang Tsai, John K. Antonio, Garng M. Huang: Complexity of Gradient Projection Method for Optimal Routing in Data Networks. INFOCOM 1995:269-277
1231 Rainer Gawlick, Charles R. Kalmanek, K. G. Ramakrishnan: On-Line Routing for Permanent Virtural Circuits. INFOCOM 1995:278-288
1230 Aleksandar Kolarov, Joseph Y. Hui: Least Cost Routing in Multi-Service Networks: Part 2. INFOCOM 1995:289-296
1229 Whay Chiou Lee: Spanning Tree Method for Link State Aggregation in Large Communication Networks. INFOCOM 1995:297-302
1228 Ryutaro Kawamura, Hisaya Hadama, Ikuo Tokizawa: Implementation of Self-Healing Function in ATM Networks Based on Virtual Path Concept. INFOCOM 1995:303-311
1227 Aurel A. Lazar, Ariel Orda, Dimitrios E. Pendarakis: Virtual Path Bandwidth Allocation in Multi-User Networks. INFOCOM 1995:312-320
1226 Rainer Siebenhaar: Multiservice Call Blocking Approximations for Virtual Path Based ATM Networks with CBR and VBR Traffic. INFOCOM 1995:321-329
1225 Ornan Ori Gerstel, Adrian Segall: Dynamic Maintenance of the Virtual Path Layout. INFOCOM 1995:330-337
1224 Eitan Altman, Alain Jean-Marie: The Distribution of Delays of Dispersed Messages in an M/M/1 Queue. INFOCOM 1995:338-344
1223 Hyong W. Lee, Jon W. Mark: Characterization of Statistical Multiplexing of Heterogeneous ATM Sources. INFOCOM 1995:345-353
1222 Duan-Shin Lee: A Generalized Non-Preemptive Priority Queue. INFOCOM 1995:354-360
1221 Philip Heidelberger, Rahul Simha: Fast Simulation of a Voice-Data Multiplexer. INFOCOM 1995:361-368
1220 Fred Bauer, Anujan Varma: Degree-Constrained Multicasting in Point-to-Point Networks. INFOCOM 1995:369-376
1219 Qing Zhu, Mehrdad Parsa, J. J. Garcia-Luna-Aceves: A Source-Based Algorithm for Delay-Constrained Minimum-Cost Multicasting. INFOCOM 1995:377-385
1218 Alexandros Eleftheriadis, Sassan Pejhan, Dimitris Anastassiou: Address Management and Connection Control for Multicast Communication Applications. INFOCOM 1995:386-393
1217 Soung C. Liew: A General Packet Replication Scheme for Mutlicasting in Interconnection Networks. INFOCOM 1995:394-401
1216 Richard A. Barry, Pierre A. Humblet: Models of Blocking Probability in All-Optical Networks with and without Wavelength Changers. INFOCOM 1995:402-412
1215 Milan Kovacevic, Anthony S. Acampora: On Wavelength Translation in All-Optical Networks. INFOCOM 1995:413-422
1214 Kuo Chun Lee, Victor O. K. Li: Optimization of a WDM Optical Packet Switch with Wavelength Converters. INFOCOM 1995:423-430
1213 Alexander Birman, Aaron Kershenbaum: Routing and Wavelength Assignment Methods in Single-Hop All-Optical Networks with Blocking. INFOCOM 1995:431-438
1212 Derek Chi-yin Tse, Soung C. Liew: Video Aggregation: An Integrated Video Compression and Multiplexing Scheme for Broadband Networks. INFOCOM 1995:439-446
1211 Chan-weng Lai, Soung C. Liew: A Framework for Statistical Multiplexing onto a Variable-Bit Rate Output Channel. INFOCOM 1995:447-454
1210 Marwan Krunz, Ron Sass, Herman D. Hughes: Statistical Characteristics and Multiplexing of MPEG Streams. INFOCOM 1995:455-462
1209 Anwar Elwalid, Debasis Mitra: Analysis, Approximations and Admission Control of a Multi-Service Multiplexing System with Priorities. INFOCOM 1995:463-472
1208 Carlo Eynard, M. Lenti, Alfio Lombardo, O. Marengo, Sergio Palazzo: Performance of Data Querying Operations in Universal Mobile Telecommunication Systems (UMTS). INFOCOM 1995:473-480
1207 Ravi Jain, Yi-Bing Lin, Charles N. Lo, Seshadri Mohan: A Forwarding Strategy to Reduce Network Impacts of PCS. INFOCOM 1995:481-489
1206 Christopher Rose, Roy D. Yates: Paging Cost Minimization Under Delay Constraints. INFOCOM 1995:490-495
1205 Reuven Cohen, Baiju V. Patel, Adrian Segall: Handover in a Micro-Cell Packet Switched Mobile Network. INFOCOM 1995:496-503
1204 Nicholas F. Maxemchuk, Steven H. Low: The Use of Communications Networks to Increase Personal Privacy. INFOCOM 1995:504-512
1203 Gagan L. Choudhury, Kin K. Leung, Ward Whitt: An Inversion Algorithm for Loss Networks with State-Dependent Rates. INFOCOM 1995:513-521
1202 Sanjoy Paul, Raymond E. Miller: Locating Faults in a Systematic Manner in a Large Heterogeneous Network. INFOCOM 1995:522-529
1201 Shlomi Dolev, Dhiraj K. Pradhan, Jennifer L. Welch: Modified Tree Structure for Location Management in Mobile Environments. INFOCOM 1995:530-537
1200 Makoto Takano, Katsumi Fujita: Mulilevel Network Management by Means of System Identification. INFOCOM 1995:538-545
1199 Deh-Min Wu: Information Exchange Protocol: A New Approch for Future Network Management. INFOCOM 1995:546-552
1198 Isabelle Rouvellou, George W. Hart: Automatic Alarm Correlation for Fault Identification. INFOCOM 1995:553-561
1197 Yannis A. Korilis, Aurel A. Lazar, Ariel Orda: The Designer's Perspective to Noncooperative Networks. INFOCOM 1995:562-570
1196 Ren-Hung Hwang: Adaptive Multicast Routing in Single Rate Loss Networks. INFOCOM 1995:571-578
1195 Joseph Naor, Ariel Orda, Raphael Rom: Scheduled Hot-Potato Routing. INFOCOM 1995:579-586
1194 Ren-Hung Hwang: LLR Routing in Homogeneous VP-Based ATM Networks. INFOCOM 1995:587-593
1193 Garng M. Huang, Shan Zhu: A New HAD Algorithm for Optimal Routing of Hierarchically Structured Data Networks. INFOCOM 1995:594-601
1192 Chia-lin Hwang, San-qi Li: On the Convergence of Traffic Measurement and Queueing Analysis: A Statistical-MAtch Queueing (SMAQ) Tool. INFOCOM 1995:602-612
1191 James D. Pruneski, San-qi Li: The Linearity of Low Frequency Traffic Flow: An Intrinsic I/O Property in Queueing Systems. INFOCOM 1995:613-623
1190 Douglas C. Schmidt, Tatsuya Suda: Measuring the Performance of Parallel Message-Based Process Architectures. INFOCOM 1995:624-633
1189 Benjamin Melamed, Qiang Ren, Bhaskar Sengupta: Modeling and Analysis of a Single Server Queue with Autocorrelated Traffic. INFOCOM 1995:634-642
1188 Tianming Zhang, Arun K. Somani: DIRSMIN: A Fault-Tolerant Switch for B-ISDN Applications Using Dilated Reduced-Stage MIN. INFOCOM 1995:643-650
1187 Alexander Birman: Computing Approximate Blocking Probabilities for a Class of All-Optical Networks. INFOCOM 1995:651-658
1186 M. Alimuddin, Hussein M. Alnuweiri, Robert W. Donaldson: The Fat Banyan ATM Switch. INFOCOM 1995:659-666
1185 Blair R. Collier, Hyong S. Kim: Performance of Multistage ATM Switch Architectures Under Nonuniform Bursty Traffic. INFOCOM 1995:667-674
1184 Geetha Panchapakesan, Abhijit Sengupta: On Multihop Optical Network Topology Using Kautz Diagraphs. INFOCOM 1995:675-682
1183 Jean-François P. Labourdette: Performance Impact of Partial Reconfigurability in Lightwave Networks. INFOCOM 1995:683-691
1182 Shengming Jiang, Thomas E. Stern: Regular Multicast Multihop Lightwave Networks. INFOCOM 1995:692-700
1181 Sung-Woo Park, Young-Chon Kim: A Virtual Topology for WDM Multihop Lightwave Networks. INFOCOM 1995:701-708
1180 Faouzi Kamoun, Mustafa K. Mehmet Ali: Queueing Analysis of ATM Tandem Queues with Correlated Arrivals. INFOCOM 1995:709-716
1179 Cathy A. Fulton, San-qi Li: Delay Jitter Correlation Analysis for Traffic Transmission on High Speed Networks. INFOCOM 1995:717-727
1178 Nihat Cem Oguz, Ender Ayanoglu: Performance Analysis of Two-Level Forward Error Correction for Lost Cell Recovery in ATM Networks. INFOCOM 1995:728-737
1177 Rajesh S. Pazhyannur, Rajeev Agrawal: Analytical and Numerical Results for Feedback Based Flow Control of B-ISDN/ATM Networks with Significant Propagation Delays. INFOCOM 1995:738-745
1176 Predrag R. Jelenkovic, Benjamin Melamed: Automated TES Modeling of Compressed Video. INFOCOM 1995:746-752
1175 Gopalakrishnan Ramamurthy, Dipankar Raychaudhuri: Performance of Packet Video with Combined Error Recovery and Concealment. INFOCOM 1995:753-761
1174 M. Riyaz Ismail, Ioannis Lambadaris, Michael Devetsikiotis, A. Roger Kaye: Modelling Prioritized MPEG Video Using TES and a Frame Spreading Strategy for Transmission in ATM Networks. INFOCOM 1995:762-770
1173 Jenwei Hsieh, Mengjou Lin, Jonathan C. L. Liu, David Hung-Chang Du, Thomas Ruwart: Performance of a Mass Storage System for Video-On-Demand. INFOCOM 1995:771-778
1172 Abdelnaser Mohammad Adas, Amarnath Mukherjee: On Resource Management and QoS Guarantees for Long Range Dependent Traffic. INFOCOM 1995:779-787
1171 Jonathan C. L. Liu, David Hung-Chang Du, James A. Schnepf: Flexible Storage Placement of Digital Video Media. INFOCOM 1995:788-795
1170 Pramod Pancha, Magda El Zarki: Leaky Bucket Access Control for VBR MPEG Video. INFOCOM 1995:796-803
1169 François Théberge, Ravi Mazumdar: Approximation Formulae for Blocking Probabilities in a Large Erlang Loss System: A Probabilistic Approach. INFOCOM 1995:804-809
1168 Zbigniew Dziong, Boris Shukhman, Lorne Mason: Estimation of Aggregate Effective Bandwidth for Traffic Admission in ATM Networks. INFOCOM 1995:810-818
1167 Apostolos Dailianas, Andreas D. Bovopoulos: Design of Real-Time Admission Control Algorithms with Priority Support. INFOCOM 1995:819-826
1166 Nachum Shacham: Preemption-Based Admission Control in Multimedia Multiparty Communications. INFOCOM 1995:827-834
1165 Song Chong, San-qi Li: (sigma, rho) - Characterization Based Connection Control for Guaranteed Services in High Speed Networks. INFOCOM 1995:835-844
1164 Israel Cidon, Roch Guérin, Asad Khamisy: An Investigation of Application Level Performance in ATM Networks. INFOCOM 1995:845-852
1163 Steven H. Low, Nicholas F. Maxemchuk, Jack Brassil, Lawrence O'Gorman: Document Marking and Identification Using Both Line and Word Shifting. INFOCOM 1995:853-860
1162 Javier Gavilán, Alejandro Becerra, Ignacio Berberana: Usage of VSAT for TCP/IP Based LAN Interconnection. INFOCOM 1995:861-866
1161 Michael L. Honig, Kenneth Steiglitz: Usage-Based Pricing of Packet Data Generated by a Heterogeneous User Population. INFOCOM 1995:867-874
1160 Ching-Chih Han, Kang G. Shin: A Polynominal-Time Optimal Synchronous Bandwidth Allocation Scheme for the Timed-Token MAC Protocol. INFOCOM 1995:875-882
1159 Sibabrata Ray, Sarit Mukherjee: On Optimal Placement of Erasure Nodes on a Dual Bus Network. INFOCOM 1995:883-890
1158 Alain J. Mayer, Yoram Ofek, Moti Yung: Local Fairness in General-Topology Networks with Convergence Routing. INFOCOM 1995:891-899
1157 Deep Medhi: Multi-Hour, Multi-Traffic Class Network Design for VP-Based Wide-Area Dynamically Reconfigurable ATM Networks. INFOCOM 1995:900-907
1156 Nen-Fu Huang, Shiann-Tsong Sheu: DTCAP - A Distributed Tunable-Channel Access Protocol for Multi-Channel Photonic Dual Bus Networks. INFOCOM 1995:908-915
1155 Terence D. Todd, Adrian Grah, Oliver Barkovic: Optical Local Area Networks (LANS) Using Wavelength-Selective Couplers. INFOCOM 1995:916-923
1154 Rafael Pérez Jiménez, Victor M. Melián, Manuel J. Betancor: Analysis of Multipath Impulse Response of Diffuse and Quasi-Diffuse Optical Links for IRR-WLAN. INFOCOM 1995:924-930
1153 Paul S. Min, Hassen Saïdi, Alex Chandra, Manju V. Hegde: Multi-Channel Copy Networks: Architecture, Performance Model, Fairness, and Cell Sequencing. INFOCOM 1995:931-938
1152 Simon S. Lam, Geoffrey G. Xie: Burst Scheduling: Architecture and Algorithm for Switching Packet Video. INFOCOM 1995:940-950
1151 Ka Lun Eddie Law, Alberto Leon-Garcia: Multicast and Self-Routing in ATM Radix Trees and Banyan Networks. INFOCOM 1995:951-959
1150 Dimitrios Stiliadis, Anujan Varma: Providing Bandwidth Guarantees in an Input-Buffered Crossbar Switch. INFOCOM 1995:960-968
1149 Izhak Rubin, Hsing-kuo Hua: An All-Optical Wavelength-Division Meshed-Ring Packet-Switching Network. INFOCOM 1995:969-976
1148 Ron Addie, Moshe Zukerman, Timothy D. Neame: Fractal Traffic: Measurements, Modelling and Performance Evaluation. INFOCOM 1995:977-984
1147 Nikolay B. Likhanov, Boris Tsybakov, Nicolas D. Georganas: Analysis of an ATM Buffer with Self-Similar (Fractal) Input Traffic. INFOCOM 1995:985-992
1146 Aurelio La Corte, Alfio Lombardo, Giovanni Schembra: Modeling Superposition of ON-OFF Correlated Traffic Sources in Multimedia Applications. INFOCOM 1995:993-1000
1145 Cheng-Shang Chang, Tim Zajic: Effective Bandwidths of Departure Processes from Queues with Time Varying Capacities. INFOCOM 1995:1001-1009
1144 Yutaka Ishibashi, Shuji Tasaka: A Synchronization Mechanism for Continuous Media in Multimedia Communications. INFOCOM 1995:1010-1019
1143 Frank Schaffa, Jean-Paul Nussbaumer: On Bandwidth and Storage Tradeoffs in Multimedia Distribution Networks. INFOCOM 1995:1020-1026
1142 Naoki Wakamiya, Ken-ichi Baba, Masayuki Murata, Hideo Miyahara: Performance Analysis of Traffic Control Methods in Multimedia ATM LAN. INFOCOM 1995:1027-1036
1141 Ming Chen, Nicolas D. Georganas: Multiconnection Over Multichannels. INFOCOM 1995:1037-1043
1140 Jeffrey E. Wieselthier, Anthony Ephremides: A Mini-Product-Form-Based Solution to Data-Delay Evaluation in Wireless Integrated Voice/Data Networks. INFOCOM 1995:1044-1052
1139 Sanjoy Paul, Ender Ayanoglu, Thomas F. La Porta, Kuo-Wei Herman Chen, Krishan K. Sabnani, Richard D. Gitlin: An Asymmetric Protocol for Digital Cellular Communications. INFOCOM 1995:1053-1062
1138 M. Scott Corson, Stephen Gordon Batsell: A Reservation-Based Multicast (RBM) Routing Protocol for Mobile Networks: Overview of Initial Route Construction. INFOCOM 1995:1063-1074
1137 Mahmoud Naghshineh, Anthony S. Acampora: QOS Provisioning in Micro-Cellular Networks Supporting Multimedia Traffic. INFOCOM 1995:1075-1085
1136 Andreas Pitsillides, Jim Lambert, David Tipper: Dynamic Bandwidth Allocation in Broadband ISDN Using a Multilevel Optimal Control Approach. INFOCOM 1995:1086-1094
1135 Shanzeng Guo, Nicolas D. Georganas: Resource and Connection Admission Control in Real-Time Transport Protocols with Deterministic QoS Guarantees. INFOCOM 1995:1095-1102
1134 Jörg Liebeherr, Dongwei Liao: A Service with Bounded Degradation in Quality-of-Service Networks. INFOCOM 1995:1103-1110
1133 Jakka Sairamesh, Donald F. Ferguson, Yechiam Yemini: An Approach to Pricing, Optimal Allocation and Quality of Service Provisioning in High-Speed Packet Networks. INFOCOM 1995:1111-1119
1132 James R. Yee, N. Thomas Gaarder: Maximal Average Loss Rates for a Single GPS Server System with Finite Buffers. INFOCOM 1995:1120-1128
1131 Fabrice Guillemin, Catherine Rosenberg, Josée Mignault: On Characterizing an ATM Source via the Sustainable Cell Rate Traffic Descriptor. INFOCOM 1995:1129-1136
1130 Edward W. Knightly, Hui Zhang: Traffic Characterization and Switch Utilization Using a Deterministic Bounding Interval Dependent Traffic Model. INFOCOM 1995:1137-1145
1129 K. Kant: Analysis of Delay Performance of ATM Signaling Link. INFOCOM 1995:1146-1153
1128 Gregory B. Brewster, Mary K. Vernon: The Fairness of DQDB Networks with Slot Reuse. INFOCOM 1995:1154-1163
1127 Ching-Chih Han, Chao-Ju Hou, Kang G. Shin: On Slot Allocation for Time-Constrained Messages in DQDB Networks. INFOCOM 1995:1164-1171
1126 Lakshmana N. Kumar, Christos Douligeris: Fairness by Demand and Service Pattern Match: The Alpha Tuning Mechanism for DQDB MANs. INFOCOM 1995:1172-1179
1125 Oran Sharon: A Proof for Lack of Starvation in DQDB with and without Slot Reuse. INFOCOM 1995:1180-1187
1124 Brian Field, Taieb Znati, Daniel Mossé: V-Net: A Framework for a Versatile Network Architecture to Support Real-Time Communication Performance Guarantees. INFOCOM 1995:1188-1196
1123 J. J. Garcia-Luna-Aceves, Shree Murthy: A Loop-Free Path-Finding Algorithm: Specification, Verification and Complexity. INFOCOM 1995:1197-1205
1122 Wang-Jiunn Cheng, Wen-Tsuen Chen: A Simple Architecture for ATM Switching Systems. INFOCOM 1995:1206-1213
1121 Israel Cidon, Raphael Rom, Yuval Shavitt: A Fast Bypass Algorithm for High-Speed Networks. INFOCOM 1995:1214-1221
1120 Adarshpal S. Sethi: A Model for Virtual Tree Bandwidth Allocation in ATM Networks. INFOCOM 1995:1222-1229
1119 Amit Gupta, Wingwai Howe, Mark Moran, Quyen Nguyen: Resource Sharing for Multi-Party Real-Time Communication. INFOCOM 1995:1230-1237
1118 Lorne Mason, Anne Pelletier, Jacques Lapointe: Towards Optimal Policing in ATM Networks. INFOCOM 1995:1238-1247
1117 Joseph S. M. Ho, Hüseyin Uzunalioglu, Ian F. Akyildiz: Cooperating Leaky Bucket for Average Rate Enforcement of VBR Video Traffic in ATM Networks. INFOCOM 1995:1248-1255
1116 Israel Cidon, Raphael Rom, Yuval Shavitt: Analysis of One-Way Reservation Algorithms. INFOCOM 1995:1256-1263
1115 Ahmed E. Kamal: A Performance Study of Selective Cell Discarding Using the End-of-Packet Indicator in AAL Type 5. INFOCOM 1995:1264-1272
1114 Giuseppe Anastasi, Luciano Lenzini, P. Motta: Performance Evaluations of a MetaRing MAC Protocol Integrating Video and Data Traffics in an Interconnected Environment. INFOCOM 1995:1273-1281
1113 Priya N. Werahera, Anura P. Jayasumana, Duane C. Boes: A Nonpreemptive Priority Delay Model with Modified-Vacation Intervals for Homogeneous FDDI Networks. INFOCOM 1995:1282-1289
1112 Zhensheng Zhang, Duanyang Guo, Anthony S. Acampora: Logarithmically Scalable Routing Algorithms in Large Optical Networks. INFOCOM 1995:1290-1299
1111 Chien Chen, Subrata Banerjee: Optical Switch Configuration and Lightpath Assignment in Wavelength Routing Multihop Lightwave Networks. INFOCOM 1995:1300-1307
1110 Vivek Tandon, Mark Wilby, Fraser Burton: A Novel Upgrade Path for Transparent Optical Networks Based on Wavelength Reuse. INFOCOM 1995:1308-1315
1109 Rajiv Ramaswami, Kumar N. Sivarajan: Design of Logical Topologies for Wavelength-Routed All-Optical Networks. INFOCOM 1995:1316-1325
1108 Symeon Papavassiliou, Leandros Tassiulas, P. Tandon: Meeting QoS Requirements in a Cellular Network with Reuse Partitioning. INFOCOM 1994:4-12
1107 M. Scott Corson: On the Spectrum Efficiency of a Cellular System based on Multi-Receiver, Multiple Access (MRMA). INFOCOM 1994:13-20
1106 Shou C. Chen, Nicholas Bambos, Gregory J. Pottie: Admission Control Schemes for Wireless Communication Networks with Adjustable Transmitter Powers. INFOCOM 1994:21-28
1105 Jeffrey E. Wieselthier, Craig M. Barnhart, Anthony Ephremides: Ordinal Optimization of Admission Control in Wireless Multihop Voice/Data Networks Via Standard Clock Simulation. INFOCOM 1994:29-38
1104 Nitin Gogate, Shivendra S. Panwar: On a Resequencing Model for High Speed Networks. INFOCOM 1994:40-47
1103 Ron Addie, Moshe Zukerman: Queueing Performance of a Tree Type ATM Network. INFOCOM 1994:48-55
1102 Harry A. B. van de Vlag, Geert A. Awater: Exact Computation of Time and Call Blocking Probabilities in Multi-Traffic Circuit-Switched Networks. INFOCOM 1994:56-65
1101 Leandros Tassiulas, Leonidas Georgiadis: Any Work-Conserving Policy Stabilizes the Ring with Spatial Reuse. INFOCOM 1994:66-70
1100 Gopalakrishnan Ramamurthy, Rajiv S. Dighe: Performance Analysis of Multilevel Congestion Controls in BISDN. INFOCOM 1994:72-80
1099 Song Chong, San-qi Li, Joydeep Ghosh: Dynamic Bandwidth Allocation for Efficient Transport of Real-Time VBR Video over ATM. INFOCOM 1994:81-90
1098 Yu Gong, Ian F. Akyildiz: Dynamic Traffic Control Using Feedback and Traffic Prediction in ATM Networks. INFOCOM 1994:91-98
1097 Nanying Yin, Michael G. Hluchyj: On Closed-Loop Rate Control for ATM Cell Relay Networks. INFOCOM 1994:99-108
1096 Biswanath Mukherjee, S. Ramamurthy, Dhritiman Banerjee, Amarnath Mukherjee: Some Principles for Designing a Wide-Area Optical Network. INFOCOM 1994:110-119
1095 Flaminio Borgonovo, Luigi Fratta, Joseph A. Bannister: On the Design of Optical Deflection-Routing Networks. INFOCOM 1994:120-129
1094 Chung-Sheng Li, Franklin Fuk-Kay Tong, Christos J. Georgiou, Monsong Chen: Gain Equalization in Metropolitan and Wide Area Optical Networks using Optical Amplifiers. INFOCOM 1994:130-137
1093 Bülent Yener, Terrance E. Boult: A Study of Upper and Lower Bounds for Minimum Congestion Routing in Lightwave Networks. INFOCOM 1994:138-147
1092 C. N. Gupta, Joseph B. Evans: Performance Scalability in ATM Networks. INFOCOM 1994:150-158
1091 Dipak Ghosal, T. V. Lakshman, Yennun Huang: High-Speed Protocol Processing Using Parallel Architectures. INFOCOM 1994:159-166
1090 Abhaya Asthana, Paul Krzyzanowski: A Memory Participative Architecture for High Performance Communication Systems. INFOCOM 1994:167-174
1089 Joseph D. Touch, David J. Farber: An Experiment in Latency Reduction. INFOCOM 1994:175-181
1088 Reuven Cohen, Adrian Segall: Connection Management and Rerouting in ATM Networks. INFOCOM 1994:184-191
1087 Sanghyun Ahn, Rose P. Tsang, Sheau-Ru Tong, David Hung-Chang Du: Virtual Path Layout Design on ATM Networks. INFOCOM 1994:192-200
1086 Hisaya Hadama, Ryutaro Kawamura, Tsutomu Izaki, Ikuo Tokizawa: Direct Virtual Path Configuration in Large-Scale ATM Networks. INFOCOM 1994:201-207
1085 Kazutaka Murakami, Hyong S. Kim: Near-Optimal Virtual Path Routing for Survivable ATM Networks. INFOCOM 1994:208-215
1084 Israel Cidon, Asad Khamisy, Moshe Sidi: Dispersed Messages in Discrete-Time Queues: Delay, Jitter and Threshold Crossing. INFOCOM 1994:218-223
1083 Randall Landry, Ioannis Stavrakakis: Non-Deterministic Periodic Packet Streams and their Impact on a Finite-Capacity Multiplexer. INFOCOM 1994:224-231
1082 Wassim Matragi, Chatschik Bisdikian, Khosrow Sohraby: Jitter Calculus in ATM Networks: Single Node Case. INFOCOM 1994:232-241
1081 Wassim Matragi, Chatschik Bisdikian, Khosrow Sohraby: Jitter Calculus in ATM Networks: Multiple Node Case. INFOCOM 1994:242-251
1080 Bhargav R. Bellur, Galen H. Sasaki, Shao Ming Chai: Performance Evaluation of MetaNet Routing. INFOCOM 1994:254-262
1079 Adrian Grah, Terence D. Todd: Simplified Photonic Bus and Ring Networks Using a Headend Controller. INFOCOM 1994:263-271
1078 Debanjan Saha, Manas Saksena, Sarit Mukherjee, Satish K. Tripathi: On Guaranteed Delivery of Time-Critical Messages in DQDB. INFOCOM 1994:272-279
1077 Mete Kabatepe, Kenneth S. Vastola: Bandwidth Allocation in Fair Distributed Queue (FDQ) Networks. INFOCOM 1994:280-287
1076 David X. Chen, Jon W. Mark: Multicasting in the SCOQ Switch. INFOCOM 1994:290-297
1075 Jonathan S. Turner: An Optimal Non-blocking Multicast Virtual Circuit Switch. INFOCOM 1994:298-305
1074 Xiaoqiang Chen, Vijay Kumar: Multicast Routing in Self-Routing Multistage Networks. INFOCOM 1994:306-314
1073 Hirotaka Saito, Hideaki Yamanaka, Hirotoshi Yamada, Munenori Tsuzuki, Harofusa Kondoh, Yoshio Matsuda, Kazuyoshi Oshima: Multicast Function and its LSI Implementation in a Shared Multibuffer ATM Switch. INFOCOM 1994:315-322
1072 Ie-Hong Lin, Evaggelos Geraniotis: The Tradeoff Between Blocking and Dropping in Circuit-Switched Networks of Video Users. INFOCOM 1994:324-333
1071 Paul Skelly, Giovanni Pacifici, Mischa Schwartz: A Cell and Burst Level Control Framework for Integrated Video and Image Traffic. INFOCOM 1994:334-341
1070 Ness B. Shroff, Mischa Schwartz: Video Modeling within Networks using Deterministic Smoothing at the Source. INFOCOM 1994:342-349
1069 Sze Keong Chan, Alberto Leon-Garcia: Analysis of Cell Inter-arrival from VBR Video Codecs. INFOCOM 1994:350-357
1068 Jimmy H. S. Chan, Danny H. K. Tsang: Bandwidth Allocation of Multiple QoS Classes in ATM Environment. INFOCOM 1994:360-367
1067 Steven H. Low, Pravin Varaiya: An Algorithm for Optimal Service Provisioning using Resource Pricing. INFOCOM 1994:368-373
1066 Andrea Baiocchi, Nicola Blefari-Melazzi, Francesca Cuomo, Marco Listanti: Achieving Statistical Gain in ATM Networks with the Same Complexity as Peak Allocation Strategy. INFOCOM 1994:374-382
1065 Ning Xiao, Felix Wu, Shau-Ming Lun: Dynamic Bandwidth Allocation Using Infinitesimal Perturbation Analysis. INFOCOM 1994:383-389
1064 Khaled A. Aly, Patrick W. Dowd: A Class of Scalable Optical Interconnection Networks Through Discrete Broadcast-Select Multi-Domain WDM. INFOCOM 1994:392-399
1063 Patrick W. Dowd, Krishna M. Sivalingam: A Multi-Level WDM Access Protocol for an Optically Interconnected Parallel Computer. INFOCOM 1994:400-408
1062 Tat-Keung Chan, Tak-Shing Peter Yum: Active Node Placement in SuffleNets. INFOCOM 1994:409-414
1061 Alberto Bononi, Paul R. Prucnal: New Structures of the Optical Node in Multihop Transparent Optical Networks with Deflection Routing. INFOCOM 1994:415-422
1060 Chung-Sheng Li, Yoram Ofek, Adrian Segall, Khosrow Sohraby: Pseudo-Isochronous Cell Switching in ATM Networks. INFOCOM 1994:428-437
1059 Shuo-Yen Robert Li: Formalization of Self-route Networks and the Rotary Switch. INFOCOM 1994:438-446
1058 Paul Dietrich, Ramesh R. Rao: Delay Analysis of a Circuit-Switched Interconnection Network With Non-Uniform Traffic. INFOCOM 1994:447-454
1057 Ellen W. Zegura: An Improved Model for Evaluating Blocking Probability in Generalized Connectors. INFOCOM 1994:455-463
1056 Gustavo de Veciana, Costas Courcoubetis, Jean C. Walrand: Decoupling Bandwidths for Networks: A Decomposition Approach to Resource Management. INFOCOM 1994:466-473
1055 Tetsuya Takine, Bhaskar Sengupta, Toshiharu Hasegawa: A Conformance Measure for Traffic Shaping in High-Speed Networks with an Application to the Leaky Bucket. INFOCOM 1994:474-481
1054 Daniel Chonghwan Lee: Effects of Leaky Bucket Parameters on the Average Queueing Delay: Worst Case Analysis. INFOCOM 1994:482-489
1053 Dimitris Logothetis, Kishor S. Trivedi: Transient Analysis of the Leaky Bucket Rate Control Scheme Under Poisson and ON-OFF Sources. INFOCOM 1994:490-497
1052 Chung G. Chang, Harry H. Tan: Queueing Analysis of Explicit Policy Assignmant Push-Out Buffer Sharing Schemes for ATM Networks. INFOCOM 1994:500-509
1051 Pierre A. Humblet, Whay Chiou Lee, Michael G. Hluchyj: Buffer Allocation for Frame Reassembly and Queueing in ATM Networks. INFOCOM 1994:510-515
1050 Subhash Suri, David Tipper, Gopal Meempat: A Comparative Evaluation of Space Priority Strategies in ATM Networks. INFOCOM 1994:516-523
1049 Leonidas Georgiadis, Roch Guérin, Abhay K. Parekh: Optimal Multiplexing on a Single Link: Delay and Buffer Requirements. INFOCOM 1994:524-532
1048 Zhensheng Zhang, Anthony S. Acampora: A Heuristic Wavelength Assignment Algorithm for Multihop WDM Networks with Wavelength Routing and Wavelength Reuse. INFOCOM 1994:534-543
1047 Milan Kovacevic, Mario Gerla, Joseph A. Bannister: On the Performance of Shared-Channel Multihop Lightwave Networks. INFOCOM 1994:544-551
1046 Nen-Fu Huang, Chiung-Shien Wu, Gin-Kou Ma: A Time-Wavelength Scheduling Algorithm for Interconnected WDM Star Networks. INFOCOM 1994:552-559
1045 Eugene Pinsky, Adrian E. Conway: Stochastic Modeling and Analysis of WDM Lightwave Networks. INFOCOM 1994:560-568
1044 Amotz Bar-Noy, Ilan Kessler, Moshe Sidi: Mobile Users: To Uptdate or not to Update? INFOCOM 1994:570-576
1043 Upamanyu Madhow, Michael L. Honig, Kenneth Steiglitz: Optimization of Wireless Resources for Personal Communications Mobility Tracking. INFOCOM 1994:577-584
1042 Yi-Bing Lin, Wai Chen: Call Request Buffering in a PCS Network. INFOCOM 1994:585-592
1041 Arif Merchant, Bhaskar Sengupta: Multiway Graph Partitioning with Applications to PCS Networks. INFOCOM 1994:593-600
1040 Pravin Bhagwat, Partho Pratim Mishra, Satish K. Tripathi: Effect of Topology on Performance of Reliable Multicast Communication. INFOCOM 1994:602-609
1039 David Brady, Lazaros F. Merakos: Throughput Performance of Multiuser Detection in Unslotted Contention Channels. INFOCOM 1994:610-617
1038 Scott K. Walley, Harry H. Tan, Audrey M. Viterbi: Limit Distributions for the Diameter and the Shortest Path Hop Count in Random Graphs with Positive Integer Edge Costs. INFOCOM 1994:618-627
1037 Opher Yaron, Moshe Sidi: Generalized Processor Sharing Networks with Exponentially Bounded Burstiness Arrivals. INFOCOM 1994:628-634
1036 S. Jamaloddin Golestani: A Self-Clocked Fair Queueing Scheme for Broadband Applications. INFOCOM 1994:636-646
1035 Pedro I. Sánchez, Ravi Mazumdar: A Definition of Congestion: Applications to ATM Bandwidth Management. INFOCOM 1994:647-654
1034 Leandros Tassiulas: Link-level Scheduling for Network-level Performance. INFOCOM 1994:655-661
1033 T. V. Lakshman, Daniel P. Heyman: Source Models for VBR Broadcast-Video Traffic. INFOCOM 1994:664-671
1032 Antonio Ortega, Z. Zhang, Martin Vetterli: A Framework for Optimization of a Multiresolution Remote Image Retrieval System. INFOCOM 1994:672-679
1031 Ramachandran Ramjee, James F. Kurose, Donald F. Towsley, Henning Schulzrinne: Adaptive Playout Mechanisms for Packetized Audio Applications in Wide-Area Networks. INFOCOM 1994:680-688
1030 Brian DeCleene, Pramod Pancha, Magda El Zarki, Henrik V. Sorensen: Comparison of Priority Partition Methods for VBR MPEG. INFOCOM 1994:689-696
1029 Colin Parris, Hui Zhang, Domenico Ferrari: A Dynamic Management Scheme for Real-Time Connections. INFOCOM 1994:698-707
1028 Hyong W. Lee, Jon W. Mark: Capacity Allocation in Statistical Multiplexing of ATM Sources. INFOCOM 1994:708-715
1027 Danny J. Mitzel, Deborah Estrin, Scott Shenker, Lixia Zhang: An Architectural Comparison of ST-II and RSVP. INFOCOM 1994:716-725
1026 Seyyed M.-R. Mahdavian, Andreas D. Bovopoulos: Effective Loss of Multiplexed ATM Cell Streams. INFOCOM 1994:726-733
1025 Ahmed N. Tantawy, Chatschik Bisdikian: Source Assisted Partial Destination Slot Release in Slotted Networks. INFOCOM 1994:736-741
1024 Dennis Karvelas, Michail Papamichail: An Effective Priority Mechanism for High Speed MANs. INFOCOM 1994:742-749
1023 Dennis Karvelas, Michail Papamichail: Performance Study of the NSW-IUT Bandwidth Balancing Mechanism. INFOCOM 1994:750-757
1022 Oran Sharon, Adrian Segall: On the Efficiency of Slot Reuse in the Dual Bus Configuration. INFOCOM 1994:758-765
1021 Ming Yu Yao, Alexandre Petrenko, Gregor von Bochmann: Fault Coverage Analysis in Respect to an FSM Specification. INFOCOM 1994:768-775
1020 Baruch Awerbuch, Boaz Patt-Shamir, George Varghese: Bounding the Unbounded. INFOCOM 1994:776-783
1019 Russell J. Clark, Kenneth L. Calvert, Mostafa H. Ammar: On the Use of Directory Services to Support Multiprotocol Interoperability. INFOCOM 1994:784-791
1018 Samuel T. Chanson, Jinsong Zhu: Automatic Protocol Test Suite Derivation. INFOCOM 1994:792-799
1017 Yoram Ofek, Moti Yung: The Integrated MetaNet Architecture: A Switch-Based Multimedia LAN for Parallel Computing and Real-Time Traffic. INFOCOM 1994:802-811
1016 You Ze Cho, Alberto Leon-Garcia: Performance of Burst-Level Bandwidth Reservation in ATM LANs. INFOCOM 1994:812-820
1015 Reuven Cohen, Baiju V. Patel, Frank Schaffa, Marc Willebeek-LeMair: The Sink Tree Paradigm: Connectionless Traffic Support on ATM LANs. INFOCOM 1994:821-828
1014 Chinatsu Ikeda, Hiroshi Suzuki: Adaptive Congestion Control Schemes for ATM LANs. INFOCOM 1994:829-838
1013 Shun Yan Cheung, Akhil Kumar: Efficient Quorumcast Routing Algorithms. INFOCOM 1994:840-847
1012 Mostafa H. Ammar: Probabilistic Multicast: Generalizing the Multicast Paradigm to Improve Scalability. INFOCOM 1994:848-855
1011 Nachum Shacham, James S. Meditch: An Algorithm for Optimal Multicast of Multimedia Streams. INFOCOM 1994:856-864
1010 Ciro Aloisio Noronha Jr., Fouad A. Tobagi: Optimum Routing of Multicast Streams. INFOCOM 1994:865-873
1009 Maurice Gagnaire, Nicolas Cartier: Source Policing at the Output of a DQDB/B-ISDN Interconnection Gateway. INFOCOM 1994:876-883
1008 Christian Roche, Serge Fdida: A Dynamic Resource Management Mechanism for LAN Interconnections across High-Speed Networks. INFOCOM 1994:884-891
1007 Tsau Young Lin, Y. C. Chen: A Congestion Control Approach for LAN/MAN Interconnection via ATM. INFOCOM 1994:892-901
1006 Jack Brassil: Peak Rate Regulation Maintains Service Quality in ATM LAN/WAN Interconnection. INFOCOM 1994:902-909
1005 Panagiotis N. Zarros, Myung J. Lee, Tarek N. Saadawi: Statistical Synchronization Among Participants in Real-Time Multimedia Conference. INFOCOM 1994:912-919
1004 Miae Woo, Arif Ghafoor: Multichannel Scheduling for Communication of Pre-orchestrated Multimedia Information. INFOCOM 1994:920-927
1003 Chun-Chuan Yang, Jau-Hsiung Huang: A Real-Time Synchronization Model and Transport Protocol for Multimedia Applications. INFOCOM 1994:928-935
1002 Cormac J. Sreenan: A Service Oriented Approach to Continuous Media Synchronization. INFOCOM 1994:936-943
1001 Kuo Chun Lee, Victor O. K. Li: Routing for All-Optical Networks Using Wavelengths Outside Erbium-Doped Fiber Amplifier Bandwidth. INFOCOM 1994:946-953
1000 Kuo Chun Lee, Victor O. K. Li: A Circuit Rerouting Algorithm for All-Optical Wide-Area Networks. INFOCOM 1994:954-961
999 Kit-Man Chan, Tak-Shing Peter Yum: Analysis of Least Congested Path Routing in WDM Lightwave Networks. INFOCOM 1994:962-969
998 Rajiv Ramaswami, Kumar N. Sivarajan: Optimal Routing and Wavelength Assignment in All-Optical Networks. INFOCOM 1994:970-979
997 Reuven Cohen, Yoram Ofek: Reliable Transmission of Data Over a Semi-FIFO Routing Layer. INFOCOM 1994:984-991
996 Ibrahim Matta, A. Udaya Shankar: Type-of-Service Routing in Dynamic Datagram Networks. INFOCOM 1994:992-999
995 J. J. Garcia-Luna-Aceves, William T. Zaumen: Area-Based, Loop-Free Internet Routing. INFOCOM 1994:1000-1008
994 Cengiz Alaettinoglu, A. Udaya Shankar: Viewserver Hierarchy: A New Inter-Domain Routing Protocol. INFOCOM 1994:1009-1016
993 San-qi Li, Chia-lin Hwang: On Input State Space Reduction and Buffer Noneffective Region. INFOCOM 1994:1018-1028
992 Kin K. Leung, William A. Massey, Ward Whitt: Traffic Models for Wireless Communication Networks. INFOCOM 1994:1029-1037
991 Nina Taft Plotkin, Pravin Varaiya: The Entropy of Traffic Streams in ATM Virtual Circuits. INFOCOM 1994:1038-1045
990 Chiu Yeung Ngo, Victor O. K. Li: Poisson Approximation of Input Traffic Sources in Asynchronous Transfer Mode (ATM) Networks. INFOCOM 1994:1046-1053
989 Vidyadhar G. Kulkarni, Levent Gün, Phillip F. Chimento Jr.: Effective Bandwidth Vector for Two-Priority ATM Traffic. INFOCOM 1994:1056-1064
988 Apostolos Dailianas, Andreas D. Bovopoulos: Real-Time Admission Control Algorithms with Delay and Loss Guarantees in ATM Networks. INFOCOM 1994:1065-1072
987 Whay Chiou Lee, Michael G. Hluchyj: Dynamic Connection Management for Call-Level QOS Guarantee in Integrated Communication Networks. INFOCOM 1994:1073-1082
986 Andreas Pitsillides, Jim Lambert: Adaptive Connection Admission and Flow Control: Quality of Service with High Utilization. INFOCOM 1994:1083-1091
985 Ismail Dalgic, William Chien, Fouad A. Tobagi: Evaluation of 10Base-T and 100-Base-T Ethernets Carrying Video, Audio, and Data Traffic. INFOCOM 1994:1094-1102
984 Israel Cidon, Leonidas Georgiadis, Roch Guérin, Yuval Shavitt: Improved Fairness Algorithms for Rings with Spatial Reuse. INFOCOM 1994:1103-1111
983 Irfan Ali, Kenneth S. Vastola: The Shifting Cycle-Gated (SCG) Protocol for High Speed Bus Networks. INFOCOM 1994:1112-1119
982 Simone Breuer, Thomas Meuser: Enhanced Throughput in Slotted Rings Employing Spatial Slot Reuse. INFOCOM 1994:1120-1129
981 Huzur Saran, Srinivasan Keshav: An Empirical Evaluation of Virtual Circuit Holding Times in IP-Over-ATM Networks. INFOCOM 1994:1132-1140
980 Cynthia Bagwell Tipper, John N. Daigle: ATM Cell Delay and Loss for Best-Effort TCP in the Presence of Isochronous Traffic. INFOCOM 1994:1141-1149
979 Kenji Kawahara, Kazumi Kumazoe, Tetsuya Takine, Yuji Oie: Forward Error Correction in ATM Networks: An Analysis of Cell Loss Distribution in a Block. INFOCOM 1994:1150-1159
978 Philip Dumortier, Luc Van Hauwermeiren, Joost Boerjan: Transport of Gigabit ATM Cell Streams over Lower Order SDH Backbone. INFOCOM 1994:1160-1167
977 Ron Addie: Tails of Stationary Distributions of Queued Work. INFOCOM 1994:1170-1177
976 Chatschik Bisdikian: The Random N-Policy. INFOCOM 1994:1178-1182
975 Yann-Hang Lee, Kiran J. Achyutuni: Managing Multiple Disjoint Priority Orders in Priority Queues. INFOCOM 1994:1183-1190
974 Eitan Altman, Alain Jean-Marie: The Loss Process of Messages in an M/M/1/K Queue. INFOCOM 1994:1191-1198
973 Chung-Ju Chang, Ray-Guang Cheng: Traffic Control in an ATM Network Using Fuzzy Set Theory. INFOCOM 1994:1200-1207
972 Greg Bernstein, Derrick H. Nguyen: Blocking Reduction in Fast Reservation Protocols. INFOCOM 1994:1208-1215
971 Jean-Chrysostome Bolot, Thierry Turletti: A Rate Control Mechanism for Packet Video in the Internet. INFOCOM 1994:1216-1223
970 Fengmin Gong, Guru M. Parulkar: Study of Two-Level Flow Control Scheme and Buffering Strategies. INFOCOM 1994:1224-1233
969 Subrata Banerjee, Dilip Sarkar: Hypercube Connected Rings: A Fault-Tolerant and Scalable Architecture for Virtual Lightwave Network Topology. INFOCOM 1994:1236-1243
968 Guoping Liu, Kyungsook Y. Lee, Harry F. Jordan: Time Division Multiplexed de Bruijn Network and ShuffleNet for Optical Communications. INFOCOM 1994:1244-1251
967 Philip P. To: Reconfigurability of ShuffleNets in Multi-Star Implementation. INFOCOM 1994:1252-1259
966 K. Wendy Tang: CayleyNet: A Multihop WDM-Based Lightwave Network. INFOCOM 1994:1260-1267
965 Kiyoto Tanaka, Ikuro Oyaizu: A Confidentiality System for ISDN inter-PC High-Speed File Transfer. INFOCOM 1994:1270-1277
964 Jack Brassil, Steven H. Low, Nicholas F. Maxemchuk, Lawrence O'Gorman: Electronic Marketing and Identification Techniques to Discourage Document Copying. INFOCOM 1994:1278-1287
963 Shiuh-Pyng Shieh, Hung-Min Sun: On Constructing Secret Sharing Schemes. INFOCOM 1994:1288-1292
962 Young Bae Choi, In Kuan Cheang, Adrian Tang: Design of the Virtually Integrated Database Management System and the X500 Directory Service for the Human Genome Project. INFOCOM 1994:1293-1300
961 Hossam S. Hassanein, Johnny W. Wong, Jon W. Mark: An Effective Erasure Node Algorithm for Slot Reuse in DQDB. INFOCOM 1994:1302-1309
960 Shanzeng Guo, Kee Chaing Chua, Kin Mun Lye: Rate-Based Headend Request Control Protocol for MAN. INFOCOM 1994:1310-1317
959 Nen-Fu Huang, Huey-Ing Liu, Gin-Kuo Ma: A Study of Isochronous Channel Reuse in DQDB Metropolitan Area Networks. INFOCOM 1994:1318-1325
958 Nageswara S. V. Rao, Kurt Maly, Stephan Olariu, Sudheer Dharanikota, Liping Zhang, David Game: Average Waiting Time Profiles of Uniform DQDB Model. INFOCOM 1994:1326-1333
957 Andrea E. F. Clementi, Miriam Di Ianni: Optimum Schedule Problems in Store and Forward Networks. INFOCOM 1994:1336-1343
956 Timothy Weller, Bruce Hajek: Scheduling Nonuniform Traffic in a Packet Switching System with Small Propagation Delay. INFOCOM 1994:1344-1351
955 Henning Schulzrinne, James F. Kurose, Donald F. Towsley: An Evaluation of Scheduling Mechanisms for Providing Best-Effort Real-Time Communication in Wide-Area Networks. INFOCOM 1994:1352-1361
954 Feiling Jia, Biswanath Mukherjee, Jason Iness, Suresh Ojha: Variable-Length Message Scheduling Algorithms for a WDM-Based Local Lightwave Network. INFOCOM 1994:1362-1369
953 Marc Willebeek-LeMair, Perwez Shahabuddin: Approximating Dependability Measures of FDDI Networks. INFOCOM 1994:1372-1381
952 Jiansheng Yin, Charles B. Silio Jr.: Reliability of FDDI's Dual Homing Network Architecture. INFOCOM 1994:1382-1389
951 Sanjay Kamat, Gopal Agrawal, Wei Zhao: On Available Bandwidth in FDDI-Based Reconfigurable Networks. INFOCOM 1994:1390-1397
950 Ahmed E. Kamal: A Scheme for the Management of Isochronous and Asynchronous Bandwidth in Ring Networks. INFOCOM 1994:1398-1407
949 Abhijit K. Choudhury, Ellen L. Hahne: Buffer Management in a Hierarchical Shared Memory Switch. INFOCOM 1994:1410-1419
948 Hassen Saïdi, Paul S. Min, Manju V. Hegde: Guaranteed Cell Sequence in Nonblocking Multi-channel Switching. INFOCOM 1994:1420-1427
947 Martino DeMarco, Achille Pattavina: Distributed Routing Protocols for ATM Extended Banyan Networks. INFOCOM 1994:1428-1437
946 Paul Landsberg, Charles A. Zukowski: Generic Queue Scheduling: Concepts and VLSI. INFOCOM 1994:1438-1445
945 Bin Zhou, Mohammed Atiquzzaman: Performance of Output-Multibuffered Multistage Interconnection Networks Under General Traffic Patterns. INFOCOM 1994:1448-1455
944 Byeong-Seog Choe, H. Jonathan Chao: Fault Tolerance of A Large-Scale Multicast Output Buffered ATM Switch. INFOCOM 1994:1456-1464
943 Tsern-Huei Lee, Shun-Jee Liu: Performance Analysis of a Large-Scale ATM Switch with Input and Output Buffers. INFOCOM 1994:1465-1471
942 Byeong-Seog Choe, H. Jonathan Chao: Performance Analysis of a Large-Scale Multicast Output Buffered ATM Switch. INFOCOM 1994:1472-1479
941 Aleksandar Kolarov, Joseph Y. Hui: Least Cost Routing in Multiple-Service Networks. INFOCOM 1994:1482-1489
940 Reuven Cohen: Smooth Intentional Rerouting and its Applications in ATM Networks. INFOCOM 1994:1490-1497
939 Ramesh Bhandari: Optimal Diverse Routing in Telecommunication Fiber Networks. INFOCOM 1994:1498-1508
938 Ren-Hung Hwang, James F. Kurose, Donald F. Towsley: MDP Routing in ATM Networks Using the Virtual Path Concept. INFOCOM 1994:1509-1517
937 George N. Rouskas, Mostafa H. Ammar: Multi-Destination Communication Over Single-Hop Lightwave WDM Networks. INFOCOM 1994:1520-1527
936 Srinivasan Tridandapani, James S. Meditch, Arun K. Somani: The MaTPi Protocol: Masking Tuning Times Through Pipelining in WDM Optical Networks. INFOCOM 1994:1528-1535
935 B. Kannan, Shivi Fotedar, Mario Gerla: A Protocol for WDM Star Coupler Network. INFOCOM 1994:1536-1543
934 Duanyang Guo, Yechiam Yemini, Zhensheng Zhang: Scalable High-Speed Protocols for WDM Optical Star Networks. INFOCOM 1994:1544-1549
933 Steven H. Low, Pravin Varaiya: Burstiness Bounds for Some Burst Reducing Servers. INFOCOM 1993:2-9
932 Ji Zhang: Performance Study of Markov Modulated Fluid Flow Models with Priority Traffic. INFOCOM 1993:10-17
931 Hong-Dah Sheng, San-qi Li: Second Order Effect of Binary Sources on Characteristics of Queue and Loss Rate. INFOCOM 1993:18-27
930 Hervé Dupuis, Bruce Hajek: Simple Formulas for Multiplexing Delay for Independent Regenerative Sources. INFOCOM 1993:28-35
929 Marco Ajmone Marsan, Andrea Bianco, Emilio Leonardi, Fabio Neri: A Comparison of Regular Topologies for All-Optical Networks. INFOCOM 1993:36-47
928 Leonid Kazovsky, Charles F. Barry, Michael Hickey, Ciro Aloisio Noronha Jr., Pierluigi Poggiolini: A Multi-Gbit/s Optical LAN Utilizing a Passive WDM Star: Towards an Experimental Prototype. INFOCOM 1993:48-56
927 Aura Ganz, Bo Li: A Packet-Switched WDM Passive Optical Star Based Metropolitan Area Network. INFOCOM 1993:57-64
926 Patrick W. Dowd, Kalyani Bogineni: Switching Latency Overlap Techniques for WDM Star-Coupled Media Access Protocols. INFOCOM 1993:65-74
925 Rosario Aiello, Elena Pagani, Gian Paolo Rossi: Design of a Reliable Multicast Protocol. INFOCOM 1993:75-81
924 Matthew Doar, Ian M. Leslie: How Bad is Naïve Multicast Routing? INFOCOM 1993:82-89
923 Reuven Cohen, Yoram Ofek: Label Swapping Routing with Self-Termination. INFOCOM 1993:90-97
922 Mostafa H. Ammar, Shun Yan Cheung, Caterina M. Scoglio: Routing Multipoint Connections Using Virtual Paths in an ATM Network. INFOCOM 1993:98-105
921 Samuel T. Chanson, Jinsong Zhu: A Unified Approach to Protocol Test Sequence Generation. INFOCOM 1993:106-114
920 David Lee, Krishan K. Sabnani, David M. Kristol, Sanjoy Paul, M. Ümit Uyar: Conformance Testing of Protocols Specified as Communicating FSMs. INFOCOM 1993:115-127
919 Wen-Huei Chen, Chuan Yi Tang, Hasan Ural: Minimum-Cost Synchronizable Test Sequence Generation via the DuplexU Digraph. INFOCOM 1993:128-135
918 Russell J. Clark, Mostafa H. Ammar, Kenneth L. Calvert: Multi-Protocol Architectures as a Paradigm for Achieving Inter-Operability. INFOCOM 1993:136-143
917 Ming-Jeng Lee, James R. Yee: A Design Algorithm for Reconfigurable ATM Networks. INFOCOM 1993:144-151
916 Hyong W. Lee, Jon W. Mark: ATM Network Traffic Characterization Using Two Types of On-Off Sources. INFOCOM 1993:152-159
915 Christoph Herrmann: Analysis of the Discrete-Time SMP/D/1/s Finite Buffer Queue with Applications in ATM. INFOCOM 1993:160-167
914 Leszek K. Reiss, Lazaros F. Merakos: Shaping of Virtual Path Traffic for ATM B-ISDN. INFOCOM 1993:168-175
913 Marco Ajmone Marsan, Susanna Donatelli, Fabio Neri, U. Rubino: Good and Bad Dynamic Polling Orders in Symmetric Single Buffer Markovian Multiserver Multiqueue Systems. INFOCOM 1993:176-185
912 Gopal Agrawal, Biao Chen, Wei Zhao: Local Synchronous Capacity Allocation Schemes for Guaranteeing Message Deadlines with the Timed Token Protocol. INFOCOM 1993:186-193
911 Offer Fabian, Hanoch Levy: Polling System Optimization through Dynamic Routing Policies. INFOCOM 1993:194-200
910 Dimitris Logothetis, Kishor S. Trivedi: Reliability Analysis of Various Station Attachment Schemes in an FDDI Token Ring. INFOCOM 1993:201-208
909 Israel Cidon, Roch Guérin, Asad Khamisy, Moshe Sidi: Analysis of a Correlated Queue in a Communication System. INFOCOM 1993:209-216
908 Mahmoud Naghshineh, Roch Guérin: Fixed Versus Variable Packet Sizes in Fast Packet-Switched Networks. INFOCOM 1993:217-226
907 Hui Zhang, Domenico Ferrari: Rate-Controlled Static-Priority Queueing. INFOCOM 1993:227-236
906 Israel Cidon, Roch Guérin, Asad Khamisy, Moshe Sidi: On Queues with Inter-Arrival Times Proportional to Service Times. INFOCOM 1993:237-244
905 Craig M. Barnhart, Jeffrey E. Wieselthier, Anthony Ephremides: An Approach to Voice Admission Control in Multihopj Wireless Networks. INFOCOM 1993:246-255
904 Anwar Elwalid, Debasis Mitra: Effective Bandwidth of General Markovian Traffic Sources and Admission Control of High Speed Networks. INFOCOM 1993:256-265
903 Kai Y. Eng, Mark J. Karol, Richard D. Gitlin: Memory-and Channel-Sharing Techniques for Congestion Control in ATM Networks. INFOCOM 1993:266-273
902 Xiaoqiang Chen: Modeling Connection Admission Control. INFOCOM 1993:274-281
901 Joseph A. Bannister, Mario Gerla, Milan Kovacevic: An All-Optical Multifiber Tree Network. INFOCOM 1993:282-292
900 Maurizio Decina, Vittorio Trecordi, G. Zanolini, D. Zucca: An Approximate Analysis of Broadcasting in Multichannel Metropolitan Area Networks. INFOCOM 1993:293-302
899 Alberto Bononi, Fabrizio Forghieri, Paul R. Prucnal: Analysis of One-Buffer Deflection Routing in Ultra-Fast Optical Mesh Networks. INFOCOM 1993:303-311
898 Yao-Min Chen, Galen H. Sasaki: Irregular Torus Networks: Deadlock Avoidance and Throughput Analysis. INFOCOM 1993:312-321
897 Ram Krishnan, John A. Silvester: Choice of Allocation Granularity in Multipath Source Routing Schemes. INFOCOM 1993:322-329
896 Jaidev Kaniyil, Noriaki Hagiya, Shigeru Shimamoto, Yoshikuni Onozato, Shoichi Noguchi: On the Structural Uniqueness of Alternate Routing Schemes in Non-Hierarchical Networks. INFOCOM 1993:330-337
895 Richard G. Ogier, Vladislav Rutenburg: Robust Routing for Minimum Worst-Case Expected Delay in Unreliable Networks. INFOCOM 1993:338-346
894 Nicholas F. Maxemchuk: Dispersity Routing on ATM Networks. INFOCOM 1993:347-357
893 Theodore E. Tedijanto, Levent Gün: Effectiveness of Dynamic Bandwidth Management Mechanisms in ATM Networks. INFOCOM 1993:358-367
892 Izhak Rubin, Ho-Ting Wu: FECCA - A New Access Algorithm for an ATM Ring Network. INFOCOM 1993:368-375
891 V. F. Hartanto, Harsha Sirisena: User-Network Policer: A New Approach for ATM Congestion Control. INFOCOM 1993:376-383
890 Izhak Rubin, K. David Lin: A Burst-Level Adaptive Input-Rate Flow Control Scheme for ATM Networks. INFOCOM 1993:386-394
889 Michael K. Wong, Pravin Varaiya: A Deterministic Fluid Model for Cell Loss in ATM Networks. INFOCOM 1993:395-400
888 Khosrow Sohraby: On the Theory of General ON-OFF Sources with Applications in High-Speed Networks. INFOCOM 1993:401-410
887 Miki Yamamoto, Toshihito Hirata, Chikara Ohta, Hideki Tode, Hiromi Okada, Yoshikazu Tezuka: Traffic Control Scheme for Interconnection of FDDI Networks through an ATM Network. INFOCOM 1993:411-420
886 M. Scott Corson, Anthony Ephremides: An Analysis of Multi-Receiver, Non-Adaptive, Slotted Aloha with Capture for Wireless Communications in Factories. INFOCOM 1993:421-428
885 Richard O. LaMaire, Arvind Krishna, Hamid Ahmadi: Analysis of a Wireless MAC Protocol with Client Server Traffic. INFOCOM 1993:429-438
884 Chungki Lee, James E. Burns, Mostafa H. Ammar: Protocols for Collecting Responses in Multi-Hop Radio Networks. INFOCOM 1993:439-446
883 Eytan Modiano, Anthony Ephremides: A Method for Delay Analysis of Interacting Queues in Multiple Access Systems. INFOCOM 1993:447-454
882 Zygmunt J. Haas: Extensions to the Staggering Switch Architecture. INFOCOM 1993:455-463
881 Jean-François P. Labourdette, Anthony S. Acampora: Logical Clustering for the Optimization and Analysis of a Rearrangeable Distributed ATM Switch. INFOCOM 1993:464-472
880 Hyong S. Kim: Multinet Switch: Multistage ATM Switch Architecture with Partially Shared Buffers. INFOCOM 1993:473-480
879 Sandeep Sibal, Ji Zhang: On a Class of Banyan Networks and Tandem Banyan Switching Fabrics. INFOCOM 1993:481-488
878 Willibald A. Doeringer, Douglas Dykeman, Antonius P. J. Engbersen, Roch Guérin, Andreas Herkersdorf, L. Heusler: Fast Connection Establishment in Large-Scale Networks. INFOCOM 1993:489-496
877 Jih-Shyr Yih, Chung-Sheng Li, Dilip D. Kandlur, Michael S. Yang: Network Access Fairness Control for Concurrent Traffic in Gigabit LANs. INFOCOM 1993:497-504
876 Joseph D. Touch: Parallel Communication. INFOCOM 1993:505-512
875 Thomas F. La Porta, Mischa Schwartz: Performance Analysis of MSP: A Feature-Rich High-Speed Transport Protocol. INFOCOM 1993:513-520
874 Abhay K. Parekh, Robert G. Gallager: A Generalized Processor Sharing Approach to Flow Control in Integrated Services Networks: The Multiple Node Case. INFOCOM 1993:521-530
873 Gopal Meempat, Gopalakrishnan Ramamurthy, Bhaskar Sengupta: A New Performance Measure for Statistical Multiplexing: Perspective of the Individual Source. INFOCOM 1993:531-538
872 Opher Yaron, Moshe Sidi: Calculating Performance Bounds in Communication Networks. INFOCOM 1993:539-546
871 Anindo Banerjea, Srinivasan Keshav: Queueing Delays in Rate Controlled ATM Networks. INFOCOM 1993:547-556
870 Subrata Banerjee, Biswanath Mukherjee: Algorithms for Optimized Node Arrangements in ShuffleNet Based Multihop Lightwave Networks. INFOCOM 1993:557-564
869 Yitzhak Birk: Power-Optimal Layout of Passive, Single-Hop, Fiber-Optic Interconnections Whose Capacity Increases with the Number of Stations. INFOCOM 1993:565-572
868 Ghassan Semaan, Pierre A. Humblet: Timing and Dispersion in WDM Optical Star Networks. INFOCOM 1993:573-577
867 Kuo Chun Lee, Victor O. K. Li: Routing and Switching in a Wavelength Convertible Optical Network. INFOCOM 1993:578-585
866 Nobuyuki Oba, Hiroaki Kobayashi, Tadao Nakamura: An Adaptive Network Routing Method by Electrical-Circuit Modeling. INFOCOM 1993:586-592
865 Zbigniew Dziong, Josée Mignault, Catherine Rosenberg: Blocking Evaluation for Networks with Reward Maximization Routing. INFOCOM 1993:593-601
864 Ariel Orda, Raphael Rom: Optimal Routing with Packet Fragmentation in Computer Networks. INFOCOM 1993:602-609
863 Steven H. Low, Pravin Varaiya: Stability of a Class of Dynamic Routing Protocols (IGRP). INFOCOM 1993:610-616
862 Robert T. Olsen, Lawrence H. Landweber: Design and Implementation of a Fast Virtual Channel Establishment Method for ATM Networks. INFOCOM 1993:617-627
861 Christos Papadopoulos, Guru M. Parulkar: Experimental Evaluation of SunOS IPC and TCP/IP Protocol Implementation. INFOCOM 1993:628-637
860 Simon Crosby: In-Call Renegotiation of Traffic Parameters. INFOCOM 1993:638-646
859 Philipp Hoschka: Towards Tailoring Protocols to Application Specific Requirements. INFOCOM 1993:647-653
858 Hyeog-In Kwon, Arnon Tubtiang, Guy Pujolle: A Simple Flow Control Mechanism in ATM Network with End-to-End Transport. INFOCOM 1993:654-661
857 San-qi Li, Song Chong: Fundamental Limits of Input Rate Contol in High Speed Networks. INFOCOM 1993:662-671
856 Michael G. Hluchyj, Nanying Yin: On the Queueing Behavior of Multiplexed Leaky Bucket Regulated Sources. INFOCOM 1993:672-679
855 Chikara Ohta, Hideki Tode, Miki Yamamoto, Hiromi Okada, Yoshikazu Tezuka: A Peak Rate Regulation Scheme for ATM Networks and Its Performance. INFOCOM 1993:680-689
854 Ram Krishnan, Nicholas F. Maxemchuk: Is There Life beyond Linear Topologies? A Comparison of DQDB and Manhattan Street Network. INFOCOM 1993:690-698
853 Reuven Cohen, Adrian Segall: Multiple Logical Token-Rings in a Single High-Speed Ring. INFOCOM 1993:699-706
852 Gregory J. Miller, Michael Paterakis: Performance Evaluation of a Dynamic Priority Mechanism for the pi-Persistent Protocol for Metropolitan Area Networks. INFOCOM 1993:707-714
851 Giuseppe Anastasi, Marco Conti, Enrico Gregori, Luciano Lenzini: Service Integration in CRMA: A Simulative Analysis. INFOCOM 1993:715-721
850 Donald F. Box, Duke P. Hong, Tatsuya Suda: Architecture and Design of Connectionless Data Service for a Public ATM Network. INFOCOM 1993:722-731
849 Andrew T. Campbell, Geoff Coulson, Francisco Garcia, David Hutchison, Helmut Leopold: Integrated Quality of Service for Multimedia Communications. INFOCOM 1993:732-739
848 Yechiam Yemini, Danilo Florissi: Isochronets: A High-Speed Network Switching Architecture. INFOCOM 1993:740-747
847 Jae-Il Jung, Dominique Seret: Translation of QoS Parameters into ATM Performance Parameters in B-ISDN. INFOCOM 1993:748-755
846 D. Desbiens, Gregor von Bochmann, Anindya Das, Joumana Dargham: Modeling and Formal Specification of the Personal Communication Service. INFOCOM 1993:756-765
845 Myungchul Kim, Samuel T. Chanson, Son T. Vuong: Concurrency Model and Its Application to Formal Protocol Specifications. INFOCOM 1993:766-773
844 Chang-Jia Wang, Ming T. Liu: Generating Test Cases for EFSM with Given Fault Models. INFOCOM 1993:774-781
843 Abderrazak Ghedamsi, Gregor von Bochmann, Rachida Dssouli: Multiple Fault Diagnostics for Finite State Machines. INFOCOM 1993:782-791
842 Frank Yeong-Sung Lin, James R. Yee: A Real-Time Distributed Routing and Admission Control Algorithm for ATM Networks. INFOCOM 1993:792-801
841 Mario Bonatti, Alexei A. Gaivoronski: Guaranteed Bounds for Steady State Performance Measures of a Markov Chain with Applications to High Speed Data Networks. INFOCOM 1993:802-809
840 Chung Gu Kang, Harry H. Tan: Queueing Analysis of Explicit Priority Assignment Partial Buffer Sharing Schemes for ATM Networks. INFOCOM 1993:810-819
839 Sanjay Gupta, Magda El Zarki: Traffic Classification for Round-Robin Scheduling Schemes in ATM Networks. INFOCOM 1993:820-827
838 Hiroshi Toyoizumi: A Simple Method of Estimating Mean Delay by Counting Arrivals and Departures. INFOCOM 1993:829-834
837 Ron Addie, Moshe Zukerman: An Approximation for Performance Evaluation of Stationary Single Server Queues. INFOCOM 1993:835-842
836 Israel Cidon, Asad Khamisy, Moshe Sidi: Analysis of Message Delay Process. INFOCOM 1993:843-849
835 Khosrow Sohraby, A. E. Eckberg: Real-Time High Percentile Tracking of Quasi-Exponential Delays. INFOCOM 1993:850-857
834 V. Ramaswami, Jonathan L. Wang: Analysis of the Link Error Monitoring Algorithms in the Signaling System Number 7 Protocol. INFOCOM 1993:859-866
833 Dheeraj Sanghi, Ashok K. Agrawala, Olafur Gudmundsson, Bijendra N. Jain: Experimental Assessment of End-to-End Behavior on Internet. INFOCOM 1993:867-874
832 Salvatore Torrente, Salvatore D. Morgera, K. Wayne Lester: Implementation of the ANSI T1M15GNM-T1214 within an ODBMS Framework. INFOCOM 1993:875-884
831 Kimberly C. Claffy, George C. Polyzos, Hans-Werner Braun: Traffic Characteristics of the T1 NSFNET Backbone. INFOCOM 1993:885-892
830 David M. Cohen, Daniel P. Heyman: A Simulation Study of Video Teleconferencing Traffic in ATM Networks. INFOCOM 1993:894-901
829 Pramod Pancha, Magda El Zarki: Bandwidth Requirements of Variable Bit Rate MPEG Sources in ATM Networks. INFOCOM 1993:902-909
828 Rauf Izmailov, Ender Ayanoglu: Priority Statistical Multiplexing of Mixed VBR Video and CBR Traffic in B-ISDN/ATM With a Threshold Algorithm. INFOCOM 1993:910-918
827 Daniel Reininger, Dipankar Raychaudhuri, Benjamin Melamed, Bhaskar Sengupta, Jon R. Hill: Statistical Multiplexing of VBR MPEG Compressed Video on ATM Networks. INFOCOM 1993:919-926
826 Martin Collier, Thomas Curran: Path Allocation in a Three-Stage Broadband Switch with Intermediate Channel Grouping. INFOCOM 1993:927-934
825 Francesco Masetti, Paulette Gavignet, Dominique Chiaroni, G. Da Loura: Fiber Delay Lines Optical Buffer for ATM Photonic Switching Applications. INFOCOM 1993:935-942
824 Stefano Gianatti, Achille Pattavina: Performance Analysis of Shared-Buffered Banyan Networks under Arbitrary Traffic Patterns. INFOCOM 1993:943-952
823 Stuart D. Elby, Anthony S. Acampora: Wavelength-Based Cell Switching in ATM Multihop Optical Networks. INFOCOM 1993:953-963
822 Ariel Orda, Raphael Rom, Nahum Shimkin: Competitive Routing in Multi-User Communication Networks. INFOCOM 1993:964-971
821 Sung-Woo Park, Wei Kang Tsai: Optimal Routing Algorithm for High-Speed (ATM) Networks. INFOCOM 1993:972-979
820 Bernard M. Waxman: Performance Evaluation of Multipoint Routing Algorithms. INFOCOM 1993:980-986
819 Whay Chiou Lee, Michael G. Hluchyj, Pierre A. Humblet: Rule-Based Call-by-Call Source Routing for Integrated Communication Networks. INFOCOM 1993:987-993
818 Kenneth Luo, William Klostermeyer, Yuan-Chieh Chow: A Distributed Algorithm for Detecting and Resolving Store-and-Forward Deadlocks in Networks with Minimum Exchange Buffers. INFOCOM 1993:994-1003
817 Vladislav Rutenburg, Richard G. Ogier: Extract Maximum Information from Event-Driven Topology Updates. INFOCOM 1993:1004-1013
816 John Spinelli: Self-Stabilizing ARQ on Channels with Bounded Memory or Bounded Delay. INFOCOM 1993:1014-1022
815 Scott K. Walley, Harry H. Tan, Audrey M. Viterbi: Shortest Path Cost Distribution in Random Graphs with Positive Integer Edge Costs. INFOCOM 1993:1023-1032
814 Gopalakrishnan Ramamurthy, Bhaskar Sengupta: A Predictive Hop-by-Hop Congestion Control Policy for High Speed Networks. INFOCOM 1993:1033-1041
813 David Tipper, Joseph L. Hammond, S. Sharma, A. Khetan, K. Balakrishnan, S. Menon: An Analysis of the Congestion Effects of Link Failures in Wide Area Networks. INFOCOM 1993:1042-1050
812 Israel Cidon, Roch Guérin, Asad Khamisy: On Protective Buffer Policies. INFOCOM 1993:1051-1058
811 Leandros Tassiulas, Yaochung Hung, Shivendra S. Panwar: Optimal Buffer Control During Congestion in an ATM Network Node. INFOCOM 1993:1059-1066
810 Randall Landry, Ioannis Stavrakakis: A Three-Priority Queueing Policy with Application to DQDB Modeling. INFOCOM 1993:1067-1074
809 Nen-Fu Huang, Shiann-Tsong Sheu: A Slot Interleaved Multiple Access Scheme for DQDB Metropolitan Area Networks. INFOCOM 1993:1075-1082
808 Ioannis Stavrakakis, Sophia Tsakiridou: Occupancy Distribution for a DQDB Station Based on a Queueing System with Markov-Structured Service Requirements. INFOCOM 1993:1083-1090
807 Dennis Karvelas, Michail Papamichail: Performance Analysis of a New Bandwidth Balancing Mechanism under the Presence of Erasure Nodes. INFOCOM 1993:1091-1098
806 Joseph B. Evans, Edgardo Duron, Yizhen Wang: Analysis and Implementation of a Priority Knockout Switch. INFOCOM 1993:1099-1106
805 Ellen W. Zegura: Evaluating Blocking Probability in Distributors. INFOCOM 1993:1107-1116
804 Mustafa K. Mehmet Ali: The Performance Analysis of a Random Packet Selection Policy for Multicast Switching. INFOCOM 1993:1117-1126
803 Allalaghatta Pavan, Sourav Bhattacharya, David Hung-Chang Du: Reverse Channel Augmented Multihop Lightwave Networks. INFOCOM 1993:1127-1134
802 Charles D. Cranor, Guru M. Parulkar: An Implementation Model for Connection-Oriented Internet Protocols. INFOCOM 1993:1135-1143
801 Michael Sample, Gerald W. Neufeld: Implementing Efficient Encoders and Decoders for Network Data Representations. INFOCOM 1993:1144-1153
800 Changpeng Fan, Thomas Luckenbach, Xiangwen Xu: Performance Comparison and Analysis of XTP and TCP/IP over the BERKOM Broadband ISDN Network. INFOCOM 1993:1154-1161
799 M.-H. Nguyen, M. Schwartz: Reducing the Complexities of TCP for a High Speed Networking Environment. INFOCOM 1993:1162-1169
798 Guven Mercankosk, Antonio Cantoni: Characterization of a CBR Connection over a Channel with Known Bounded Delay Variation. INFOCOM 1993:1170-1177
797 David W. Petr, James S. Wineinger: End-to-End Priority Cell Discarding Analysis for ATM Networks. INFOCOM 1993:1178-1185
796 Nina Taft Plotkin, Pravin Varaiya: Performance Analysis of Parallel ATM Connections for Gigabit Speed Applications. INFOCOM 1993:1186-1193
795 V. J. Friesen, J. W. Wong: The Effect of Multiplexing, Switching and Other Factors on the Performance of Broadband Networks. INFOCOM 1993:1194-1203
794 Jeffrey E. Wieselthier, Anthony Ephremides: Performance Analysis of Fixed-and Movable-Boundary Channel Access. INFOCOM 1993:1204-1213
793 Zhensheng Zhang, Yow-Jong Liu: Performance Analysis of Multiple Access Protocols for CDMA Cellular and Personal Communications Services. INFOCOM 1993:1214-1221
792 Subir K. Biswas: Performance Modelling of Window Based Flow Control in a Multihop Packet Radio LAN. INFOCOM 1993:1222-1231
791 Amotz Bar-Noy, Ilan Kessler: Tracking Mobile Users in Wireless Communication Networks. INFOCOM 1993:1232-1239
790 Soung C. Liew, Tony T. Lee: A Fundamental Property for Traffic Management in ATM Networks. INFOCOM 1993:1240-1249
789 Bart Steyaert, Herwig Bruneel, Yijun Xiong: A General Relationship between Buffer Occupance and Delay in Discrete-Time Multiserver Queueing Models, Applicable in ATM Networks. INFOCOM 1993:1250-1258
788 Tetsuya Takine, Tatsuya Suda, Toshiharu Hasegawa: Cell Loss and Output Process Analyses of a Finite-Buffer Discrete-Time ATM Queueing System with Correlated Arrivals. INFOCOM 1993:1259-1269
787 Yuji Oie, Kenji Kawahara, Masayuki Murata, Hideo Miyahara: Performance Analysis of Internally Unbuffered Large Scale ATM Switch with Bursty Traffic. INFOCOM 1993:1270-1279
786 Jonathan L. Wang: A Novel Link Set Dimensioning Procedure for Networks Supporting the Load Splitting Link Selection Algorithm. INFOCOM 1993:1280-1287
785 Raffaele Bolla, F. Danovaro, Franco Davoli, Mario Marchese: An Integrated Dynamic Resource Allocation Scheme for ATM Networks. INFOCOM 1993:1288-1297
784 Partho Pratim Mishra, Satish K. Tripathi: Dynamic Bandwidth Allocation in High Speed Integrated Service Networks. INFOCOM 1993:1298-1305
783 David M. Nicol, Rahul Simha, Donald F. Towsley: Load Balancing of Complex Stochastic Tasks Using Stochastic Majorization. INFOCOM 1993:1306-1313
782 Ferit Yegenoglu, Bijan Jabbari: Performance Evaluation of MMPP/D/1K Queues for Aggregate ATM Traffic Modules. INFOCOM 1993:1314-1319
781 Wing Cheong Lau, San-qi Li: Traffic Analysis in Large-Scale High-Speed Integrated Networks: Validation of Nodal Decomposition Approach. INFOCOM 1993:1320-1329
780 Francesco Bernabei, Laura Gratta, Marco Listanti, A. Sarghini: Analysis of ON-OFF Source Shaping for ATM Multiplexing. INFOCOM 1993:1330-1336
779 Jian Li Wang, Jiong Pan Zhou, Chuan Wang, Yan He Fan: Interdeparture Processes of Traffic from ATM Networks. INFOCOM 1993:1337-1341
778 George N. Rouskas, Mostafa H. Ammar: Analysis and Optimization of Transmission Schedules for Single-Hop WDM Networks. INFOCOM 1993:1342-1349
777 Krishna Bala, Konstantinos Petropoulos, Thomas E. Stern: Multicasting in a Linear Lightwave Network. INFOCOM 1993:1350-1358
776 Cherng-Shung Hsu, Victor O. K. Li: Multilevel Priority Scheme for Fiber-Optic Code Division Multiple Access (CDMA) Packet Networks. INFOCOM 1993:1359-1366
775 Aura Ganz, Weibo Gong, Xudong Wang: Wavelength Assignment in Multihop Lightwave Networks. INFOCOM 1993:1367-1374
774 Giuseppe A. De Biase, Claudia Ferrone, Annalisa Massini: A Quasi-Nonblocking Self-Routing Network which Routs Packets in log2N Time. INFOCOM 1993:1375-1381
773 Anthony J. McAuley, Paul Francis: Fast Routing Table Lookup Using CAMs. INFOCOM 1993:1382-1391
772 Giuseppe Bianchi, Jonathan S. Turner: Improved Queueing Analysis of Shared Buffer Switching Networks. INFOCOM 1993:1392-1399
771 D. Knox, Sethuraman Panchanathan: Parallel Searching Techniques for Routing Table Lookup. INFOCOM 1993:1400-1405
770 Chi-Sung Laih, Sung-Ming Yen: On the Design of Conference Key Distribution Systems for the Broadcasting Networks. INFOCOM 1993:1406-1413
769 Paola Fulchignoni, Giovanni Marrota, Anthony J. Wiley: Applying Security to SMDS: A Practical Example. INFOCOM 1993:1414-1421
768 Lundy M. Lewis: A Case-Based Reasoning Approach to the Management of Faults in Communication Networks. INFOCOM 1993:1422-1429
767 Roch Guérin, Levent Gün: A Unified Approach to Bandwidth Allocation and Access Control in Fast Packet-Switched Networks. INFOCOM 1992:1-12
766 Joseph Y. Hui: Layered Required Bandwidth for Heterogeneous Traffic. INFOCOM 1992:13-20
765 Chin-Tau A. Lea, Anwar Alyatama: Bandwidth Quantization in the Broadband ISDN. INFOCOM 1992:21-29
764 Raffaele Bolla, Franco Davoli, Alfio Lombardo, Sergio Palazzo, Daniela Panno: Adaptive Bandwidth Allocation by Hierarchical Control of Multiple ATM Traffic Classes. INFOCOM 1992:30-38
763 Milan Kovacevic, Mario Gerla: Rooted Routing in Linear Lightwave Networks. INFOCOM 1992:39-48
762 Mario Gerla, Pietro Camarda, Guido Chiaretti: Fault Tolerant PON Topologies. INFOCOM 1992:49-56
761 Zygmunt J. Haas, Richard D. Gitlin: Optical Distribution Channel: An 'Almost-all' Optical LAN Based on the Field-coding Technique. INFOCOM 1992:57-67
760 Jeremiah F. Hayes, F. Ayadi: Local Optical Distribution. INFOCOM 1992:68-74
759 Benjamin Melamed, Bhaskar Sengupta, Dipankar Raychaudhuri, Joel Zdepski: TES-Based Traffic Modeling for Performance Evaluation of Integrated Networks. INFOCOM 1992:75-84
758 Pramod Pancha, Magda El Zarki: A Look at the MPEG Video Coding Standard for Variable Bit Rate Video Transmission. INFOCOM 1992:85-94
757 Paul Skelly, Mischa Schwartz, Sudhir S. Dixit: A Histogram-based Model for Video Traffic Behavior in an ATM Network Node with an Application to Congestion Control. INFOCOM 1992:95-104
756 Ferit Yegenoglu, Bijan Jabbari, Ya-Qin Zhang: Modeling of Motion Classified VBR Video Codecs. INFOCOM 1992:105-109
755 Mark J. Karol, Kai Y. Eng, Hitoshi Obara: Improving the Performance of Input-Queued ATM Packet Switches. INFOCOM 1992:110-115
754 Sherry X. Wei, Vijay P. Kumar: On the Multiple Shared Memory Module Approach to ATM Switching. INFOCOM 1992:116-123
753 Alberto Monterosso, Achille Pattavina: Performance Analysis of Multistage Interconnection Networks with Shared-Buffered Switching Elements for ATM Switching. INFOCOM 1992:124-131
752 David X. Chen, Jon W. Mark: A Buffer Management Scheme for the SCOQ Switch Under Nonuniform Traffic Loading. INFOCOM 1992:132-140
751 Zbigniew Dziong, Lorne Mason: An Analysis of Near Optimal Call Admission and Routing Model for Multi-Service Loss Networks. INFOCOM 1992:141-152
750 Masaki Aida, Ichizo Nakamura, Teruyuki Kubo: Optimal Routing in Communication Networks with Delay Variations. INFOCOM 1992:153-159
749 Ren-Hung Hwang, James F. Kurose, Donald F. Towsley: The Effect of Processing Delay and QoS Requirements in High Speed Networks. INFOCOM 1992:160-169
748 Yossi Azar, Joseph Naor, Raphael Rom: Routing Strategies for Fast Networks. INFOCOM 1992:170-179
747 Shun Yan Cheung: Controlled Request DQDB: Achieving Fairness and Maximum Throughput in the DQDB Network. INFOCOM 1992:180-189
746 Lakshmana N. Kumar, Andreas D. Bovopoulos: An Access Protection Solution For Heavy Load Unfairness in DQDB. INFOCOM 1992:190-199
745 Mete Kabatepe, Kenneth S. Vastola: FDQ: The Fair Distributed Queue MAN. INFOCOM 1992:200-209
744 Flaminio Borgonovo, Alfio Lombardo, Sergio Palazzo, Daniela Panno: Performance of FQDB, a Fair MAC Protocol for Dual Bus Networks. INFOCOM 1992:210-218
743 Jaime Jungok Bae, Tatsuya Suda, Rahul Simha: Analysis of Individual Packet Loss in a Finite Buffer Queue with Heterogeneous Markov Modulated Arrival Process: A Study of Traffic Burstiness and Priority Packet Discarding. INFOCOM 1992:219-230
742 Xian Cheng, Ian F. Akyildiz: A Finite Buffer Two Class Queue with Different Scheduling and Push-Out Schemes. INFOCOM 1992:231-241
741 Israel Cidon, Asad Khamisy, Moshe Sidi: On Packet Loss Processes in High-Speed Networks. INFOCOM 1992:242-251
740 Tadeusz Czachórski, Jean-Michel Fourneau, Ferhan Pekergin: Diffusion Model of the Push-out Buffer Management Policy. INFOCOM 1992:252-261
739 Mostafa H. Ammar, Li-Ran Wu: Improving the Throughput of Point-to-Multipoint ARQ Protocols Through Destination Set Splitting. INFOCOM 1992:262-271
738 Subrahmanyam Dravida: Error Control Aspects of High Speed Networks. INFOCOM 1992:272-281
737 James P. G. Sterbenz, Anshul Kantawala, Milind M. Buddhikot, Guru M. Parulkar: Hardware Based Error and Flow Control in the Axon Gigabit Host-Network Interface. INFOCOM 1992:282-293
736 H. Jonathan Chao, Donald E. Smith: Design of Virtual Channel Queue in an ATM Broadband Terminal Adaptor. INFOCOM 1992:294-302
735 Christos Douligeris: Multiobjective Flow Control in Telecommunication Networks. INFOCOM 1992:303-312
734 Philippe Jacquet, Paul Mühlethaler: A Very Simple Algorithm for Flow Control on High Speed Networks via La Palice Queueings. INFOCOM 1992:313-321
733 Amarnath Mukherjee, Lawrence H. Landweber, Theodore Faber: Dynamic Time Windows and Generalized Virtual Clock: Combined Closed-Loop/Open-Loop Congestion Control. INFOCOM 1992:322-332
732 John-Thones Amenyo, Aurel A. Lazar, Giovanni Pacifici: Cooperative Distributed Scheduling for ATS-Based Broadband Networks. INFOCOM 1992:333-342
731 Sanjay Gupta, Magda El Zarki, Keith W. Ross: Performance of FDDI Under Overload. INFOCOM 1992:343-351
730 Maria C. Yuang, Nai-Bin Hsu: A Reliable and Parallel Double-Ring FDDI Metropolitan Area Network. INFOCOM 1992:352-362
729 Michael Tangemann: Timer Threshold Dimensioning and Overload Control in FDDI Networks. INFOCOM 1992:363-371
728 Aad P. A. van Moorsel, Boudewijn R. Haverkort, Ignas G. Niemegeers: A Method for Analysing the Performance Aspects of the Fault-Tolerance Mechanisms in FDDI. INFOCOM 1992:372-381
727 San-qi Li, Chia-lin Hwang: Queue Response to Input Correlation Functions: Discrete Spectral Analysis. INFOCOM 1992:382-394
726 Khosrow Sohraby, Ji Zhang: Spectral Decomposition Approach for Transient Analysis of Multi-Server Discrete-Time Queues. INFOCOM 1992:395-404
725 Andrea Baiocchi, Nicola Blefari-Melazzi, Aldo Roveri, F. Salvatore: Stochastic Fluid Analysis of an ATM Multiplexer Loaded with Heterogeneous ON-OFF Sources: and Effective Computational Approach. INFOCOM 1992:405-414
724 Anwar Elwalid, Debasis Mitra: Fluid Models for the Analysis and Design of Statistical Multiplexing with Loss Priorities on Multiple Classes of Bursty Traffic. INFOCOM 1992:415-425
723 Praveen Goli, Vijay P. Kumar: Performance of a Crosspoint Buffered ATM Switch Fabric. INFOCOM 1992:426-435
722 Todd D. Morris, Harry G. Perros: Performance Modelling of a Multi-Buffered Banyan Switch Under Bursty Traffic. INFOCOM 1992:436-445
721 Paolo Coppo, Matteo D'Ambrosio, Riccardo Melen: Optimal Cost/Performance Design of ATM Switches. INFOCOM 1992:446-458
720 Jun Nishikido, Masayuki Okuno, Akira Himeno: Optical Routing Control Using Coherent Pattern-Matching Circuit for Photonic Self-Routing Switch. INFOCOM 1992:459-467
719 Andreas D. Bovopoulos: Performance Evaluation of a Traffic Control Mechanism for ATM Networks. INFOCOM 1992:469-478
718 Reto Grünenfelder, Luis Zubieta: Measurement of ATM Traffic on the Cell, Burst and Activity Level by Traffic Sampling. INFOCOM 1992:479-486
717 Kenn S. Kvols, Søren Blaabjerg: Bounds and Approximations for the Periodic On/Off Queue with Applications to ATM Traffic Control. INFOCOM 1992:487-494
716 T. Toniatti, F. Trombetta: Performance Simulation of End-To-End Windowing in ATM Networks. INFOCOM 1992:495-502
715 Michael J. Ferguson: An Overload Cycle Analysis of Generalized Bandwidth Balancing for DQDB. INFOCOM 1992:503-507
714 Mete Kabatepe, Kenneth S. Vastola: Exact and Approximate Analysis of DQDB Under Heavy Load. INFOCOM 1992:508-517
713 Marco Conti, Enrico Gregori, Luciano Lenzini: On the Approximation of the Slot Occupancy Pattern in a DQDB Network. INFOCOM 1992:518-526
712 Wen Jing, Michael Paterakis: Message Delay Analysis of the DQDB (IEEE 8026) Network. INFOCOM 1992:527-535
711 Donald E. Smith, H. Jonathan Chao: Buffer Sizing at a Host in an ATM Network. INFOCOM 1992:536-543
710 Flavio Bonomi, Sergio Montagna, Roberto Paglino: Busy Period Analysis for an ATM Switching Element Output Line. INFOCOM 1992:544-551
709 Xiaoqiang Chen, Ian M. Leslie: Performance Analysis of Input Traffic Control. INFOCOM 1992:552-561
708 Geert A. Awater, Frits C. Schoute: Performance Improvement of Fast Packet Switching by LDOLL Queueing. INFOCOM 1992:562-568
707 David D. Clark, David L. Tennenhouse, David J. Farber, Jonathan M. Smith, Bruce S. Davie, W. David Sincoskie, Inder S. Gopal, Bharath K. Kadaba: An Overview of the AURORA Gigabit Testbed. INFOCOM 1992:569-581
706 Alexander G. Fraser, Charles R. Kalmanek, A. E. Kaplan, William T. Marshall, Robert C. Restrick: Xunet 2: A Nationwide Testbed in High-Speed Networking. INFOCOM 1992:582-589
705 Inder S. Gopal, Roch Guérin: Network Transparency: The plaNET Approach. INFOCOM 1992:590-601
704 Rafael Gidron, Anthony S. Acampora: Project ACORN and Distributed Approaches to ATM Networks. INFOCOM 1992:602-607
703 Ariel Orda, Moshe Sidi, Raphael Rom: Minimum Delay Routing in Stochastic Networks. INFOCOM 1992:608-616
702 Richard G. Ogier, Vladislav Rutenburg: Minimum-Expected-Delay Alternate Routing. INFOCOM 1992:617-625
701 Danny Cohen, Jonathan B. Postel, Raphael Rom: IP Addressing and Routing in a Local Wireless Network. INFOCOM 1992:626-632
700 J. J. Garcia-Luna-Aceves: Distributed Routing with Labeled Distances. INFOCOM 1992:633-643
699 Anthony S. Acampora, Syed I. A. Shah, Zhensheng Zhang: Performance Analysis of Hot-Potato Routing for Multiclass Traffic in Multihop Lightwave Networks. INFOCOM 1992:644-655
698 Sea Hyeon Nam, Chong Kwan Un: Performance Analysis of a Multichannel Local Lightwave Network with Grouping Property. INFOCOM 1992:656-663
697 Ming Chen, Tak-Shing Peter Yum: Buffer Sharing in Conflict-Free WDMA Networks. INFOCOM 1992:664-670
696 Subrata Banerjee, Biswanath Mukherjee, Dilip Sarkar: Heuristic Algorithms for Constructing Near-Optimal Structures of Linear Multihop Lightwave Networks. INFOCOM 1992:671-680
695 Limin Hu: Reliability Analysis of Sparse Topologies for Packet Radio Networks. INFOCOM 1992:681-690
694 Galen H. Sasaki, Ravi Jain: Scheduling Data Transfers in Preemptive Hierarchical Switching Systems with Applications to Packet Radio Networks. INFOCOM 1992:691-700
693 Alan A. Bertossi, Maurizio A. Bonuccelli: Code Assignment for Hidden Terminal Interference Avoidance in Multihop Packet Radio Networks. INFOCOM 1992:701-709
692 Arr-Mien Chou, Victor O. K. Li: Slot Allocation Strategies for TDMA Protocols in Multihop Packet Radio Networks. INFOCOM 1992:710-716
691 E. Aanen, J. L. van den Berg, R. J. F. de Vries: Cell Loss Performance of the Gauss ATM Switch. INFOCOM 1992:717-726
690 Anil K. Gupta, Nicolas D. Georganas: Priority Performance of ATM Packet Switches. INFOCOM 1992:727-733
689 Sandro Bassi, Maurizio Dècina, Achille Pattavina: Performance Analysis of the ATM Shuffleout Switching Architecture Under Non-Uniform Traffic Patterns. INFOCOM 1992:734-742
688 Ilias Iliadis: Performance of a Packet Switch with Input and Output Queueing Under Balanced Traffic. INFOCOM 1992:743-752
687 Fabrice Guillemin, Pierre Boyer, Alain Dupuis, Luc Romoeuf: Peak Rate Enforcement in ATM Networks. INFOCOM 1992:753-758
686 P. Castelli, Alberto Tonietti, A. Forcina: Dimensioning Criteria for Policing Functions in ATM Networks. INFOCOM 1992:759-766
685 Bruno Laguë, Catherine Rosenberg, Fabrice Guillemin: A Generalization of Some Policing Mechanisms. INFOCOM 1992:767-775
684 Teunis J. Ott, T. V. Lakshman, Ali J. Tabatabai: A Scheme for Smoothing Delay-Sensitive Traffic Offered to ATM Networks. INFOCOM 1992:776-785
683 Amotz Bar-Noy, Ilan Kessler, Shay Kutten, Frank K. Hwang: A New Competitive Algorithm for Group Testing. INFOCOM 1992:786-793
682 Dennis Karvelas, Michail Papamichail, George C. Polyzos: Performance Analysis of the Rotating Slot Generator Scheme. INFOCOM 1992:794-803
681 Ken Chen: A Versatile Access Scheduling Schem for Real-Time Local Area Networks. INFOCOM 1992:804-810
680 M. De Sanctis, L. Proietti, R. Bausani, Marco Listanti, Laura Gratta, Roberto Winkler: Performance Issues in CRMA Networks for Integrated Broadband Communications. INFOCOM 1992:811-816
679 Gopalakrishnan Ramamurthy, Bhaskar Sengupta: Modeling and Analysis of a Variable Bit Rate Video Multiplexer. INFOCOM 1992:817-827
678 Chris Blondia, Olga Casals: Performance Analysis of Statistical Multiplexing of VBR Sources. INFOCOM 1992:828-838
677 Khosrow Sohraby: On the Asymptotic Behavior of Heterogeneous Statistical Multiplexer. INFOCOM 1992:839-847
676 Jingdong Ye, San-qi Li: Analysis of Multimedia Traffic Queues with Finite Buffer and Overload Control, Part 2: Applications. INFOCOM 1992:848-859
675 P. K. Bansal, Kuldip Singh, Ramesh C. Joshi: Quad Tree: A Cost-Effective Fault-Tolerant Multistage Interconnection Network. INFOCOM 1992:860-866
674 Tsern-Huei Lee, Jin-Jye Chou: Fault Tolerance of Banyan Using Multiple-Pass. INFOCOM 1992:867-875
673 Ronald P. Bianchini Jr., Hyong S. Kim: Design of a Nonblocking Shared-Memory Copy Network for ATM. INFOCOM 1992:876-885
672 Tsern-Huei Lee, Shun-Jee Liu: A Fair High-Speed Copy Network for Multicast Packet Switch. INFOCOM 1992:886-894
671 Zigmantas L. Budrikis, Guven Mercankosk, M. Blasikiewicz, Moshe Zukerman, L. Yao, Philip G. Potter: A Generic Flow Control Protocol for B-ISDN. INFOCOM 1992:895-904
670 Efstathios D. Sykas, Ioannis Ch. Paschalidis, Georgia Mourtzinou, Konstantinos M. Vlakos: Congestion Avoidance in ATM Networks. INFOCOM 1992:905-914
669 Abhay K. Parekh, Robert G. Gallager: A Generalized Processor Sharing Approach to Flow Control in Integrated Services Networks - The Single Node Case. INFOCOM 1992:915-924
668 Zhixing Ren, James S. Meditch: A Two-Layer Congestion Control Protocol for Broadband ISDN. INFOCOM 1992:925-933
667 John D. Spragins: Token Ring Reliability Models. INFOCOM 1992:934-943
666 Jeff J. Zhu, Richard T. Denton: Using Statistical Bandwidth in Token Ring Networks. INFOCOM 1992:944-951
665 Kin Mun Lye, Winston Khoon Guan Seah, Kee Chaing Chua: Performance Analysis of an Adaptive Token Bus Protocol. INFOCOM 1992:952-957
664 José Rufino, Paulo Veríssimo: A Study on the Inaccessibility Characteristics of ISO 8802/4 Token-Bus LANs. INFOCOM 1992:958-967
663 Harry G. Perros, Yves Dallery, Guy Pujolle: Analysis of a Queueing Network Model with Class Dependent Window Flow Control. INFOCOM 1992:968-977
662 Hans Kröner, Markus Eberspächer, Thomas Theimer, Paul J. Kühn, Uwe Briem: Approximate Analysis of the End-to-End Delay in ATM Networks. INFOCOM 1992:978-986
661 Wei Liu, Ian F. Akyildiz, Udo R. Krieger: An Admission Control Model Through Outband Signalling Management. INFOCOM 1992:987-995
660 Adrian E. Conway, Eugene Pinsky: A Decomposition Method for the Exact Analysis of Circuit-Switched Networks. INFOCOM 1992:996-1003
659 Monica A. Lazer: Switched High-Speed Service - Architecture and Impacts. INFOCOM 1992:1004-1013
658 Pietro Zolzettich, Arye R. Ephrath: Customized Service Creation: A New Order For Telecommunication Services. INFOCOM 1992:1014-1019
657 Sameh Rabie: Integrated Network Management: Technologies and Implementation Experience. INFOCOM 1992:1020-1027
656 Raj Pandya: Network Architecture and Functional Requirements for UPT. INFOCOM 1992:1028-1033
655 Rick Bubenik, Mike Gaddis, John D. DeHart: Communicating with Virtual Paths and Virtual Channels. INFOCOM 1992:1035-1042
654 Juan A. Garay, Inder S. Gopal: Call Preemption in Communication Networks. INFOCOM 1992:1043-1050
653 Zhixing Ren, James S. Meditch: Bandwidth Allocation for Broadband Multichannel Systems. INFOCOM 1992:1051-1060
652 Shyamal K. Chowdhury, Kazem Sohraby: Alternative Bandwidth Allocation Algorithms for Packet Video in ATM Networks. INFOCOM 1992:1061-1068
651 Joseph A. Bannister, Flaminio Borgonovo, Mario Gerla: A Procedure to Evaluate the Mean Transport Time in Multibuffer Deflection-Routing Networks with Nonuniform Traffic. INFOCOM 1992:1069-1078
650 Yu Gong, Michael Paterakis: Design and Performance Analysis of a Dynamic Protocol Achieving User Fairness in High-Speed Dual-Bus Networks. INFOCOM 1992:1079-1088
649 Klaus D. Heidtmann: Reliability and Performance of Multi-Level Loop Computer Networks. INFOCOM 1992:1089-1095
648 Masaomi Sumita, Peter C. Fetterolf, Arthur D. Little: Effect of Bandwidth Balancing Mechanism on Fairness and Performance of DQDB MANs. INFOCOM 1992:1096-
647 Shikharesh Majumdar, C. Murray Woodside, John E. Neilson, Dorina C. Petriu: Robust Box Bounds: Throughput Guarantees for Closed Multiclass Queueing Networks with Minimal Stochastic Assumptions. INFOCOM 1992:2006-2015
646 Ramesh Nagarajan, James F. Kurose: On Defining, Computing and Guaranteeing Quality-of-Service in High-Speed Networks. INFOCOM 1992:2016-2025
645 Zhensheng Zhang: Finite Buffer Discrete-Time Queues with Multiple Markovian Arrivals and Services in ATM Networks. INFOCOM 1992:2026-2035
644 Yijun Xiong, Herwig Bruneel: Performance of Statistical Multiplexers with Finite Number of Inputs and Train Arrivals. INFOCOM 1992:2036-2044
643 Yvo Desmedt, Yair Frankel, Moti Yung: Multi-Receiver/Multi-Sender Network Security: Efficient Authenticated Multicast/Feedback. INFOCOM 1992:2045-2054
642 Gene Tsudik: Message Authentication with One-Way Hash Functions. INFOCOM 1992:2055-2059
641 S. Arunkumar, R. S. Panwar: Efficient Broadcast Using Selective Flooding. INFOCOM 1992:2060-2067
640 Shwuhwa S. Yu, Ming T. Liu: A New Protocol Test Sequence Generation Method Based on UIOS. INFOCOM 1992:2068-2077
639 Vachaspathi P. Kompella, Joseph Pasquale, George C. Polyzos: Multicasting for Multimedia Applications. INFOCOM 1992:2078-2085
638 Hideki Tode, Yasuharu Sakai, Miki Yamamoto, Hiromi Okada, Yoshikazu Tezuka: Multicast Routing Algorithm for Nodal Load Balancing. INFOCOM 1992:2086-2095
637 Adrian Segall, Tsipora P. Barzilai, Yoram Ofek: Reliable Multi-User Tree Setup with Local Identifiers. INFOCOM 1992:2096-2106
636 Nachum Shacham: Multipoint Communication by Hierarchically Encoded Data. INFOCOM 1992:2107-2114
635 Imrich Chlamtac, Andrea Fumagalli: Performance of Reservation Based (Quadro) WDM Star Networks. INFOCOM 1992:2115-2123
634 Renu Chipalkatti, Zhensheng Zhang, Anthony S. Acampora: High Speed Communication Protocols for Optical Star Coupler Using WDM. INFOCOM 1992:2124-2133
633 Bo Li, Aura Ganz: Virtual Topologies for WDM Star LANs - The Regular Structures Approach. INFOCOM 1992:2134-2143
632 Aura Ganz, Yao Gao: A Time-Wavelength Assignment Algorithm for a WDM Star Network. INFOCOM 1992:2144-2150
631 Ioannis Stavrakakis: A Considerate Priority Queueing System With Guaranteed Policy Fairness. INFOCOM 1992:2151-2160
630 John N. Daigle, Nikhil Jain: A Queueing System with Two Arrival Streams and Reserved Servers with Application to Cellular Telephone. INFOCOM 1992:2161-2167
629 San-qi Li: Generating Function Approach for Discrete Queueing Analysis with Decomposable Arrival and Service Markov Chains. INFOCOM 1992:2168-2177
628 Ioannis Stavrakakis, Sophia Tsakiridou: Analysis of Integrated Services TDM with Correlated Traffic. INFOCOM 1992:2178-2186
627 Clark Wang, Mischa Schwartz: Fault Detection with Multiple Observers. INFOCOM 1992:2187-2196
626 Isabelle Rouvellou, George W. Hart: Topology Identification for Traffic and Configuration Management in Dynamic Networks. INFOCOM 1992:2197-2204
625 Jean-François P. Labourdette, Anthony S. Acampora, George W. Hart: Reconfiguration Algorithms for Rearrangeable Lightwave Networks. INFOCOM 1992:2205-2214
624 P. Vittali, Isabelle M. Demeure, Noëmie Simoni, A. Hafner: OPTINET - Methodology and Reusable Tool Support for Network Planning. INFOCOM 1992:2215-2223
623 J. S. Kaufman: Blocking in a Completely Shared Resource Environment with State Dependent Resource and Residency Requirements. INFOCOM 1992:2224-2232
622 Hiroshi Suzuki, Fouad A. Tobagi: Fast Bandwidth Reservation Scheme with Multi-link & Multi-path Routing in ATM Networks. INFOCOM 1992:2233-2240
621 Moshe Zukerman, Sammy Chan: Fairness in Broadband ISDN. INFOCOM 1992:2241-2250
620 Sotiris Vassilopoulos, Panayota Papantoni-Kazakos: A Transmission Scheduling Algorithm for Mixed Traffic: High and Low Priority. INFOCOM 1992:2251-2259
619 Cem Ersoy, Shivendra S. Panwar: Topological Design of Interconnected LAN-MAN Networks. INFOCOM 1992:2260-2269
618 Mario Gerla, Tsung-Yuan Charles Tai, Giorgio Gallassi: LAN/MAN Interconnection to ATM: A Simulation Study. INFOCOM 1992:2270-2279
617 Marc Gumbold, Peter Martini, Ralf Wittenberg: Temporal Overload in High Speed Backbone Networks. INFOCOM 1992:2280-2289
616 Masato Tsukakoshi, Osamu Takada, Toshihiko Murakami, Matsuaki Terada, Mitsuhiro Yamaga: Large-scale and High-speed Interconnection of Multiple FDDIs using ATM-based Backbone LAN. INFOCOM 1992:2290-2298
615 Kow C. Chang, Deniz Sandhu: Delay Analyses of Token-passing Protocols with Limited Token Holding Times. INFOCOM 1992:2299-2305
614 Hoon Choi, Kishor S. Trivedi: Approximate Performance Models of Polling Systems Using Stochastic Petri Nets. INFOCOM 1992:2306-2314
613 Marco Ajmone Marsan, Luís F. M. de Moraes, Susanna Donatelli, Fabio Neri: Cycles and Waiting Times in Symmetric Exhaustive and Gated Multiserver Multiqueue Systems. INFOCOM 1992:2315-2324
612 Alan G. Konheim, Hanoch Levy: Efficient Analysis of Polling Systems. INFOCOM 1992:2325-2331
611 Deborah Estrin, Danny J. Mitzel: An Assessment of State and Lookup Overhead in Routers. INFOCOM 1992:2332-2342
610 Francisco Recacha, F. Rico, José L. Melús: Implementation of a Secure Bridge in an Ethernet Environment. INFOCOM 1992:2343-2350
609 Iakovos S. Venieris, John D. Angelopoulos, George I. Stassinopoulos: DQDB MAN as a Transit Network for ATM CPNs. INFOCOM 1992:2351-2357
608 Yitzhak Birk: Fiber-optic Bus-oriented Single-hop Interconnections among Multi-Transceiver Stations. INFOCOM 1992:2358-2367
607 Kin K. Leung, Raymond W. Yeung, Bhaskar Sengupta: Queueing Analysis of a Credit Manager for Flow Control of High Speed Networks. INFOCOM 1992:2368-2377
606 Richard P. Wilder, Allison Mankin, K. K. Ramakrishnan: Effectiveness of Congestion Avoidance: A Measurement Study. INFOCOM 1992:2378-2390
605 Ashok K. Agrawala, Dheeraj Sanghi: Design and Evaluation of an Adaptive Flow Control Scheme. INFOCOM 1992:2391-2397
604 Jean-Chrysostome Bolot, A. Udaya Shankar: Analysis of a Fluid Approximation to Flow Control Dynamics. INFOCOM 1992:2398-2407
603 Wlodzimierz Dobosiewicz, Pawel Gburzynski: A New Topology for MANs: the Pretzel Ring. INFOCOM 1992:2408-2414
602 Terence D. Todd: The Token Grid: Multidimensional Media Access for Local and Metropolitan Networks. INFOCOM 1992:2415-2424
601 Hai Xie, Lazaros F. Merakos: Rate-based Headend-Controlled Bandwidth Allocation in Unidirectional Bus Metropolitan Area Networks. INFOCOM 1992:2425-2434
600 Maurizio Decina, Vittorio Trecordi, G. Zanolini: Performance Analysis of Deflection Routing Multichannel-Metropolitan Area Networks. INFOCOM 1992:2435-2443
599 Steven H. Low, Kathleen M. Nichols: SMDS Measurements and Modeling to Predict Performance. INFOCOM 1992:2444-2452
598 Masayuki Murata, Yoshihiro Ohba, Hideo Miyahara: Analysis of Flow Enforcement Algorithm for Bursty Traffic in ATM Networks. INFOCOM 1992:2453-2462
597 Bharat T. Doshi: Intermittent File Transfers over Broadband Packet Networks. INFOCOM 1992:2463-2471
596 James R. Yee, Ming-Jeng Lee: A Convergence Proof for an Iterative Method for ATM Networks. INFOCOM 1992:2472-2481
595 R. Venkatesan, H. T. Mouftah: Balanced Gamma Network - A New Candidate for Broadband Packet Switch Architectures. INFOCOM 1992:2482-2488
594 Indra Widjaja, Alberto Leon-Garcia: The Helical Switch: A Multipath ATM Switch Which Preserves Cell Sequence. INFOCOM 1992:2489-2498
593 Wen-Tsuen Chen, Huai-Jen Liu, Yeong-Tsong Tsay: A High-Throughput Cell Scheduling Algorithm for Delay-Sensitive Traffic in Broadband Switching Systems. INFOCOM 1992:2499-2508
592 Tak-Shing Peter Yum, Yiu-Wing Leung: A TDM-based Multibus Packet Switch. INFOCOM 1992:2509-2515
591 Krishna Bala, Thomas E. Stern, Kavita Bala: Algorithms for Routing in a Linear Lightwave Network. INFOCOM 1991:1-9
590 Anthony S. Acampora, Syed I. A. Shah: Multihop Lightwave Networks: A Comparison of Store-and-Forward and Hot-Potato Routing. INFOCOM 1991:10-19
589 Yoram Ofek, Moshe Sidi: Design and Analysis of a Hybrid Access Control to an Optical Star Using WDM. INFOCOM 1991:20-31
588 Ondria J. Wasem: Optimal Power Distribution in Robust, Passive, Fiber Optic Local Communication Networks With Circulant Topologies. INFOCOM 1991:32-38
587 Debasis Mitra, Judith B. Seery: Dynamic Adaptive Windows for High Speed Data Networks with Multiple Paths and Propagation Delays. INFOCOM 1991:39-48
586 Imrich Chlamtac, Aura Ganz, G. Karmi: Transport Optimization in Broadband Networks. INFOCOM 1991:49-58
585 Rick Bubenik, John D. DeHart, Mike Gaddis: Multipoint Connection Management in High Speed Networks. INFOCOM 1991:59-68
584 Flaminio Borgonovo, Luigi Fratta, Flavio Tonelli: Circuit Service in Deflection Networks. INFOCOM 1991:69-75
583 Chung-Ju Chang, Shyh-Yih Wang: Performance Analysis of an Integrated Multiplexer in the Customer Premise Node of Broadband Integrated Services Network. INFOCOM 1991:76-82
582 Andrea Baiocchi, Nicola Blefari-Melazzi, Aldo Roveri, Marco Listanti, Roberto Winkler: Modeling Issues on an ATM Multiplexer Within a Bursty Traffic Environment. INFOCOM 1991:83-91
581 Jaidev Kaniyil, Yoshikuni Onozato, Ken Katayama, Shoichi Noguchi: Performance and Stability Aspects of Congestion Control by Input Buffer Limiting in Store and Forward Networks. INFOCOM 1991:92-100
580 Panayotis D. Sparaggis, Christos G. Cassandras: Throughput Monotonicity in Communication Networks with Blocking: Properties and Counter Examples. INFOCOM 1991:101-110
579 A. Bouloutas, Prabandham M. Gopal: Clustering Schemes for Network Management. INFOCOM 1991:111-120
578 Takeshi Nishida: End-to-End Performance Modeling for Distributed Network Management Systems. INFOCOM 1991:121-129
577 Rony Holter: SONET - A Network Management Viewpoint. INFOCOM 1991:130-136
576 Ottmar Gihr, Phuoc Tran-Gia: A Layered Description of ATM Cell Traffic Streams and Correlation Analysis. INFOCOM 1991:137-144
575 David X. Chen, Jon W. Mark: SCOQ: A Fast Packet Switch with Shared Concentration and Output Queueing. INFOCOM 1991:145-154
574 Kazuhiro Ohtsuki, Kouichi Takemura, James F. Kurose, Hiromi Okada, Yoshikazu Tezuka: A High-Speed Packet Switch Architecture with a Multichannel Bandwidth Allocation. INFOCOM 1991:155-162
573 Weijia Wang, Fouad A. Tobagi: The Christmas-Tree Switch: An Output Queueing Space-Division Fast Packet Switch Based on Interleaving Distribution and Concentration Functions. INFOCOM 1991:163-170
572 Chao-Li Tarng, James S. Meditch: A High Performance Copy Network for B-ISDN. INFOCOM 1991:171-180
571 Dennis Karvelas, Alberto Leon-Garcia: A General Approach to the Delay Analysis of Symmetric Token Ring Networks. INFOCOM 1991:181-190
570 Yasushi Fuwa, Shuji Tasaka: Register-Insertion Type Slotted Rings: A Performance Analysis. INFOCOM 1991:191-201
569 Robert H. Deng, Wendy C. L. Chiew, Kuan-Tsae Huang: Analysis of Token Ring Networks with Both Finite and Infinite Buffer Capacity Stations. INFOCOM 1991:202-210
568 Zvonko G. Vranesic, V. Carl Hamacher, A. K. Sanwalka, Safwat G. Zaky: A Hybrid Token/Insertion Ring LAN. INFOCOM 1991:211-220
567 Whay Chiou Lee, Pierre A. Humblet: Slotted ALOHA in High Speed Bidirectional Bus Networks. INFOCOM 1991:221-227
566 Santiago V. Hung, Harry H. Tan: Performance Analysis of Slotted Replication ALOHA Over Fading Communications Channels. INFOCOM 1991:228-236
565 Aristides S. Galanopoulos, R. Lee Hamilton Jr.: Recursive Retransmission Control for a Two-Station Slotted-ALOHA Network. INFOCOM 1991:237-246
564 Ioannis Stavrakakis: Capacity Allocation Under Random Slot Assignment Policy. INFOCOM 1991:247-256
563 Dragomir D. Dimitrijevic, Basil S. Maglaris, Robert Boorstyn: Routing in Multi-Domain Networks. INFOCOM 1991:257-264
562 Deborah Estrin, Katia Obraczka: Connectivity Database Overhead for Inter-Domain Policy Routing. INFOCOM 1991:265-278
561 Vladislav Rutenburg, Richard G. Ogier: Fair Charging Policies and Minimum-Expected-Cost Routing in Internets with Packet Loss. INFOCOM 1991:279-288
560 Maurizio A. Bonuccelli: Minimum Fragmentation Internetwork Routing. INFOCOM 1991:289-294
559 Rajiv S. Dighe, C. J. May, Gopalakrishnan Ramamurthy: Congestion Avoidance Strategies in Broadband Packet Networks. INFOCOM 1991:295-303
558 Wen-Shyen E. Chen, Young Man Kim, Kyungsook Y. Lee, Ming T. Liu: A Distributed Congestion-Prevention Scheme for ATM Switching Fabrics Based on Buffered Delta Networks. INFOCOM 1991:304-313
557 Anna Hac: Congestion Control and Switch Buffer Allocation in High Speed Networks. INFOCOM 1991:314-322
556 S. Jamaloddin Golestani: Duration-Limited Statistical Multiplexing of Delay-Sensitive Traffic in Packet Networks. INFOCOM 1991:323-332
555 Jonathan L. Wang: An Integrated Methodology for Supporting Network Planning and Traffic Engineering with Considerations to SMDS Service. INFOCOM 1991:333-342
554 André Girard, Ezzedine Abassi: Decomposition Methods for Multihour Synthesis of Private Telecommunication Networks. INFOCOM 1991:343-351
553 J. K. Choi, M. Choi, T. S. Chung, Y. S. Shin, K. S. Kim: Overall Design Requirements of Broadband ATM Network. INFOCOM 1991:352-357
552 John K. Antonio: Receptivity: A Measure of Computer Networks' Ability to Accomodate Concurrent Communications. INFOCOM 1991:358-367
551 San-qi Li, Hong-Dah Sheng: Discrete Queueing Analysis of Multimedia Traffic with Diversity of Correlation and Burstiness Properties. INFOCOM 1991:368-381
550 Izhak Rubin, K. David Lin: Queueing Behavior Under Flow Control at the Subscriber-to-Network Interface for High Speed Metropolitan Area Networks. INFOCOM 1991:382-390
549 Iwao Sasase, Shinsaku Mori: Resequencing Delay for a Queueing System with Multiple Servers Under a Threshold-type Scheduling. INFOCOM 1991:391-399
548 Zheng-Xue Zhao, Shivendra S. Panwar, Donald F. Towsley: Queueing Performance with Impatient Customers. INFOCOM 1991:400-409
547 Baruch Awerbuch, Shay Kutten, David Peleg: On Buffer-Economical Store-and-Forward Deadlock Prevention. INFOCOM 1991:410-414
546 Gita Gopal, Nancy D. Griffeth, Abel Weinrib: Distributed Implementation of Real-Time Resource Counters. INFOCOM 1991:415-425
545 Khosrow Sohraby, Moshe Sidi: On the Performance of Bursty and Correlated Sources Subject to Leaky Bucket Rate-Based Access Control Schemes. INFOCOM 1991:426-434
544 Paolo Montuschi, Adriano Valenzano, Luigi Ciminiera: On the Equivalence of IEEE 8024 and FDDI Timed Token Protocols. INFOCOM 1991:435-440
543 Guido Albertengo: An Optimal Packet Switch Architecture for ATM. INFOCOM 1991:441-444
542 Enrico Del Re, Romano Fantacci: A Fast Packet Switching Satellite Communication Network. INFOCOM 1991:445-453
541 Mustafa K. Mehmet Ali, M. Youssefi: The Performance Analysis of an Input Access Scheme in a High-Speed Packet Switch. INFOCOM 1991:454-461
540 P. K. Bansal, Kuldip Singh, Ramesh C. Joshi, G. P. Saroha: Fault Tolerant Double Tree Multistage Interconnection Network. INFOCOM 1991:462-468
539 Lijun Yao, Wei Zhao: Performance of an Extended IEEE 8025 Protocol in Hard Real-Time Systems. INFOCOM 1991:469-478
538 Yu Gong, Michael Paterakis: Performance Analysis of a Flexible Protocol Achieving User Fairness in High-Speed Dual-Bus Networks with Destination Release. INFOCOM 1991:479-488
537 Shuji Tasaka, Takahiro Suzuki: A Performance Comparison of Connection-Oriented and Connectionless LCC Protocols in a High-Speed Satellite Data Network. INFOCOM 1991:489-497
536 Ian F. Akyildiz, Wei Liu: A General Analysis Techinque for ARQ Protocol Performance in High Speed Networks. INFOCOM 1991:498-507
535 Gerald R. Ash, Fu Chang, Deep Medhi: Robust Traffic Design for Dynamic Routing Networks. INFOCOM 1991:508-514
534 Tong-Bi Pei, Charles A. Zukowski: VLSI Implementation of Routing Tables: Tries and CAMs. INFOCOM 1991:515-524
533 Kenneth Luo, Yuan-Chieh Chow: A Message-Optimal Protocol for Global Surveys in Faulty Networks. INFOCOM 1991:525-532
532 Sieteng Soh, Suresh Rai: Experimental Results on Preprocessing of Path/Cut Terms in Sum of Disjoint Products Technique. INFOCOM 1991:533-542
531 Nanying Yin, Michael G. Hluchyj: A Dynamic Rate Control Mechanism for Integrated Networks. INFOCOM 1991:543-552
530 Josep M. Ferrandiz, Aurel A. Lazar: Admission Control for Real-Time Packet Sessions. INFOCOM 1991:553-559
529 Zygmunt J. Haas, Jack H. Winters: Congestion Control by Adaptive Admission. INFOCOM 1991:560-569
528 Izhak Rubin, Teresa Cheng: Admission Control for Multi-Layer Management of High-Speed Packet-Switched Networks Under Observation Noise. INFOCOM 1991:570-578
527 Einir Valdimarsson: Blocking in Multirate Networks. INFOCOM 1991:579-588
526 Paul Schragger: Scheduling Algorithms for Burst Reservations on Wide Area High Speed Networks. INFOCOM 1991:589-596
525 Rahul Simha, James F. Kurose: On-line Minimization of Call Setup Time via Load Balancing: A Stochastic Approximation Approach. INFOCOM 1991:597-607
524 Vincenzo Catania, Mario Gerla, Claudio Pavanelli: A Routing Strategy for MAN Interconnection. INFOCOM 1991:608-615
523 Sang Wu Kim: Optimal Multiaccess of Slotted Communication Channels. INFOCOM 1991:616-619
522 Yu Gong, Michael Paterakis: A Random Multiple-Access Algorithm for the Dependent Feedback Error Channel. INFOCOM 1991:620-627
521 Jau-Hsiung Huang, Chia-Ning Wu: On Performance Evaluation and Protocols Design of Tree Protocol with Collision Detection. INFOCOM 1991:628-637
520 Ilan Kessler, Moshe Sidi: Growing Binary Trees in a Random Environment. INFOCOM 1991:638-647
519 Scott Jordan, Pravin Varaiya: Control of Multiple Service, Multiple Resource Communication Networks. INFOCOM 1991:648-657
518 Suresh Chalasani, Anujan Varma: Efficient Time-Slot Assignment Algorithms for SS/TDMA Systems with Variable-Bandwidth Beams. INFOCOM 1991:658-667
517 Wen-Tsuen Chen, Huai-Jen Liu: An Adaptive Scheduling Algorithm for TDM Switching Systems. INFOCOM 1991:668-677
516 Biswanath Mukherjee, Ahmed E. Kamal: Scheduling Variable-Length Messages on Slotted, High-Speed Fiber Optic LANs/MANs Using the Continuation-Bit Approach. INFOCOM 1991:678-687
515 San-qi Li: Performance of Trunk Grouping in Packet Switch Design. INFOCOM 1991:688-693
514 Anil K. Gupta, Nicolas D. Georganas: Analysis of a Packet Switch with Input and Output Buffers and Speed Constraints. INFOCOM 1991:694-700
513 Hyong Sok Kim, Indra Widjaja, Alberto Leon-Garcia: Performance of Output-Buffered Banyan Networks with Arbitrary Buffer Sizes. INFOCOM 1991:701-710
512 Srinivasan Tridandapani, James S. Meditch: Priority Performance of Banyan-based Broadband-ISDN Switches. INFOCOM 1991:711-720
511 Jeffrey E. Wieselthier, Anthony Ephremides: A Movable-Boundary Channel-Access Scheme for Integrated Voice/Data Networks. INFOCOM 1991:721-731
510 Zygmunt J. Haas, Richard D. Gitlin: On the Packet Size in Integrated Networks. INFOCOM 1991:732-740
509 Jon M. Peha, Fouad A. Tobagi: A Cost-Based Scheduling Algorithm to Support Integrated Services. INFOCOM 1991:741-753
508 Bill Zell, Peter C. Fetterolf: An Approach to Generating Network Requirements. INFOCOM 1991:754-763
507 Gerard R. Pieris, Galen H. Sasaki: The Performance of Simple Error Control Protocols under Correlated Packet Losses. INFOCOM 1991:764-772
506 Tsern-Huei Lee: The Throughput Efficiency of Go-Back-N ARQ Scheme for Burst-Error Channels. INFOCOM 1991:773-780
505 Hiroshi Ohta, Tokuhiro Kitami: A Technique to Detect and Compensate Consecutive Cell Loss in ATM Networks. INFOCOM 1991:781-790
504 S. Kallel, C. Leung: An Adaptive Incremental Redundancy Selective-Repeat ARQ Scheme for Finite Buffer Receivers. INFOCOM 1991:791-796
503 Hwa-Chun Lin, Ge-Ming Chiu, C. S. Raghavendra: Performance Study of Dynamic Load Balancing Policies for Distributed Systems with Service Interruptions. INFOCOM 1991:797-805
502 Sub Ramakrishnan, Il-Hyung Cho, Larry A. Dunning: A Close Look at Task Assignment in Distributed Systems. INFOCOM 1991:806-812
501 K. Ravindran: Correcting Remote References to a Server in Distributed Operating Systems. INFOCOM 1991:813-821
500 Youngho Kim, Chongsang Kim: On Clustering of Hypercube for Large-Scale Multiprocessor Systems. INFOCOM 1991:822-829
499 Gopal Meempat, Malur K. Sundareshan: A Hierarchical Scheme for Combined Access Control and Routing of Circuit-Switched Traffic in ISDN Environments. INFOCOM 1991:830-839
498 Arvind Krishna, Andrea Pietracaprina, Bruce Hajek: Packet Routing in Optimal Time on a Butterfly. INFOCOM 1991:840-849
497 Daniel J. Marchok, Charles E. Rohrs, R. Michael Schafer: Multicasting in a Growable Packet (ATM) Switch. INFOCOM 1991:850-858
496 Chien Fang, Ted H. Szymanski: An Analysis of Deflection Routing in Multi-dimensional Regular Mesh Networks. INFOCOM 1991:859-868
495 Ahmed E. Kamal: Efficient Multi-Segment Message Transmission with Slot Reuse on DQDB. INFOCOM 1991:869-878
494 Biswanath Mukherjee, Subrata Banerjee: Alternative Strategies for Improving the Fairness in and an Analytical Model of DQDB Networks. INFOCOM 1991:879-888
493 Ellen L. Hahne, Nicholas F. Maxemchuk: Fair Access of Multi-Priority Traffic to Distributed-Queue Dual-Bus Networks. INFOCOM 1991:889-900
492 Gnanesh Coomaraswamy, Srikanta P. R. Kumar, Michel E. Marhic: Fiber Optic Configurations Supporting Confidentiality in Passive DQDB Systems. INFOCOM 1991:901-910
491 Shyamal K. Chowdhury: Distribution of the Total Delay of Packets in Virtual Circuits. INFOCOM 1991:911-918
490 Adam Wolisz, Volker Tschammer: Some Performance Aspects of Trading Service Design. INFOCOM 1991:919-928
489 Francesco Bernabei, Roberto Ferretti, Marco Listanti, Giuseppe Zingrillo: ATM System Buffer Design Under Very Low Cell Loss Probability Constraints. INFOCOM 1991:929-938
488 Zhensheng Zhang, Christos Douligeris: Convergence of Synchronous and Asynchronous Algorithms in Multiclass Networks. INFOCOM 1991:939-943
487 Matsuaki Terada, Tatsuya Yokoyama, Tetsuhiko Hirata, Susumu Matsui: A High Speed Protocol Processor to Execute OSI. INFOCOM 1991:944-949
486 Gee-Swee Poo, Boon-Ping Chai: Modularity versus Efficiency in OSI System Implementations. INFOCOM 1991:950-959
485 Yow-Wei Yao, Ming T. Liu: Constructing Protocol Converters with Guaranteed Service. INFOCOM 1991:960-969
484 Raymond E. Miller, Sanjoy Paul: Generating Minimal Length Test Sequences for Conformance Testing of Communication Protocols. INFOCOM 1991:970-979
483 Terence D. Todd, Zahid Khurshid, Allan M. Bignell, Soori Sivakumaran: Photonic Multihop Bus Networks. INFOCOM 1991:981-990
482 Aura Ganz, Zahava Koren: WDM Passive Star-Protocols and Performance Analysis. INFOCOM 1991:991-1000
481 Kumar N. Sivarajan, Rajiv Ramaswami: Multihop Lightwave Networks Based on de Bruijn Graphs. INFOCOM 1991:1001-1011
480 Zhensheng Zhang, Anthony S. Acampora: Performance Analysis of Multihop Lightwave Networks with Hot Potato Routing and Distance-Age-Priorities. INFOCOM 1991:1012-1021
479 Andrea Bondavalli, Lorenzo Strigini: DSDR: A Fair and Efficient Access Protocol for Ring-Topology MANs. INFOCOM 1991:1022-1030
478 Reuven Cohen, Adrian Segall: A New Scheme for Dynamic Management of Isochronous Channels in Integrated Rings. INFOCOM 1991:1031-1040
477 Robert H. Deng, Xian-Yu Zhang, Kuan-Tsae Huang: Token-passing Systems with Batch Arrivals and their Application to Multimedia File Transfer over Token-ring LANs. INFOCOM 1991:1041-1049
476 Yoram Ofek, Moti Yung: Lossless Asynchronous Broadcast-with-Feedback on the MetaNet Architecture. INFOCOM 1991:1050-1063
475 Arr-Mien Chou, Victor O. K. Li: Fair Spatial TDMA Channel Access Protocols for Multihop Radio Networks. INFOCOM 1991:1064-1073
474 Jeffrey E. Wieselthier, Craig M. Barnhart, Anthony Ephremides: A Neural Network Approach to Routing in Multihop Radio Networks. INFOCOM 1991:1074-1083
473 Limin Hu: A Novel Topology Control for Multihop Packet Radio Networks. INFOCOM 1991:1084-1093
472 Cheng-Shong Wu, Victor O. K. Li: Delay Analysis of Buffered BTMA Protocols in Multihop Packet Radio Networks. INFOCOM 1991:1094-1103
471 K. Ravindran, Samuel T. Chanson: Application-Specific Group Communications in Distributed Servers. INFOCOM 1991:1104-1113
470 Mark d'Inverno, Jon Crowcroft: Specification, Design and Implementation of an Interactive Conferencing System. INFOCOM 1991:1114-1126
469 Hiroya Tanigawa, Tomohiko Arikawa, Shigeki Masaki, Kazunori Shimamura: Personal Multimedia-Multipoint Teleconfernce System. INFOCOM 1991:1127-1134
468 Bala Rajagopalan, Michael Faiman: Load-Sharing and Shortest-Path Routing in Transparently Interconnected Local Area Networks. INFOCOM 1991:1135-1144
467 Paola Crocetti, Giorgio Gallassi, Mario Gerla: Bandwidth Advertising for MAN/ATM Connectionless Internetting. INFOCOM 1991:1145-1150
466 Galen H. Sasaki: Simple Design Algorithms for Interconnected Bus Networks. INFOCOM 1991:1151-1159
465 Luca Mongiovi, Martin Farrell, Vittorio Trecordi: A Proposal for Interconnecting FDDI Networks through BISDN. INFOCOM 1991:1160-1167
464 Kow C. Chang, Deniz Sandhu: Mean Waiting Time Approximations in Cyclic-Service Systems with Exhaustive Limited Service Policy. INFOCOM 1991:1168-1177
463 Marco Ajmone Marsan, Fabio Neri, Susanna Donatelli: Multiserver Multiqueue Systems with Limited Service and Zero Walk Time. INFOCOM 1991:1178-1188
462 Xing Chen, Jeremiah F. Hayes, Mustafa K. Mehmet Ali: Performance Analysis of Cyclic-Priority Input Access Method for a Multicast Switch. INFOCOM 1991:1189-1195
461 Duan-Shin Lee, San-qi Li: Transient Analysis of Multi-Server Queues with Markov-Modulated Poisson Arrivals and Overload Control. INFOCOM 1991:1196-1205
460 Baruch Awerbuch, Amotz Bar-Noy, Madan Gopal: Approximate Distributed Bellman-Ford Algorithms. INFOCOM 1991:1206-1213
459 Vladislav Rutenburg: Efficient Distributed Algorithms for Computing Shortest Pairs of Maximally Disjoint Paths in Communication Networks. INFOCOM 1991:1214-1219
458 Anastasios A. Economides, John A. Silvester: Multi-Objective Routing in Integrated Services Networks: A Game Theory Approach. INFOCOM 1991:1220-1227
457 Xiaoqiang Chen: Effect of Caching on Routing-Table Lookup in Multimedia Environment. INFOCOM 1991:1228-1236
456 Shih-Chian Yang, John A. Silvester: A Fault Tolerant Reconfigurable ATM Switch Fabric. INFOCOM 1991:1237-1244
455 Fouad A. Tobagi, Timothy Kwok: The Tandem Banyan Switching Fabric: A Simple High-Performance Fast Packet Switch. INFOCOM 1991:1245-1253
454 Maurizio Decina, Paolo Giacomazzi, Achille Pattavina: Shuffle Interconnection Networks with Deflection Routing for ATM Switching: The Closed-loop Shuffleout. INFOCOM 1991:1254-1263
453 Eric T. Bushnell, James S. Meditch: Dilated Multistage Interconnection Networks for Fast Packet Switching. INFOCOM 1991:1264-1273
452 Ching-Hua Chow: On Multicast Path Finding Algorithms. INFOCOM 1991:1274-1283
451 Tak-Shing Peter Yum, Mon-Song Chen: Multicast Source Routing in Packet-Switched Networks. INFOCOM 1991:1284-1288
450 Roberto Cusani, Fabrizio Sestini: A Recursive Multistage Structure for Multicast ATM Switching. INFOCOM 1991:1289-1295
449 Wen-Tsuen Chen, Pi-Rong Sheu, Jiunn-Hwa Yu: Time Slot Assignment in TDM Multicast Switching Systems. INFOCOM 1991:1296-1305
448 Mohsen Sarraf: Preassigned Retransmission Slots Multiple Access Scheme (PARS). INFOCOM 1991:1306-1315
447 Kuang Tsai, Harry H. Tan: Stability Analysis for Persistent CSMA/CD Systems. INFOCOM 1991:1316-1325
446 Xiao Hua Chen, Juhani Oksman: The Receiver and Transmitter Code Sensing Protocol and its Application in Distributed CDMA Networks. INFOCOM 1991:1326-1333
445 Dong-Min Lim, Hwang-Soo Lee: Throughput-Delay and Stability Analysis of an Asynchronous Spread Spectrum Packet Radio Network. INFOCOM 1991:1334-1343
444 Luís Ferreira Pires, Jeroen Schot: Systematic Design of a Network Gateway Using the FDT LOTOS. INFOCOM 1991:1344-1352
443 Sanjay Gupta, Keith W. Ross: Performance Modeling and Optimization of Interconnected Ethernets. INFOCOM 1991:1353-1359
442 Will E. Leland, Daniel V. Wilson: High Time-Resolution Measurement and Analysis of LAN Traffic: Implications for LAN Interconnection. INFOCOM 1991:1360-1366
441 Rebecca Nitzan: An Analysis of OSI in the NASA Science Internet. INFOCOM 1991:1367-1376
440 Ness B. Shroff, Magda El Zarki: Performance Analysis of a Virtual Circuit Connection in a High Speed ATM WAN using the Best Effort Delivery Strategy. INFOCOM 1991:1377-1385
439 Maurizio Decina, Lorenzo Faglia, T. Toniatti: Bandwidth Allocation and Selective Discarding for Variable Bit Rate Video and Bursty Data Calls in ATM Networks. INFOCOM 1991:1386-1393
438 Jacques H. Déjean, Lars Dittmann, Claus N. Lorenzen: Performance Improvement of an ATM Network by Introducing String Mode. INFOCOM 1991:1394-1402
437 David W. Petr, Victor Frost: Nested Threshold Cell Discarding for ATM Overload Control: Optimization under Cell Loss Constraints. INFOCOM 1991:1403-1412
436 Peter Martini, Thomas Meuser: Real-Time Traffic in FDDI-II Packet Switching vs Circuit Switching. INFOCOM 1991:1413-1420
435 Irfan Ali, Kenneth S. Vastola: Transient Behavior of the FDDI Protocol Under Heavy Load. INFOCOM 1991:1421-1430
434 Y. Y. Yang, R. Sankar: Maximizing FDDI Network Performance by Parameter Tuning. INFOCOM 1991:1431-1439
433 Chung-Chin Lu, Kuo-Yang Lin: Delay Time Analysis of FDDI Protocol. INFOCOM 1991:1440-1445
432 Henning Schulzrinne, James F. Kurose: Distribution of the Loss Period for Some Queues in Continuous and Discrete Time. INFOCOM 1991:1446-1455
431 Asad Khamisy, Moshe Sidi: Discrete-Time Priority Queueing System with Two-State Markov Modulated Arrival Processes. INFOCOM 1991:1456-1463
430 Jingdong Ye, San-qi Li: Analysis of Multi-Media Traffic Queues with Finite Buffer and Overload Control - Part 1: Algorithm. INFOCOM 1991:1464-1474
429 Josep M. Ferrandiz, Aurel A. Lazar: Rate Conservation Analysis of the Multiclass M/G/1/B Queue. INFOCOM 1991:1475-1480
428 Christian Huitema, Walid Dabbous: Minimal Complexity for the Simplest Protocol. INFOCOM 1991:1481-1489
427 Mostafa H. Ammar, George N. Rouskas: On the Performance of Protocols for Collecting Responses over a Multiple-Access Channel. INFOCOM 1991:1490-1499
426 Limin Hu: Distributed Code Assignments for CDMA Packet Radio Networks. INFOCOM 1991:1500-1509
425 Haixing Shi, Mohsen Kavehrad: ALOHA/Slotted-CSMA Protocol for a Very High-Speed Optical Fiber Local Area Network Using Passive Star Topology. INFOCOM 1991:1510-1515
424 Amir Behroozi-Toosi, Ramesh R. Rao: Stability Analysis of an Asymmetric, Limited Service, Token Ring System. INFOCOM 1990:1-7
423 David J. Greaves, Dimitris Lioupis, Andy Hopper: The Cambridge Backbone Ring. INFOCOM 1990:8-14
422 Ahmed E. Kamal: On the Use of Multiple Tokens on Ring Networks. INFOCOM 1990:15-22
421 Thomas Welzel: Performance Analysis of Token Rings as High Speed Backbone Networks. INFOCOM 1990:23-29
420 Arthur W. Berger: Performance Analysis of a Rate Control Throttle Where Tokens and Jobs Queue. INFOCOM 1990:30-38
419 Zbigniew Dziong, Ke-Qiang Liao, Lorne Mason: Flow Control Models for Multi-Service Networks with Delayed Call Set Up. INFOCOM 1990:39-46
418 Claude Evéquoz, Carl Tropper: End-To-End Delay of Multiple Packet Messages in Window Flow Controlled Packet Switching Networks. INFOCOM 1990:47-54
417 Sridhar Pingali, David Tipper, Joseph L. Hammond: The Performance of Adaptive Window Flow Controls in a Dynamic Load Environment. INFOCOM 1990:55-62
416 S. L. Arnold, E. A. Wilson: Extension and Evolution of Existing Network Management Systems Over a Seamless Inter-Exchange of Host- and PC-Based Processors. INFOCOM 1990:63-68
415 John W. H. Bartholomew, Aseem S. Chandawarkar, Mool C. Singhi, Sarat C. Puthenpura, Lakshman P. Sinha: SIRCIT: A System for AT&T Overseas Network Planning. INFOCOM 1990:69-73
414 S. Esaki, T. Omiya, J. Kuwabayashi: Abstraction of Transport Networks and Control Messages for Intelligent Network. INFOCOM 1990:74-80
413 Marco Mostrel: A Transport Span Protection Strategy for Survivability of Interoffice Facilities Telecommunications Networks. INFOCOM 1990:81-93
412 Ender Ayanoglu, Chih-Lin I, Richard D. Gitlin, James E. Mazo: Diversity Coding: Using Error Control For Self-Healing in Communication Networks. INFOCOM 1990:95-104
411 Subrahmanyam Dravida, Vikram R. Saksena: Error Performance of IEEE 8026 Metropolitan Area Networks. INFOCOM 1990:105-115
410 Tokuhiro Kitami, Ikuo Tokizawa: Cell Loss Compensation Schemes Employing Error Correction Coding for Asynchronous Broadband ISDN. INFOCOM 1990:116-123
409 Nachum Shacham, Paul E. McKenney: Packet Recovery in High-Speed Networks Using Coding and Buffer Management. INFOCOM 1990:124-131
408 Amit Bhargava, Michael G. Hluchyj: Frame Losses Due To Buffer Overflows in Fast Packet Networks. INFOCOM 1990:132-139
407 Hyong Sok Kim, Alberto Leon-Garcia: Performance of Self-Routing ATM Sitch under Nonuniform Traffic Pattern. INFOCOM 1990:140-147
406 Chin-Tau A. Lea: Design and Performance Evaluation of Unbuffered Self-Routing Networks for Wideband Packet Switching. INFOCOM 1990:148-156
405 Arindam Saha, Meghanad D. Wagh: Performance Analysis of Banyan Networks Based on Buffers of Various Sizes. INFOCOM 1990:157-164
404 Andrea Baiocchi, Marco Carosi, Marco Listanti, Giovanni Pacifici, Aldo Roveri, Roberto Winkler: The ACCI Access Protocol for a Twin Bus ATM Metropolitan Area Network. INFOCOM 1990:165-174
403 Ellen L. Hahne, Abhijit K. Choudhury, Nicholas F. Maxemchuk: Improving the Fairness of Distributed-Queue-Dual-Bus Networks. INFOCOM 1990:175-184
402 Hans R. Müller, Mehdi Nassehi, Johnny W. Wong, Erwin A. Zurfluh, Werner Bux, Pitro Zafiropulo: DQMA and CRMA: New Access Schemes for Gbit/s LANs and MANs. INFOCOM 1990:185-191
401 Terence D. Todd, Allan M. Bignell: Performance Modeling of the SIGnet MAN Backbone. INFOCOM 1990:192-199
400 Paul S. Min, Manju V. Hegde: End-to-End Planning Model for Optimal Evolution of Telecommunications Network. INFOCOM 1990:200-206
399 José Augusto Suruagy Monteiro, Mario Gerla: Topological Reconfiguration of ATM Networks. INFOCOM 1990:207-214
398 K. T. Newport: Incorporating Survivability Considerations Directly into the Network Design Process. INFOCOM 1990:215-220
397 Alexander Shulman, Rita Vachani: An Algorithm for Capacity Expansion of Local Access Networks. INFOCOM 1990:221-229
396 Mohamed Haggag, Raymond L. Pickholtz: A Simple Priority Scheme for Local Area Networks and Its Analysis. INFOCOM 1990:230-237
395 Wlodzimierz Dobosiewicz, Pawel Gburzynski, Piotr Rudnicki: An Ethernet-like CSMA/CD Protocol for High Speed Bus LANs. INFOCOM 1990:238-245
394 László Jereb, Marco Ajmone Marsan: Transient Performance Analysis of 1-Persistent CSMA and CSMA-CD Protocols. INFOCOM 1990:246-252
393 Bin Lin, Elvino S. Sousa: A Modified CSMA-CD Protocol for High Speed Channels. INFOCOM 1990:253-259
392 Kow C. Chang, Deniz Sandhu: Pseudo-Conservation Laws in Cyclic-Server Multiqueue Systems with a Class Of Limited Service Policies. INFOCOM 1990:260-267
391 Gagan L. Choudhury: Polling with a General Service Order Table: Gated Service. INFOCOM 1990:268-276
390 Kin K. Leung, Martin Eisenberg: A Single-Server Queue with Vacations and Non-Gated Time-Limited Service. INFOCOM 1990:277-283
389 Marco Ajmone Marsan, Luís F. M. de Moraes, Susanna Donatelli, Fabio Neri: Analysis of Symmetric Nonexhaustive Polling with Multiple Servers. INFOCOM 1990:284-295
388 S. Aggarwal, P. Obenour: Specifying a Switch System Using IC. INFOCOM 1990:296-304
387 Francesco Bernabei, Carla Calabrò, Marco Listanti: Evolution of the Generalized Parallel Delta Networks Towards a Photonic Switching Environment. INFOCOM 1990:305-312
386 Marco Conti, Enrico Gregori, Luciano Lenzini: DQDB Under Heavy Load: Performance Evaluation and Fairness Analysis. INFOCOM 1990:313-320
385 Tak-Shing Peter Yum: Hierarchical Distribution of Video with Dynamic Port Allocation. INFOCOM 1990:321-328
384 Francesco Bernabei, Carla Calabrò, Marco Listanti: Distributed CBO Call Set-Up in a Circuit Emulation ATM Switch. INFOCOM 1990:330-337
383 Ajei S. Gopal, Inder S. Gopal, Shay Kutten: Broadcast in Fast Networks. INFOCOM 1990:338-347
382 Chong-kwon Kim, Tony T. Lee: Performance of Call Splitting Algorithms for Multicast Traffic. INFOCOM 1990:348-356
381 Makoto Takizawa, Akihito Nakamura: Partially Ordering Broadcast (PO) Protocol. INFOCOM 1990:357-364
380 Rong-Feng Chang, Victor O. K. Li: Local Access Algorithms in Hierarchical Mobile Packet Radio Networks. INFOCOM 1990:365-373
379 Lawrence C. Pond, Victor O. K. Li: Network Capacity Analysis of Mobile Multi-Hop Packet Radio Networks Under Virtual Circuit and TDMA Policies. INFOCOM 1990:374-381
378 James R. Yee, Feng-Min Shiao: On Calculating High Throughputs in Multi-Hop Slotted ALOHA Packet Radio Networks. INFOCOM 1990:382-388
377 R. Lee Hamilton Jr., Hsien-Chuen Yu: Optimal Routing in Multihop Packet Radio Networks. INFOCOM 1990:389-396
376 N. Z. Hakim, H. E. Meadows: A Neural Network Approach to Set Up The Benes Switch. INFOCOM 1990:397-402
375 Teruyuki Kubo, Kazuhiro Yoguchi: Highway Transfer: A New Packet Forwarding Technique for Real-Time Applications. INFOCOM 1990:403-408
374 Isaac D. Scherson, Peter F. Corbett, Tomás Lang: An Analytical Characterization of Generalized Shuffle-Exchange Networks. INFOCOM 1990:409-414
373 James P. G. Sterbenz, Guru M. Parulkar: AXON: A High Speed Communication Architecture for Distributed Applications. INFOCOM 1990:415-425
372 Inder S. Gopal, Raphael Rom: Improving ARQ Protocol Performance By Multiple FIFO Buffers. INFOCOM 1990:426-432
371 Zygmunt J. Haas: A Communication Architecture for High-speed Networking. INFOCOM 1990:433-441
370 Hiroshi Inai, Takeshi Nishida, Tokumi Yokohira, Hideo Miyahara: End-to-End Performance Modeling for Layered Communication Protocol. INFOCOM 1990:442-449
369 Tony Y. Mazraani, Guru M. Parulkar: Specification of a Multipoint Congram-Oriented High Performance Internet Protocol. INFOCOM 1990:450-457
368 Flaminio Borgonovo, Enrico Cadorin: Locally-Optimal Deflection Routing in the Bidirectional Manhattan Network. INFOCOM 1990:458-464
367 Tein Y. Chung, Dharma P. Agrawal: On Network Characterization of an Optimal Broadcasting in the Manhattan Street Network. INFOCOM 1990:465-472
366 Arvind Krishna, Bruce Hajek: Performance of Shuffle-Like Switching Networks with Deflection. INFOCOM 1990:473-480
365 G. E. Myers, Magda El Zarki: Routing in TAC - A Triangularly-Arranged Network. INFOCOM 1990:481-486
364 Rong-Hong Jan, Fung-Jen Hwang: Topological Optimization Problem of Communication Networks Subject to a Reliability Constraint. INFOCOM 1990:487-494
363 Khiem V. Le, Victor O. K. Li: A Path-Based Approach for Analyzing Reliability of Networks With Dependent Failures and Multimode Components. INFOCOM 1990:495-503
362 Nanchang Lin, Charles B. Silio Jr.: A Reliability Comparison of Single and Double Rings. INFOCOM 1990:504-511
361 Jon M. Peha, Fouad A. Tobagi: Fault Tolerance of a Class of Double-Loop Networks. INFOCOM 1990:512-519
360 Krishna Bala, Israel Cidon, Khosrow Sohraby: Congestion Control for High Speed Packet Switched Networks. INFOCOM 1990:520-526
359 S. Jamaloddin Golestani: Congestion-Free Transmission of Real-Time Traffic in Packet Networks. INFOCOM 1990:527-536
358 David W. Petr, Victor Frost: Optimal Packet Discarding: An ATM-Oriented Analysis Model and Intial Results. INFOCOM 1990:537-542
357 Henning Schulzrinne, James F. Kurose, Donald F. Towsley: Congestion Control for Real-Time Traffic in High-Speed Networks. INFOCOM 1990:543-550
356 Kenneth L. Calvert, Simon S. Lam: Adaptors for Protocol Conversion. INFOCOM 1990:552-560
355 Wen-Huei Chen, Ching-Sung Lu, L. Chen, Jin-Tuu Wang: Synchronizable Protocol Test Generation via the Duplex Technique. INFOCOM 1990:561-563
354 Kaoru Okumura: Generation of Proper Adapters and Converters From A Formal Service Specification. INFOCOM 1990:564-571
353 Yow-Wei Yao, Wen-Shyen E. Chen, Ming T. Liu: A Modular Approach to Constructing Protocol Converters. INFOCOM 1990:572-579
352 Michael Paterakis, Yu Gong: Performance Analysis of Random Access Multiuser Algorithms for Packets with Different Priorities. INFOCOM 1990:580-587
351 Nikos B. Pronios: On The Stability of Spread-Spectrum Networks, With Decentralized Recursive Retransmission Control, Under Jamming. INFOCOM 1990:588-594
350 Harry H. Tan, Santiago V. Hung: Performance Analysis of Slotted ALOHA Over Fading Communications Channels. INFOCOM 1990:595-602
349 Wei-hsing Wang, Eugene Pinsky, Kelvin K. Y. Ho: Performance Analysis of Some Channel Access Schemes in Cellular Communication Systems. INFOCOM 1990:603-609
348 Chatschik Bisdikian: Waiting Time Analysis in a Single Buffer DQDB (8026) Network. INFOCOM 1990:610-616
347 Mark W. Garrett, San-qi Li: A Study of Slot Reuse in Dual Bus Multiple Access Networks. INFOCOM 1990:617-629
346 Harbans Kaur, Graham Campbell: DQDB - An Access Delay Analysis. INFOCOM 1990:630-635
345 Manoel A. Rodrigues: Erasure Node: Performance Improvements for the IEEE 8026 MAN. INFOCOM 1990:636-643
344 T. E. Eliazov, V. Ramaswami, Walter Willinger, Guy Latouche: Performance of an ATM Switch: Simulation Study. INFOCOM 1990:644-659
343 Ting-Chao Hou, Albert K. Wong: Queueing Analysis for ATM Switching of Mixed Continuous-Bit-Rate and Bursty Traffic. INFOCOM 1990:660-667
342 Soung C. Liew, Kevin W. Lu: Performance Analysis of Asymmetric Packet Switch Modules with Channel Grouping. INFOCOM 1990:668-676
341 Kohei Shiomoto, Masayuki Murata, Yuji Oie, Hideo Miyahara: Performance Evaluation of Cell Bypass Queueing Discipline for Buffered Banyan Type ATM Switches. INFOCOM 1990:677-685
340 Li Gong: Verifiable-Text Attacks in Cryptographic Protocols. INFOCOM 1990:686-693
339 Anurag Kumar, Robert G. Cole: Comparative Performance of Interleaved and Non-Interleaved Pipelining in LAPD Terminal Adaptors. INFOCOM 1990:694-701
338 Branislav Meandzija: Integration Through Meta-Communication. INFOCOM 1990:702-709
337 Vijay Varadharajan: A Multilevel Security Policy for Networks. INFOCOM 1990:710-718
336 Jeane S.-C. Chen, Roch Guérin, Thomas E. Stern: Markov-Modulated Flow Model for the Output Queues of a Packet Switch. INFOCOM 1990:719-727
335 John N. Daigle, Y. Lee, Marcos Nascimento Magalhães: Discrete Time Queue with Phase Dependent Arrivals. INFOCOM 1990:728-732
334 Paul E. McKenney: Stochastic Fairness Queueing. INFOCOM 1990:733-740
333 Douglas R. Shier, E. Bibelnieks, James P. Jarvis, J. R. Lakin: Algorithms for Approximating the Performance of Multimode Systems. INFOCOM 1990:741-748
332 Bart van Arem: On Stability of Queueing Models for Slotted Ring Local Area Networks. INFOCOM 1990:749-755
331 Lap-kong Chan, Zvonko G. Vranesic: TORMLAN - A Multichannel Local Area Network Protocol. INFOCOM 1990:756-765
330 Wayne L. Genter, Kenneth S. Vastola: Delay Analysis of the FDDI Synchronous Data Class. INFOCOM 1990:766-773
329 Kent H. Tseng, Man-tung T. Hsiao: Optimal Control of Arrivals to Token Ring Networks with Exhaustive Service Discipline. INFOCOM 1990:774-781
328 Alexander Birman: A High-Performance Switch with Applications to Frame Relay Networks. INFOCOM 1990:782-789
327 Thomas K. Helstern, Mario Izzo: Functional Architecture for a Next Generation Switching System. INFOCOM 1990:790-795
326 Shun-ichi Iisaku, Masami Ishikura: ATM Network Architecture for Supporting the Connectionless Service. INFOCOM 1990:796-802
325 Arthur Y. M. Lin, John A. Silvester: Fixed-Node Routing Architecture and Its Performance in ATM Networks. INFOCOM 1990:803-810
324 Alberto Avritzer, Mario Gerla, Berthier A. Ribeiro-Neto, Jack W. Carlyle, Walter J. Karplus: The Advantage of Dynamic Tuning in Distributed Asymmetric Systems. INFOCOM 1990:811-818
323 José M. Bernabéu-Aubán, Mustaque Ahamad, Mostafa H. Ammar: Resource Finding in Store-and-Forward Networks. INFOCOM 1990:819-826
322 Ge-Ming Chiu, C. S. Raghavendra: A Model for Optimal Database Allocation in Distributed Computing Systems. INFOCOM 1990:827-833
321 Steven E. Minzer: Demand Paging Protocol for Sharing a Number Space Among Communicating Entities. INFOCOM 1990:834-841
320 Wei-Houg Chen, Chun-Chin Lu: CSMA/CD/TDMA: A Dynamic Combination for Voice and Data Integration. INFOCOM 1990:842-849
319 Jon W. Mark, Byoung-Joon Lee: A Dual-Ring LAN for Integrated Voice/Video/Data Services. INFOCOM 1990:850-857
318 Gopal Meempat, Malur K. Sundareshan: Modeling and Performance Evaluation of a Reinforced Movable Boundary Hybrid Switched Multiplexing Scheme with Adaptive Speech Interpolation. INFOCOM 1990:858-865
317 Zhensheng Zhang, Izhak Rubin: Bounds on the Mean System-size and Delay for Movable-Boundary Integrated Circuit and Packet Switched Communications Channel. INFOCOM 1990:866-873
316 Mooi Choo Chuah, Rene L. Cruz: Approximate Analysis of Average Performance of (sigma, rho) Regulators. INFOCOM 1990:874-880
315 Maurizio Decina, T. Toniatti, P. Vaccari, L. Verri: Bandwidth Assignment and Virtual Call Blocking in ATM Networks. INFOCOM 1990:881-888
314 Shuo-Yen Robert Li: Algorithms for Flow Control and Call Set-Up in Multi-Hop Broadband ISDN. INFOCOM 1990:889-895
313 Gopalakrishnan Ramamurthy, Rajiv S. Dighe: Distributed Source Control: A Network Access Control for Integrated Broadband Packet Networks. INFOCOM 1990:896-907
312 Jagdish Kohli: Perspectives on FDDI and DQDB MAN Technologies. INFOCOM 1990:908-908
311 Joseph Pang: Perspectives on Fiber Distributed Data Interface (FDDI). INFOCOM 1990:909-909
310 Ofrit Lesser: Routing By Controlled Flooding in Communication Networks. INFOCOM 1990:910-917
309 Ted H. Szymanski: An Analysis of Hot-Potato Routing in a Fiber Optic Packet Switched Hypercube. INFOCOM 1990:918-925
308 David Tipper, Malur K. Sundareshan: An Optimal Control Approach to Decentralized Dynamic Virtual Circuit Routing in Computer Networks. INFOCOM 1990:926-933
307 Eric W. M. Wong, Tak-Shing Peter Yum: Maximum Free Circuit Routing in Circuit-Switched Networks. INFOCOM 1990:934-937
306 Theodore O. Brunner, Thomas E. Stern: Performance Analysis of a Packet Voice Messaging System. INFOCOM 1990:938-946
305 Ramesh Nagarajan, James F. Kurose, Donald F. Towsley: Approximation Techniques for Computing Packet Loss in Finite-Buffered Voice Multiplexers. INFOCOM 1990:947-955
304 Nanying Yin, San-qi Li: Voice Packet Loss: Destination vs Internodal Links. INFOCOM 1990:956-962
303 Ji Zhang, Edward J. Coyle: The Transient Performance Analysis of Voice/Data Integrated Networks. INFOCOM 1990:963-968
302 Israel Cidon, Yoram Ofek: Metaring - A Full-Duplex Ring With Fairness and Spatial Reuse. INFOCOM 1990:969-981
301 W. Wilson Ho, Biswanath Mukherjee: A Multiple-Partition Token Ring Network. INFOCOM 1990:982-988
300 Tsong-Ming Tsai, Lazaros F. Merakos: Interconnection of High Speed Token Ring LANs: A Switch-Connection Approach. INFOCOM 1990:989-996
299 Priya N. Werahera, Anura P. Jayasumana: Throughput Evaluation of an Asymmetrical FDDI Token Ring Network With Multiple Classes of Traffic. INFOCOM 1990:997-1004
298 Joseph A. Bannister, Luigi Fratta, Mario Gerla: Topological Design of the Wavelength-Division Optical Network. INFOCOM 1990:1005-1013
297 Imrich Chlamtac, Aura Ganz, G. Karmi: Lightnet: Lightpath Based Solutions for Wide Bandwidth WANs. INFOCOM 1990:1014-1021
296 Jean-François P. Labourdette, Anthony S. Acampora: Wavelength Agility in Multihop Lightwave Networks. INFOCOM 1990:1022-1029
295 K. Yamaguchi, N. Fujimoto, H. Rokugawa, T. Nakagami, S. Yamakoshi: A Broadband Access Network Based on Optical Signal Processing: The Photonic Highway. INFOCOM 1990:1030-1037
294 B. Amin-Salehi, G. D. Flinchbaugh, L. R. Pate: Implications of New Network Services on BISDN Capabilities. INFOCOM 1990:1038-1045
293 Howard E. Bussey, Carmen Egido, Amy Kaplan, Steven L. Rohall, Rosanna Yuan: Service Architecture, Prototype Description, and Network Implication of a Personalized Information Grazing Service. INFOCOM 1990:1046-1053
292 Ralph E. Droms: Access to Heterogeneous Directory Services. INFOCOM 1990:1054-1061
291 Gerald Weiss, Chaim Ziegler: A Comparative Analysis of Implementation Mechanisms for Pacekt Voice Conferencing. INFOCOM 1990:1062-1070
290 Nico M. van Dijk: A Discrete-Time Product Form for Random Access Protocols. INFOCOM 1990:1071-1077
289 Nicholas Malcolm, Wei Zhao, Chris J. Barter: Guarantee Protocols for Communication in Distributed Hard Real-Time Systems. INFOCOM 1990:1078-1086
288 Ming Liu, Panayota Papantoni-Kazakos: A Random Access Algorithm for Data Networks Carrying High Priority Traffic. INFOCOM 1990:1087-1094
287 Ioannis Stavrakakis: Analysis of a Class of Star-Interconnected Networks. INFOCOM 1990:1095-1101
286 Siamak Ayandeh: Performance Evaluation of the IEEE 8024 Token Bus Protocol for Distributed Real-Time Applications. INFOCOM 1990:1102-1110
285 Kin K. Leung: Waiting Time Distribution for Token-Passing Systems with Limited-One Service via Discrete Fourier Transforms. INFOCOM 1990:1111-1118
284 Dan C. Marinescu: A Protocol for Multiple Access Communication with Real-Time Delivery Constraints. INFOCOM 1990:1119-1126
283 Pascale Minet: Performance Issues with the SAE LTPB and the IEEE 8024 Protocols. INFOCOM 1990:1127-1135
282 Hans Kröner: Comparative Performance Study of Space Priority Mechanisms for ATM Networks. INFOCOM 1990:1136-1143
281 San-qi Li: A General Solution Technique for Discrete Queueing Analysis of Multi-Media Traffic on ATM. INFOCOM 1990:1144-1155
280 Debasis Mitra: Optimal Design of Windows for High Speed Data Networks. INFOCOM 1990:1156-1163
279 Q. Ta, James S. Meditch: A High Speed Integrated Services Switch Based on 4 × 4 Switching Elements. INFOCOM 1990:1164-1171
278 Israel Bar-David, Mark J. Karol: Nested Multi-Connected Rings for Large High-Capacity LANs and MANs. INFOCOM 1990:1172-1180
277 Vincenzo Catania, Antonio Puliafito, Lorenzo Vita: Availability and Performability Assessment in LAN Interconnection. INFOCOM 1990:1181-1187
276 Hossam S. Hassanein, Ahmed E. Kamal: On the Behavior of Hubnet with Applications to Priority Implementation. INFOCOM 1990:1188-1195
275 Kuang Tsai, Harry H. Tan: Common Channel Priority Acknowledgement Schemes for Carrier Sense Cable Systems. INFOCOM 1990:1196-1203
274 Jörg Liebeherr, Ian F. Akyildiz: Performance Analysis of Gateways with Buffer Constraints. INFOCOM 1990:1204-1212
273 Zhen Liu, Philippe Nain: Optimal Scheduling in Some Multi-Queue Single-Server Systems. INFOCOM 1990:1213-1219
272 Ioannis Stavrakakis: Analysis of a Statistical Multiplexer Under a General Input Traffic Model. INFOCOM 1990:1220-1225
271 Shuichi Sumita: Synthesis of an Output Buffer Management Scheme in a Switching System for Multimedia Communications. INFOCOM 1990:1226-1233
270 Riccardo Melen, Jonathan S. Turner: Nonblocking Multirate Distribution Networks. INFOCOM 1990:1234-1241
269 Yuji Oie, Tatsuya Suda, Masayuki Murata, David J. Kolson, Hideo Miyahara: Survey of Switching Techniques in High-Speed Networks and Their Performance. INFOCOM 1990:1242-1251
268 Achille Pattavina: Design and Performance Evaluation of a Packet Switch for Broadband Central Offices. INFOCOM 1990:1252-1259
267 Salman Z. Shaikh, Mischa Schwartz, Ted H. Szymanski: A Comparison of the Shufflenet and the Banyan Topologies for Broadband Packet Switches. INFOCOM 1990:1260-1267
266 Wai Sum Lai: Protocols for High-Speed Networking. INFOCOM 1990:1268-1269
265 Jean-Lien C. Wu, Jingshown Wu, Tien-Yu Huang: A Reliable Token-Passing Bus LAN with Reservation. INFOCOM 1989:1-8
264 Masayuki Murata, Kohei Shiomoto, Hideo Miyahara: Performance Analysis of Token Ring Networks with Reservation Priority Discipline. INFOCOM 1989:9-18
263 Bandula W. Abeysundara, Ahmed E. Kamal: Z-NET: A Dual Bus Fiber-Optic LAN Using Active and Passive Switches. INFOCOM 1989:19-27
262 Lazaros F. Merakos, Hai Xie: Interconnection of CSMA/CE LANs via an N-Port Bridge. INFOCOM 1989:28-37
261 Thomas G. Robertazzi: Recursive Solution of a Class of Non-Product Form Protocol Models. INFOCOM 1989:38-46
260 Israel Cidon, Moshe Sidi: Recursive Computation of Steady-State Probabilities in Priority Queues. INFOCOM 1989:47-50
259 Izhak Rubin, Montasser Ouaily: Performance Analysis of Message Delay Limited Synchronous Communication and Queueing Systems. INFOCOM 1989:51-58
258 Tatsuya Suda, Kunio Goto: Performance Study of a Tree LAN with Collision Avoidance. INFOCOM 1989:59-68
257 Dragomir D. Dimitrijevic, Mon-Song Chen: An Integrated Algorithm for Probabilistic Protocol Verification and Evaluation. INFOCOM 1989:69-73
256 Li Layuan: A Formal Specification Technique for Communication Protocol. INFOCOM 1989:74-81
255 C. Jittawiriyanukoon, T. Watanabe, Hikaru Nakanishi, Yoshikazu Tezuka: Approximate Analytic Method for Computer Systems with Multiple Level Concurrent Programs. INFOCOM 1989:82-90
254 Earl E. McCoy, Pamela Zave: Multistage, Multifaceted Analysis of Telecommunications Network Architectures. INFOCOM 1989:91-95
253 Barry M. Leiner: Telescience and High Bandwidth Networking. INFOCOM 1989:96
252 John F. Patterson: Beyond Multiplexing and Full-Motion Video: Any Other Uses for Broadband? INFOCOM 1989:97
251 Jonathan S. Turner: Why We Need Gigabit Networks. INFOCOM 1989:98-99
250 Douglas Comer, Rajendra Yavatkar: FLOWS: Performance Guarantees in Best Effort Delivery Systems. INFOCOM 1989:100-109
249 Donald F. Ferguson, Christos Nikolaou, Yechiam Yemini: An Economy for Flow Control in Computer Networks. INFOCOM 1989:110-118
248 Wei Kang Tsai, Pierce E. Cantrell, Jeffrey Goos: Fairness of Optimal Routing in Virtual Circuit Data Networks. INFOCOM 1989:119-126
247 Ming-Jeng Lee, James R. Yee: An Efficient Near-Optimal Algorithm for the Joint Traffic and Trunk Routing Problem in Self-Planning Networks. INFOCOM 1989:127-135
246 Ilan Kessler, Moshe Sidi: Splitting Algorithms in Noisy Channels with Memory. INFOCOM 1989:136-142
245 Pawel Gburzynski, Piotr Rudnicki: On Formal Modeling of Communication Channels. INFOCOM 1989:143-151
244 Ahmed E. Kamal: CSMA/CD with Two Persistence Factors: A Unified Performance Model for CSMA/CD. INFOCOM 1989:152-162
243 David Hung-Chang Du, Shu-Ping Chang, Ghanta Subbaro: Multiple Packet Multiple Channel CSMA/CD Protocols for Local Area Networks. INFOCOM 1989:163-172
242 Richard G. Ogier, Nachum Shacham: A Distributed Algorithm for Finding Shortest Pairs of Disjoint Paths. INFOCOM 1989:173-182
241 John K. Antonio, Garng M. Huang, Wei Kang Tsai: A Fast Distributed Shortest Path Algorithm for a Class of Hierarchically Structured Data Networks. INFOCOM 1989:183-192
240 Ariel Orda, Raphael Rom: Location of Central Nodes in Time Varying Computer Networks. INFOCOM 1989:193-199
239 Frank Yeong-Sung Lin, James R. Yee: A Distributed Routing Algorithm for Virtual Circuit Data Networks. INFOCOM 1989:200-207
238 Edward J. Coyle, James S. Lehnert: Packet Radio and the Factory of the Future. INFOCOM 1989:208-209
237 Asok Ray: Fiber-Optic-Based Networks for Computer-Integrated Manufacturing. INFOCOM 1989:210-211
236 Martina Zitterbart: A Multiprocessor Architecture for High Speed Network Interconnections. INFOCOM 1989:212-218
235 Francesco Bernabei, Marco Listanti: Generalized Parallel Delta Networks: A New Class of Rearrangeable Interconnection Networks. INFOCOM 1989:219-226
234 Nobuo Fujii: Application of a Rearrangement Algorithm for Digital Cross-Connect System Control. INFOCOM 1989:228-233
233 Teddy Boyce, T. Grenier, Robert L. Probert, Hasan Ural: Formalization of ISDN LAPD for Conformance Testing. INFOCOM 1989:234-246
232 Barry S. Bosik: ISDN Conformance Testing at AT&T. INFOCOM 1989:247
231 David H. Su, Thomas B. DeWitt: ISDN Conformance Test Development at NIST. INFOCOM 1989:248-249
230 Jayant G. Gadre: ISDN Conformance Test System Development at COS. INFOCOM 1989:250
229 Michel Barbeau, Behçet Sarikaya, Srinivas Eswara, Vassilios N. Koukoulidis: FTAM Test Design Using an Automated Test Tool. INFOCOM 1989:251-260
228 Patrick Peters, Roy Dcruz, Chiun-Teh Sung, Christine Wang, Branislav Meandzija: On Generalizations in Networking Software to Encourage Code Portability. INFOCOM 1989:261-267
227 Whasook Jeon, Chongsang Kim, Dong K. Kim: Design of a Distributed Isochronous Channel Management Protocol for IEEE 8026 MAN QPSX. INFOCOM 1989:268-275
226 J. C. Shu, Ming T. Liu: A Synchronization Model for Protocol Conversion. INFOCOM 1989:276-284
225 C. Murray Woodside, G. M. Yee: Traffic Relationships in Networks of Tasks. INFOCOM 1989:285-292
224 Prabandham M. Gopal, Bharath K. Kadaba: Analysis of a Class of Distributed Directory Algorithms. INFOCOM 1989:293-302
223 Craig E. Wills: Locating Distributed Information. INFOCOM 1989:303-311
222 José M. Bernabéu-Aubán, Mostafa H. Ammar, Mustaque Ahamad: Optimal Selection of Multicast Groups for Resource Location on a Distributed System. INFOCOM 1989:312-321
221 Zsehong Tsai, Izhak Rubin: Analysis for Token Ring Networks Operating Under Message Priorities and Delay Limits. INFOCOM 1989:322-331
220 Joseph Pang, Fouad A. Tobagi: Generalized Access Control Strategies for Token Passing Systems. INFOCOM 1989:332-341
219 Charles Brooks, On-Ching Yue: Effect of the Token Holding Timer on MAP Performance. INFOCOM 1989:342-347
218 Adriano Valenzano, Paolo Montuschi, Luigi Ciminiera: On the Behavior of Control Token Protocols with Asynchronous and Synchronous Traffic. INFOCOM 1989:348-355
217 Chin-Wan Chung: Design and Implementation of a Heterogeneous Distributed Database Management System. INFOCOM 1989:356-362
216 Sang Hyuk Son: A Resilient Replication Method in Distributed Database Systems. INFOCOM 1989:363-372
215 Mohsen Sarraf: Performance Analysis of the Outbound Call Management System. INFOCOM 1989:373-381
214 Amine Benkiran, Gérard Durand, Rolf Kraemer, Munir Tag: A Communication System Architecture for the Office. INFOCOM 1989:382-392
213 Randall A. Cieslak, Ayman Fawaz, Sonia Sachs, Pravin Varaiya, Jean C. Walrand, Albert Li: The Programmable Network Prototyping System. INFOCOM 1989:393-399
212 Joseph Betser, Alberto Avritzer, Jack W. Carlyle, Walter J. Karplus: Configuration Synthesis for a Heterogeneous Backbone Cluster and a PC-Interface Network. INFOCOM 1989:400-407
211 S. J. Choi, H. S. Park, H. G. Bahk, Y. K. Park, C. M. Kim: Implementation of Data Capability in TDX-1A System. INFOCOM 1989:408-414
210 Zesheng Zhu: Sythetic Design Method of the Computer Networks. INFOCOM 1989:415-419
209 K. S. Ching, Hyong W. Lee: Integrated Voice and Data Transmission in Packet Radio Network. INFOCOM 1989:420-428
208 Guo-Liang Wu, Jon W. Mark: Capacity Allocation for Integrated Voice/Data Transmission at a Packet Switched TDM. INFOCOM 1989:429-438
207 C. R. Raviraj, E. V. Jones: An Integrated Services Local Area Network with Hybrid Access. INFOCOM 1989:439-447
206 Wai Chen, San-qi Li, Mischa Schwartz: A New Voice Scheduling Scheme for Broadcast Bus Local Area Networks. INFOCOM 1989:448-457
205 Guy Juanole, C. Faure: On Gateway for Internetworking through ISDN: Architecture and Formal Modelling with Petri Nets. INFOCOM 1989:458-467
204 Song-Chyau Liang, James R. Yee: A Gateway Allocation Algorithm for Interconnecting Existing Data Networks. INFOCOM 1989:468-473
203 Peter Martini: High Speed Bridges for High Speed Local Area Networks: Packets per Second vs Bits per Second. INFOCOM 1989:474-483
202 S. Alfonzetti, Salvatore Casale, Alfio Lombardo, G. Bertocchi: Designing a Gateway Between Teletex and OSI Networks by Means of SDL. INFOCOM 1989:484-493
201 Mark W. Beckner: User Access to Broadband ISDN: Full ATM or Otherwise? Walking the Evolutionary Path. INFOCOM 1989:494
200 Peter O'Reilly: ATM: Ready for the Marketplace? INFOCOM 1989:495-496
199 Rajiv Ramaswami, Keshab K. Parhi: Distributed Scheduling of Broadcasts in a Radio Network. INFOCOM 1989:497-504
198 Leonidas Georgiadis, Michael Paterakis: Performance Analysis of Window Type Random-Access Algorithms for Packet Radio Networks. INFOCOM 1989:505-511
197 Lillian Ruston, Prodip Sen: A Rule-Based System for Packet Radio Network Design. INFOCOM 1989:512-519
196 Hsien-Chuen Yu, R. Lee Hamilton Jr.: A Buffered Two-Node Packet Radio Network with Product Form Solution. INFOCOM 1989:520-528
195 Jeane S.-C. Chen, Roch Guérin: Input Queueing of an Internally Non-Blocking Packet Switch with Two Priority Classes. INFOCOM 1989:529-537
194 San-qi Li, Myung Jong Lee: A Study of Traffic Imbalances in a Fast Packet Switch. INFOCOM 1989:538-547
193 Riccardo Melen, Jonathan S. Turner: Nonblocking Networks for Fast Packet Switching. INFOCOM 1989:548-557
192 Amir Behroozi-Toosi, Ramesh R. Rao: Delay Analysis of an Asymmetric, Buffered Random Access System. INFOCOM 1989:558-563
191 Yutaka Ishibashi, Akira Iwabuchi: Performance Evaluation of Adaptive ARQ Schemes over Half Duplex Transmission Line. INFOCOM 1989:564-573
190 Joseph M. Hanratty, Gordon L. Stüber: Asymptotic Performance Analysis of Hybrid ARQ Protocols in Slotted Direct-Sequence Code Division Multiple-Access Networks. INFOCOM 1989:574-583
189 Jonathan L. Wang, John A. Silvester: Delay Minimization of the Adaptive Go-Back-N ARQ Protocols for Point-to-Multipoint Communication. INFOCOM 1989:584-593
188 Stephen B. Wicker: An Error Control Technique for High Data Rate Communication Networks. INFOCOM 1989:594-601
187 Stephen Timms: Broadband Communications: The Commercial Impact. INFOCOM 1989:602-610
186 John F. Patterson, Carmen Egido: Three Keys to the Broadband Future: A View of Applications. INFOCOM 1989:611-616
185 Luiz Fernando Gomes Soares, Simone L. Martins, T. L. P. Bastos: LAN Based Real Time Audio-Graphics Conferencing System. INFOCOM 1989:617-623
184 David J. Wright, Michael To: A Characterization of Telecommunication Services in the 1990's. INFOCOM 1989:624-631
183 Francesco Delli Priscoli, Marco Listanti, Aldo Roveri, A. Vernucci: Access and Switching Techniques in an ATM User-Oriented Satellite System. INFOCOM 1989:632-640
182 Yeali S. Sun, Mario Gerla: SFPS: A Synchronous Fast Packet Switching Architecture for Very High Speeds. INFOCOM 1989:641-646
181 Tzung-Pao Lin: Switch Access Architecture for Quad Voice Lines with Data On-Demand per ISDN BRI. INFOCOM 1989:647-654
180 Guru M. Parulkar, Jonathan S. Turner: Towards a Framework for High Speed Communication in a Heterogeneous Networking Environment. INFOCOM 1989:655-667
179 Wai Sum Lai: Frame Relaying Service: An Overview. INFOCOM 1989:668-673
178 Kim-Joan Chen, Kiran M. Rege: A Comparative Performance Study of Various Congestion Controls for ISDN Frame-Relay Networks. INFOCOM 1989:674-675
177 Rao Cherukuri, Jeffrey H. Derby: Frame Relay: Protocols and Private Network Applications. INFOCOM 1989:676-685
176 J. Lamont, J. Doak, M. Hui: LAN Interconnection via Frame Relaying. INFOCOM 1989:686-690
175 Kyoo Jeong Lee, Youngho Lim: Performance Analysis of the Congestion Control Scheme in Signaling System No 7. INFOCOM 1989:691-700
174 Alexander Gersht, Kyoo Jeong Lee: A Congestion Control Framework for ATM Networks. INFOCOM 1989:701-710
173 Samuel P. Morgan: Queueing Disciplines and Passive Congestion Control in Byte-Stream Networks. INFOCOM 1989:711-720
172 Barry J. Brachman, Samuel T. Chanson: Flow and Congestion Control in the Message Handling Environment. INFOCOM 1989:721-730
171 Sayed Atef Banawan, John Zahorjan: Load Sharing in Heterogeneous Queueing Systems. INFOCOM 1989:731-739
170 Kyoo Jeong Lee, Donald F. Towsley: An Asymptotic Analysis of a Threshold Load Balancing Policy. INFOCOM 1989:740-748
169 Andreas D. Bovopoulos, Aurel A. Lazar: Load Balancing Algorithms for Jacksonian Networks with Acknowledgement Delays. INFOCOM 1989:749-757
168 Ge-Ming Chiu, C. S. Raghavendra, Shu Ming Ng: Resource Allocation with Load Balancing Consideration in Distributed Computing Systems. INFOCOM 1989:758-765
167 Pascale Minet: Performance Evaluation of GAM-T-103 Real-Time Transfer Protocols. INFOCOM 1989:766-773
166 Renu Chipalkatti, James F. Kurose, Donald F. Towsley: Scheduling Policies for Real-Time and Non-Real-Time Traffic in a Statistical Multiplexer. INFOCOM 1989:774-783
165 Christos G. Cassandras, Michelle Hruby Kallmes, Donald F. Towsley: Optimal Routing and Flow Control in Networks with Real-Time Traffic. INFOCOM 1989:784-791
164 Gita Gopal, Ashok Kumar, Abel Weinrib: Routing in a Circuit-Switched Network with Priority Classes. INFOCOM 1989:792-799
163 Nicholas F. Maxemchuk: Comparison of Deflection and Store-and-Forward Techniques in the Manhattan Street and Shuffle-Exchange Networks. INFOCOM 1989:800-809
162 Terence D. Todd: A Compatible ISDN Gateway for Broadband Metropolitan Area Networks. INFOCOM 1989:810-817
161 Enrico Cadorin, Luigi Fratta: Integrated MANs with Hierarchical Architecture. INFOCOM 1989:818-825
160 Liang-Neng Wong, Mischa Schwartz: Flow Control in Metropolitan Area Networks. INFOCOM 1989:826-833
159 S. Kasemlonnapa, James S. Meditch, Biswanath Mukherjee: A Delay-Throughput Performance Analysis of the pi-Persistent Protocol for Unidirectional Broadcast Bus Networks. INFOCOM 1989:834-840
158 Dipankar Raychaudhuri, James Harman: Joint Optimization of Steady State and Dynamic Performance of ALOHA-Type VSAT Channels. INFOCOM 1989:841-848
157 Abraham O. Fapojuwo, David Irvine-Halliday, Wah-Chun Chan: Message and Packet Access Delays in CSMA-CD Local Area Networks. INFOCOM 1989:849-857
156 Biswanath Mukherjee, Andrea C. Lantz, Norman S. Matloff, W. Melody Moh: Dynamic Control of the p1-Persistent Protocol Using Channel Feedback. INFOCOM 1989:858-865
155 Aura Ganz, Imrich Chlamtac: Lightwave Local Area Network Architectures. INFOCOM 1989:866
154 Anwar Khurshid, David M. Rouse, Robert A. Widlicka: Photone Switching in Ring-Based Optic Networks. INFOCOM 1989:867-876
153 Chin-Tau A. Lea: Multi-Log2N Self-Routing Networks and Their Applications in High Speed Electronic and Photonic Switching Systems. INFOCOM 1989:877-886
152 Imrich Chlamtac, Aura Ganz, G. Karmi: Purely Optical Networks for Terabit Communication. INFOCOM 1989:887-896
151 Kin K. Leung, Martin Eisenberg: A Single-Server Queue with Vacations and Gated Time-Limited Service. INFOCOM 1989:897-906
150 Hanoch Levy, Moshe Sidi: Polling Systems with Correlated Arrivals. INFOCOM 1989:907-913
149 Ian F. Akyildiz, Jörg Liebeherr: Application of Norton's Theorem on Queueing Networks with Finite Capacities. INFOCOM 1989:914-923
148 David Tipper, Malur K. Sundareshan: Modeling of Computer Networks for Performance Evaluation and Control Under Nonstationary Conditions. INFOCOM 1989:924-933
147 Richard Vallée, Luis Orozco-Barbosa, Nicolas D. Georganas: Interconnection of Token Rings by IEEE 8026 Metropolitan Area Networks. INFOCOM 1989:934-942
146 Anujan Varma, Suresh Chalasani: Reduction of Crosspoints in One-Sided Crosspoint Switching Networks. INFOCOM 1989:943-952
145 A. Roger Kaye, Bernard Pagurek: An Expert Monitor for a Data Circuit Switch in a Wide-Area Network. INFOCOM 1989:953-959
144 Ted H. Szymanski, Salman Z. Shaikh: Markov Chain Analysis of Packet-Switched Banyans with Arbitrary Switch Sizes, Queue Sizes, Link Multiplicities and Speedups. INFOCOM 1989:960-971
143 Khiem V. Le, Victor O. K. Li: Modeling and Analysis of Systems with Multimode Components and Dependent Failures. INFOCOM 1989:972-980
142 Tony L. Mitchell, Arne A. Nilsson: Architectural Description of a New, Easily Expandable Self-Routing Computer Network Topology. INFOCOM 1989:981-988
141 Susumu Nakayashiki, Jiro Kashio, Takeshi Harakawa, Seiichiro Yamamoto: Wrapping and Merging Reconfiguration Mechanism of a Counter-Rotating Dual Ring. INFOCOM 1989:989-997
140 Chi-Sung Laih, Jau-Yien Lee, Lein Harn, Chin-Hsing Chen: A New Scheme for ID-Based Cryptosystems and Signature. INFOCOM 1989:998-1002
139 Jeremiah F. Hayes, George M. Stamatelos: Blocking in an ISDN Switch. INFOCOM 1989:1003-1009
138 Maged E. Beshai: The Poissonian-Spectrum Method for Treating a Loss System Serving Non-Poissonian Multi-Bit-Rate Traffic. INFOCOM 1989:1010-1019
137 Jorge Santos, Javier Orozco, Omar Alimenti: Performance Evaluation of Standard LAN Protocols in Time-Constrained Environments. INFOCOM 1989:1020-1028
136 Hiromi Okada, Suvepon Saekol, Yoshikazu Tezuka: Performance Considerations on Resolvable-Contention-Ring Networks for Fiber Optic LANs. INFOCOM 1989:1029-1037
135 Wei-hsing Wang, Eugene Pinsky: An Asymptotic Analysis of Complete Sharing Policy. INFOCOM 1989:1038-1046
134 Dragomir D. Dimitrijevic, Basil S. Maglaris, Robert Boorstyn: Routing in Multiple Domain Networks. INFOCOM 1989:1047-1056
133 Harry H. Tan, Tsun-Yee Yan: A New Free-Access Collision Resolution Algorithm Based Connection Request Procedure for Land Mobile Satellite Systems. INFOCOM 1989:1057-1062
132 Gopalakrishnan Ramamurthy, Rajiv S. Dighe: Integration of High Speed Continuous Stream Data Traffic in a Broadband Packet Network. INFOCOM 1989:1063-1071
131 Elvino S. Sousa: On Channel Power Sensing in Terrestrial Spread Spectrum Packet Radio Networks. INFOCOM 1989:1072-1077
130 Jeffrey C. Dill, John A. Silvester: Adaptive Algorithms for Improving the Throughput of CDMA Packet Radio Networks. INFOCOM 1989:1078-1083
129 Rong-Feng Chang, Victor O. K. Li: Performance Analysis of Mobile Packet Radio Networks. INFOCOM 1989:1084-1088
128 Subrahmanyam Dravida, Kotikalapudi Sriram: End-to-End Performance Models for Variable Bit Rate Voice over Tandem Links in Packet Networks. INFOCOM 1989:1089-1097
127 Luiz A. DaSilva, David W. Petr, Victor Frost: A Class-Oriented Replacement Technique for Lost Speech Packets. INFOCOM 1989:1098-1105
126 John Kobza, Steven S. Liu: A Head-of-Line Approximation to Delay-Dependent Scheduling in Integrated Packet-Switched Networks. INFOCOM 1989:1106-1113
125 Jiangzhou Wang, W. Boxiu: Performance of Hybrid DS/SFH Spread-Spectrum Multiple-Access for Indoor Wireless Communication. INFOCOM 1989:1114
124 Israel Bar-David, Eli Plotnik, Raphael Rom: An Efficient Multiple-Access Method for the Binary Adder Channel. INFOCOM 1989:1115-1120
123 Kelvin K. Y. Ho, Ramesh R. Rao, Jack K. Wolf: Random Access Systems with a Time Varying Channel. INFOCOM 1989:1121-1126
122 R. P. Kelley, J. R. Jones, V. J. Bhatt, P. W. Pate: Transceiver Design and Implementation Experience in an Ethernet-Compatible Fiber Optic Local Area Network. INFOCOM 1984:2-7
121 Menachem Abraham, David A. Roos: Tradeoffs in the Design of Physical Layer Hardware for 1Ø MB/S CSMA/CD Networks Operating on CATV-Type Broadband Media. INFOCOM 1984:8-17
120 Dick C. A. Bulterman, Jeffrey A. Wong: A Heterogeneous Network Interface Using a Low-Cost LAN Controller. INFOCOM 1984:18-25
119 John A. Silvester, C. S. Raghavendra: Analysis and Simulation of a Class of double Loop Network Architectures. INFOCOM 1984:30-35
118 John D. Spragins: A Fast Algorithm for Computing Availability in Networks with Dependent Failures. INFOCOM 1984:36-42
117 Y.-W. Ma, C. M. Chen: The Application of the Random Graph Model for the Reliability Analysis of Dynamic Computer Networks. INFOCOM 1984:43-48
116 Kenneth Brayer: Autonomous Adaptive Local Area Networking: Ring Communications via Point-To-Point Implementation. INFOCOM 1984:49-58
115 Werner Bux, Davide Grillo: End-To-End Performance in Local-Area Networks of Interconnected Token Rings. INFOCOM 1984:60-68
114 Alexander Thomasian, Paul F. Bay: Performance Analysis of Window Flow Control for Multiple Virtual Routes. INFOCOM 1984:69-80
113 Jin-Fu Chang, Chia-Liang Liu: A Two-Level Input Buffer Limit Congestion Control by Not Too Restrictive on Local Input Messages. INFOCOM 1984:81-86
112 Joseph M. Selga: New Flow Control Power is Decentralizable and Fair. INFOCOM 1984:87-94
111 Jie-Yong Juang, Benjamin W. Wah: Unified Window Protocols for Contention Resolution in Local Multi-Access Networks. INFOCOM 1984:97-104
110 Tatsuya Suda, Yechiam Yemini, Mischa Schwartz: Tree Network with Collision Avoidance Switches. INFOCOM 1984:105-113
109 Bijan Jabbari, Frederick S. Hillier: Blocking and Delay in Fixed TDMA with Finite Buffer Capacity. INFOCOM 1984:114-118
108 Inder S. Gopal, Adrian Segall: Dynamic Address Assignment Protocols. INFOCOM 1984:120-128
107 Zvi Goldberg, Nachum Shacham: A Distributed Network Protocol with Limited Span. INFOCOM 1984:129-135
106 Arbee L. P. Chen, Victor O. K. Li: Deriving Optimal Semi-Join Programs for Distributed Query Processing. INFOCOM 1984:136-145
105 John O. Limb, Dwight D. Hill, Jon W. Mark, D. K. Sharma, H. A. Wilder: An Architecture and Protocol for a high Speed Local Area Network Supporting Integrated Traffic. INFOCOM 1984:148-155
104 Valerie Lasker, Monte Lien, Eric Benhamou: An Architecture for high Performance Protocol Implementation. INFOCOM 1984:156-164
103 Jean-Alain Hernandez, Eric Horlait, René Joly, Guy Pujolle: A High Throughput Local Network: Escalibur. INFOCOM 1984:165-171
102 Wayne M. Loucks, V. Carl Hamacher, Bruno R. Preiss, Luke Wong: Short-Packet Transfer Performance in Local Area Rings. INFOCOM 1984:174-184
101 James S. Meditch, Chin-Tau A. Lea: A Virtual Time CSMA Protocol for Integrated Voice-Data. INFOCOM 1984:185-189
100 W. R. Franta, A. R. K. Sastry: Contention-Based Access Protocols with Reservations for Local Networks with Non-Homogeneous Traffic Demands. INFOCOM 1984:190-197
99 Nancy D. Griffeth, Magdi M. A. Morsi: Simulation of Concurrency Control and Recovery Protocols for Distributed Database Systems. INFOCOM 1984:200-209
98 Gus A. Galatianos, Wang-Chuan Tsai: Performance Evaluation of Update Synchronization Algorithms on Local Network Database Environments. INFOCOM 1984:210-218
97 Bernd Walter: Replicated Data and Stable Storage in Distributed Database Systems. INFOCOM 1984:219-227
96 Belka Kraimeche, Mischa Schwartz: Circuit Access Control Strategies in Integrated Digital Networks. INFOCOM 1984:230-235
95 John N. Daigle, Steven D. Whitehead: Transmission Facility Sharing for Integrated Services. INFOCOM 1984:236-245
94 San-qi Li, Jon W. Mark: Performance of Integrated Services on a Single TDM System. INFOCOM 1984:246-255
93 Yih-Chyun Jenq: Approximations For Packetized Voice Traffic in Statistical Multiplexer. INFOCOM 1984:256-259
92 M. E. Levilion: Involvement of Users and Manufacturers in the Development of CCITT Packet Switching Recommendations. INFOCOM 1984:262-267
91 Kenichi Kawaguchi: Enhancements to Recommendation X75 and International Interconnection of Packet Switched Public Data Networks. INFOCOM 1984:268-273
90 Edmond J. Blausten: Accessing the Packet Switched Public Data Network - The Pad. INFOCOM 1984:274-282
89 Basil S. Maglaris: An Optimal Local Policy for Two-Level Adaptive Routing in Computer Networks. INFOCOM 1984:284-290
88 Michael Epelman, Alexander Gersht: Asymptotic Qualitative Analysis of a Packet-Switched Virtual Circuit Network. INFOCOM 1984:291-298
87 K. H. Muralidhar, Malur K. Sundareshan: Adaptive Routing and Flow Control in Large Communication Networks: A Hierarchical Scheme for Multiobjective Optimization. INFOCOM 1984:299-308
86 Gregor von Bochmann: Formal Description Techniques for OSI: an Example. INFOCOM 1984:312-317
85 Son T. Vuong, Donald D. Cowan: UNISPEX - A Unified Model for Protocol Specification and Verification. INFOCOM 1984:318-327
84 Aaron Kershenbaum, Robert Boorstyn: Evaluation of Throughput in Multihop Packet Radio Networks with Complex Topologies. INFOCOM 1984:330-335
83 Israel Cidon, Moshe Sidi: A Single-Hop Multi-Station Packet-Radio Network. INFOCOM 1984:336-343
82 Radhika R. Roy, Tarek N. Saadawi: Analysis of Multihop Packet Radio Network - Carrier Sense Multiple Access with Busy-Tone and Collision Detection. INFOCOM 1984:344-350
81 K. Amir-Ebrahimi: Engineering Large Scale Packet Networks. INFOCOM 1984:354-360
80 J. A. Field, H. C. Ratz, Mike Sablatash: Performance Factors in Videotex Systems. INFOCOM 1984:361-368
79 Ashok K. Thareja, Satish K. Tripathi: Buffer Sharing in Dynamic Load Environment. INFOCOM 1984:369-379
78 Dushan Z. Badal, W. McElyea: A Robust Adaptive Concurrency Control for Distributed Databases. INFOCOM 1984:382-391
77 Gerald Leitner: Approximate Replication of Data Objects in Computer Networks. INFOCOM 1984:392-397
76 Sevki S. Erdogan: Archive Management in Distributed Systems. INFOCOM 1984:398-411
75 Bernard Jamet: Progress on X25. INFOCOM 1984:414-417
74 Mitsuo Kurachi, Shuji Tomita, Shigetoshi Ohnishi: DDX Operational Experience and the Network in 85. INFOCOM 1983:3-12
73 Nils Holmqvist, Sven-Olof Eriksson: Circuit and Packet Switching in Sweden. INFOCOM 1983:13-20
72 Martin S. McKendry, James E. Allchin, W. C. Thibault: Architecture for a Global Operating System. INFOCOM 1983:25-30
71 Harry R. Chesley, Raphael Rom: A New Approach to Network Name Management. INFOCOM 1983:31-35
70 Dushan Z. Badal, M. T. Gehl: On Deadlock Detection in Distributed Computing Systems. INFOCOM 1983:36-45
69 Dennis J. Baker: Distributed Control of Broadcast Radio Networks with Changing Topologies. INFOCOM 1983:49-55
68 Bruce Hajek: Balanced Scheduling in a Packet Synchronized spread Spectrum Network. INFOCOM 1983:56-65
67 Baruch Awerbuch: Distributed Broadcast Algorithm in Multihop Aloha Networks. INFOCOM 1983:66-71
66 Paulina Chan: Communications Networking - Today and Tomorrow. INFOCOM 1983:77-78
65 D. Picasso: Advanced Office System Networking for the AT&T Corporate Telecommunications. INFOCOM 1983:78
64 R. A. Eimers, E. W. Huber, J. A. Ryerson: Hughes Aircraft Company's Experiences in X25 Packet Networking. INFOCOM 1983:79-86
63 S. A. Abraham, H. A. Bodner, C. G. Harrington, R. C. White Jr.: Advanced Information Systems (AIS*) / NET 1000 Service Technical Overview. INFOCOM 1983:87-90
62 Radia J. Perlman: Fault-Tolerant Broadcast of Routing Information. INFOCOM 1983:93-102
61 Adrian Segall, Baruch Awerbuch: A Reliable Broadcast Protocol. INFOCOM 1983:103-106
60 James P. Fernow, Mohamed L. El-Sayed: Stability of Adaptive Congestion Controls in Packet Networks. INFOCOM 1983:107-114
59 Jacob Hagouel: Source Routing and Distributed Algorithm to Implement it. INFOCOM 1983:115-123
58 G. S. Bhusri: Optimum Implementation of Common Channel Signalling in Local Networks. INFOCOM 1983:129-136
57 Dale E. Fisher: Integrated Digital Telecommunications Networking. INFOCOM 1983:137-142
56 A. R. K. Sastry: Performance Objectives for Integrated Services Digital Networks: Consideration of Transmission Errors. INFOCOM 1983:143-149
55 Bernd Walter: Using Redundancy for Implementing Low-Cost Read-Only Transactions in a Distributed Database System. INFOCOM 1983:153-159
54 Edward N. Shipley: Techniques for Administration of the Distributed Database of the CCIS Network. INFOCOM 1983:160-167
53 Jehan-François Pâris, Walter F. Tichy: Stork: An Experimental Migrating File System for Computer Networks. INFOCOM 1983:168-175
52 Fred M. Burg: Design Considerations for Using the X25 Packet Layer in Data Terminal Equipment. INFOCOM 1983:180-188
51 John W. Neumann: OSI Transport and Session Layers Services and Protocol. INFOCOM 1983:189-195
50 Paul D. Bartoli: The Application and Presentation Layers of the Reference Model for Open Systems Interconnection. INFOCOM 1983:196-201
49 Paulina Chan: User Experiences in Local Area Networks and other Novel Communications Systems. INFOCOM 1983:207-208
48 Betty Vega Cash: The Economic Impact of a Full-Motion Video Teleconferencing System from the User's Perspective. INFOCOM 1983:209
47 Gerald J. Johnson: Installation of an Integrated Switched Network. INFOCOM 1983:210
46 Mario F. Alvarez: User Experiences and Performance Measurements with the Net/One Baseband Local Network. INFOCOM 1983:211
45 Then Tang Liu: Window and Tree Protocols for Satellite Channels. INFOCOM 1983:215-221
44 Moshe Sidi, Adrian Segall: A Three-Node Packet-Radio Network. INFOCOM 1983:222-228
43 Loren P. Clare, Izhak Rubin: Queueing Analysis of TDMA with Limited and Unlimited Buffer Capacity. INFOCOM 1983:229-238
42 M. A. Padlipsky: A Perspective on the ARPANET Reference Model. INFOCOM 1983:242-253
41 Marshall D. Abrams: End-To-End Encryption Implementation Problems in an Asynchronous Network. INFOCOM 1983:257-264
40 Richard E. Lennon, Stephen M. Matyas: Cryptographic Key Verification. INFOCOM 1983:265-269
39 Raoul Pollak: Implications of International Terrorism on Security of Information Systems. INFOCOM 1983:270-276
38 A. Y. Teng, J. Yao, B. Gopinath, Krishan K. Sabnani: A File Transfer System for Scheduling File Transfers in the Bell Labs Network. INFOCOM 1983:279-287
37 Robert W. Colby: SNOE - A Portable Operating System Interface for the Bell Laboratories Network. INFOCOM 1983:288-294
36 K. A. Conlee, R. M. Watts: BLN Experiences with Transport Layer Algorithms and Protocols. INFOCOM 1983:295-300
35 Kadaba Bharath-Kumar, Parviz Kermani: Analysis of a Resequencing problem in Communication Networks. INFOCOM 1983:303-310
34 Alan E. Baratz, Jeffrey M. Jaffe: Establishing Virtual Circuits in Large Computer Networks. INFOCOM 1983:311-318
33 Diana F. Kuhl: Error Recovery Protocols: Link by Link vs Edge to Edge. INFOCOM 1983:319-324
32 John A. Stankovic: A Heuristic for Cooperation Among Decentralized Controllers. INFOCOM 1983:331-339
31 Cecil T. Hua, Bharat K. Bhargava: Analysis of the Majority Consensus Concurrency Control Algorithm for Correctness and Performance Using the Event Ordering Approach. INFOCOM 1983:340-351
30 Gary Lindstrom, Frances Hunt: Consistency and Currency in Functional Databases. INFOCOM 1983:352-361
29 Randolph D. Nelson, Leonard Kleinrock: Maximum Probability of Successful Transmission in a Random Planar Packet Radio Network. INFOCOM 1983:365-370
28 M. Y. Elsanadidi, Wesley W. Chu: Behavior of Multihop Networks Utilizing Echo Acknowledgments. INFOCOM 1983:371-380
27 Fouad A. Tobagi, José M. Brázio: Throughput Analysis of Multihop Packet Radio Networks under Various Channel Access Schemes. INFOCOM 1983:381-389
26 Basil S. Maglaris, Robert Boorstyn, Aaron Kershenbaum: Extensions to the Analysis of Multihop Packet Radio Networks. INFOCOM 1983:390-395
25 Flaminio Borgonovo, Luigi Fratta, F. Tarini, P. Zini: L-Express-Net: A Communication Protocol for Local Area Networks. INFOCOM 1983:399-404
24 James F. Kurose, Mischa Schwartz: A Family of Window Protocols for Time Constrained Applications in CSMA Networks. INFOCOM 1983:405-413
23 Gagan L. Choudhury, Stephen S. Rappaport: Carrier Sense Multiple Access with Collision Detection and Priorities. INFOCOM 1983:414-423
22 John S. Baras, Arthur J. Dorsey: Adaptive Control of two Competing Queues. INFOCOM 1983:427-435
21 Ashok K. Thareja, Ashok K. Agrawala: Impact of Buffer Allocation Policies on Delays in Message Switching Networks. INFOCOM 1983:436-442
20 Glenn D. Marcus, Panayota Papantoni-Kazakos: A Multiple-Access Scheduling Protocol with Limited Queue Information. INFOCOM 1983:443-447
19 Otis E. Gooding, Albert B. Jeng, Domenic L. Giovachino: An All-In-One C3I Local Area Network. INFOCOM 1983:451-464
18 Nicolas D. Georganas, Rama Mwikalo: PLATON: An Overview of a University Local Computer Network. INFOCOM 1983:465-471
17 Ichiro Iida, Yasuhiko Yasuda, Yushi Komachi: Modified CSMA/CD Local Area Network with Message-Based Priority Function. INFOCOM 1983:472-477
16 F. R. Magee Jr., R. P. Levy: An Internal Packet Network Protocol and Buffer Management Scheme for an X25 Based Network. INFOCOM 1983:481-484
15 Efrem Lipkin, Philip Morton, Steve Roe: XDot: An Object Based Implementation of X25. INFOCOM 1983:485-490
14 Raymond J. A. Buhr, D. A. MacKinnon: Evolving Toward Open System Interconnection. INFOCOM 1983:491-498
13 Shyam Johari: Burroughs Network Architecture: An Overview. INFOCOM 1983:503-511
12 Ted Rohling: Design and Implementation of a local Network. INFOCOM 1983:512-517
11 Yang-Chang Hong, Y. W. Ho, Te-Son Kuo: OPAS: An Integrated System for Office Procedure Automation. INFOCOM 1983:518-528
10 Yechiam Yemini: Astatistical Mechanics of Distributed Resource Sharing Mechanisms. INFOCOM 1983:531-539
9 Mischa Schwartz, Belka Kraimeche: An Analytic Control Model for an Integrated Node. INFOCOM 1983:540-546
8 Jin-Fu Chang, Rong-Feng Chang: The Application of Residue Theorem to the study of the Behavior of a Finite Switching Node in a Computer Network. INFOCOM 1983:547-556
7 W. Chou, Arne A. Nilsson, S. C. Chang: Distributed Directories in Internetworking Environment: Strategy and Performance. INFOCOM 1983:563-571
6 Yen-Yi Wu: Performance of File Directory Systems on a Network with Redundant Data Bases. INFOCOM 1983:572-580
5 Masahiro Tsuchiya, Michael P. Mariani: Availability Analysis of Distributed Processing Systems. INFOCOM 1983:581-584
4 Michael Lai: Communications Software Tools. INFOCOM 1983:589-590
3 Ronald Kronz, Sybil Lee, Michael Sun: Practical Design Tools for Large Packet-Switched Networks. INFOCOM 1983:591-599
2 T. C. Addison, S. Y. Lee, Joseph O'Rourke: The MEDITS Software Tools to Support Special Services System Engineering. INFOCOM 1983:600-607
1 Stefano Spaccapietra, G. Barbara Demo, Christine Parent: SCOOP: A System For Integrating Existing Heterogeneous Distributed Data Bases and Application Programs. INFOCOM 1983:608-616
